 D3D9DrvRTX

 Timestamp is 69b3530e (Thu Mar 12 16:58:06 2026)

 Preferred load address is 10000000

 Start         Length     Name                   Class
 0001:00000000 000002b0H .text$di                CODE
 0001:000002b0 000de9b0H .text$mn                CODE
 0001:000dec60 0000c360H .text$x                 CODE
 0001:000eafc0 000001dcH .text$yd                CODE
 0002:00000000 00000330H .idata$5                DATA
 0002:00000330 0000000cH .00cfg                  DATA
 0002:0000033c 00000004H .CRT$XCA                DATA
 0002:00000340 0000000cH .CRT$XCC                DATA
 0002:0000034c 00000008H .CRT$XCL                DATA
 0002:00000354 00000024H .CRT$XCU                DATA
 0002:00000378 00000004H .CRT$XCZ                DATA
 0002:0000037c 00000004H .CRT$XIA                DATA
 0002:00000380 00000014H .CRT$XIC                DATA
 0002:00000394 00000004H .CRT$XIZ                DATA
 0002:00000398 00000004H .CRT$XLA                DATA
 0002:0000039c 00000004H .CRT$XLZ                DATA
 0002:000003a0 00000004H .CRT$XPA                DATA
 0002:000003a4 00000008H .CRT$XPX                DATA
 0002:000003ac 00000004H .CRT$XPXA               DATA
 0002:000003b0 00000004H .CRT$XPZ                DATA
 0002:000003b4 00000004H .CRT$XTA                DATA
 0002:000003b8 00000008H .CRT$XTZ                DATA
 0002:000003bc 00000000H .gfids$y                DATA
 0002:000003c0 00013c40H .rdata                  DATA
 0002:00014000 00000040H .rdata$CastGuardVftablesA DATA
 0002:00014040 00000040H .rdata$CastGuardVftablesC DATA
 0002:00014080 00000018H .rdata$T                DATA
 0002:00014098 00002208H .rdata$r                DATA
 0002:000162a0 00000ca0H .rdata$sxdata           DATA
 0002:00016f40 000001acH .rdata$voltmd           DATA
 0002:000170ec 00000480H .rdata$zzzdbg           DATA
 0002:0001756c 00000004H .rtc$IAA                DATA
 0002:00017570 00000004H .rtc$IZZ                DATA
 0002:00017574 00000004H .rtc$TAA                DATA
 0002:00017578 00000004H .rtc$TZZ                DATA
 0002:0001757c 00000004H .tls                    DATA
 0002:00017580 00000004H .tls$                   DATA
 0002:00017584 00000004H .tls$ZZZ                DATA
 0002:00017588 0000cfbcH .xdata$x                DATA
 0002:00024544 00000000H .edata                  DATA
 0002:00024544 0000008cH .idata$2                DATA
 0002:000245d0 00000014H .idata$3                DATA
 0002:000245e4 00000330H .idata$4                DATA
 0002:00024914 00001594H .idata$6                DATA
 0003:00000000 00000ba0H .data                   DATA
 0003:00000ba0 00000378H .data$r                 DATA
 0003:00000f18 00001090H .data$rs                DATA
 0003:00001fa8 000040f0H .bss                    DATA
 0004:00000000 00013610H _RDATA                  DATA
 0005:00000000 00000080H .fptable                DATA
 0006:00000000 000000a0H .rsrc$01                DATA
 0006:000000a0 00000508H .rsrc$02                DATA

  Address         Publics by Value              Rva+Base       Lib:Object

 0000:00000000       ___AbsoluteZero            00000000     <absolute>
 0000:00000000       ___arm64x_extra_rfe_table  00000000     <absolute>
 0000:00000000       ___arm64x_extra_rfe_table_size 00000000     <absolute>
 0000:00000000       ___arm64x_native_entrypoint 00000000     <absolute>
 0000:00000000       ___arm64x_redirection_metadata 00000000     <absolute>
 0000:00000000       ___arm64x_redirection_metadata_count 00000000     <absolute>
 0000:00000000       ___dynamic_value_reloc_table 00000000     <absolute>
 0000:00000000       ___enclave_config          00000000     <absolute>
 0000:00000000       ___guard_check_icall_a64n_fptr 00000000     <absolute>
 0000:00000000       ___guard_eh_cont_count     00000000     <absolute>
 0000:00000000       ___guard_eh_cont_table     00000000     <absolute>
 0000:00000000       ___guard_fids_count        00000000     <absolute>
 0000:00000000       ___guard_fids_table        00000000     <absolute>
 0000:00000000       ___guard_iat_count         00000000     <absolute>
 0000:00000000       ___guard_iat_table         00000000     <absolute>
 0000:00000000       ___guard_longjmp_count     00000000     <absolute>
 0000:00000000       ___guard_longjmp_table     00000000     <absolute>
 0000:00000000       ___hybrid_auxiliary_delayload_iat 00000000     <absolute>
 0000:00000000       ___hybrid_auxiliary_delayload_iat_copy 00000000     <absolute>
 0000:00000000       ___hybrid_auxiliary_iat    00000000     <absolute>
 0000:00000000       ___hybrid_auxiliary_iat_copy 00000000     <absolute>
 0000:00000000       ___hybrid_code_map         00000000     <absolute>
 0000:00000000       ___hybrid_code_map_count   00000000     <absolute>
 0000:00000000       ___hybrid_image_info_bitfield 00000000     <absolute>
 0000:00000000       ___x64_code_ranges_to_entry_points 00000000     <absolute>
 0000:00000000       ___x64_code_ranges_to_entry_points_count 00000000     <absolute>
 0000:00000000       __except_list              00000000     <absolute>
 0000:0000002c       __tls_array                0000002c     <absolute>
 0000:00000100       ___guard_flags             00000100     <absolute>
 0000:00000328       ___safe_se_handler_count   00000328     <absolute>
 0000:00000000       ___ImageBase               10000000     <linker-defined>
 0001:000002b0       ??$New@VFVector@@@@YAPAVFVector@@AAVFMemStack@@H@Z 100012b0 f i D3D9Render_mesh_processing.obj
 0001:000002d0       ??$NewZeroed@VFVector@@@@YAPAVFVector@@AAVFMemStack@@H@Z 100012d0 f i D3D9Render_mesh_processing.obj
 0001:00000300       ??$_Allocate_manually_vector_aligned@U_Default_allocate_traits@std@@@std@@YAPAXI@Z 10001300 f i D3D9Render_mesh_processing.obj
 0001:00000340       ??$_Copy_memmove@PAHPAH@std@@YAPAHPAH00@Z 10001340 f i D3D9Render_mesh_processing.obj
 0001:00000360       ??$_Copy_memmove@PAPAVUTexture@@PAPAV1@@std@@YAPAPAVUTexture@@PAPAV1@00@Z 10001360 f i D3D9Render_mesh_processing.obj
 0001:00000380       ??$_Copy_memmove@PAUFRenderVert@@PAU1@@std@@YAPAUFRenderVert@@PAU1@00@Z 10001380 f i D3D9Render_mesh_processing.obj
 0001:000003b0       ??$_Copy_memmove_tail@PAH@std@@YAPAHQBDQAHII@Z 100013b0 f i D3D9Render_mesh_processing.obj
 0001:000003d0       ??$_Copy_memmove_tail@PAPAVUTexture@@@std@@YAPAPAVUTexture@@QBDQAPAV1@II@Z 100013d0 f i D3D9Render_mesh_processing.obj
 0001:000003f0       ??$_Copy_memmove_tail@PAUFRenderVert@@@std@@YAPAUFRenderVert@@QBDQAU1@II@Z 100013f0 f i D3D9Render_mesh_processing.obj
 0001:00000410       ??$_Destroy_range@V?$allocator@U?$SurfKeyBucket@PAVUTexture@@UFRenderVert@@@@@std@@@std@@YAXPAU?$SurfKeyBucket@PAVUTexture@@UFRenderVert@@@@QAU1@AAV?$allocator@U?$SurfKeyBucket@PAVUTexture@@UFRenderVert@@@@@0@@Z 10001410 f i D3D9Render_mesh_processing.obj
 0001:000004b0       ??$_Destroy_range@V?$allocator@UActorRenderData@@@std@@@std@@YAXPAUActorRenderData@@QAU1@AAV?$allocator@UActorRenderData@@@0@@Z 100014b0 f i D3D9Render_mesh_processing.obj
 0001:00000560       ??$_Emplace_reallocate@$$V@?$vector@U?$SurfKeyBucket@PAVUTexture@@UFRenderVert@@@@V?$allocator@U?$SurfKeyBucket@PAVUTexture@@UFRenderVert@@@@@std@@@std@@AAEPAU?$SurfKeyBucket@PAVUTexture@@UFRenderVert@@@@QAU2@@Z 10001560 f i D3D9Render_mesh_processing.obj
 0001:00000710       ??$_Emplace_reallocate@$$V@?$vector@UActorRenderData@@V?$allocator@UActorRenderData@@@std@@@std@@AAEPAUActorRenderData@@QAU2@@Z 10001710 f i D3D9Render_mesh_processing.obj
 0001:000008e0       ??$_Emplace_reallocate@$$V@?$vector@UFRenderVert@@V?$allocator@UFRenderVert@@@std@@@std@@AAEPAUFRenderVert@@QAU2@@Z 100018e0 f i D3D9Render_mesh_processing.obj
 0001:00000ac0       ??$_Emplace_reallocate@ABQAVUTexture@@@?$vector@PAVUTexture@@V?$allocator@PAVUTexture@@@std@@@std@@AAEPAPAVUTexture@@QAPAV2@ABQAV2@@Z 10001ac0 f i D3D9Render_mesh_processing.obj
 0001:00000c40       ??$_Fill_zero_memset@PAH@std@@YAXPAHI@Z 10001c40 f i D3D9Render_mesh_processing.obj
 0001:00000c60       ??$_Is_all_bits_zero@H@std@@YA_NABH@Z 10001c60 f i D3D9Render_mesh_processing.obj
 0001:00000c80       ??$_Resize@H@?$vector@HV?$allocator@H@std@@@std@@AAEXIABH@Z 10001c80 f i D3D9Render_mesh_processing.obj
 0001:00000e10       ??$_Uninitialized_fill_n@V?$allocator@H@std@@@std@@YAPAHPAHIABHAAV?$allocator@H@0@@Z 10001e10 f i D3D9Render_mesh_processing.obj
 0001:00000e60       ??$_Uninitialized_move@PAU?$SurfKeyBucket@PAVUTexture@@UFRenderVert@@@@V?$allocator@U?$SurfKeyBucket@PAVUTexture@@UFRenderVert@@@@@std@@@std@@YAPAU?$SurfKeyBucket@PAVUTexture@@UFRenderVert@@@@QAU1@0PAU1@AAV?$allocator@U?$SurfKeyBucket@PAVUTexture@@UFRenderVert@@@@@0@@Z 10001e60 f i D3D9Render_mesh_processing.obj
 0001:00000f30       ??$_Uninitialized_move@PAUActorRenderData@@V?$allocator@UActorRenderData@@@std@@@std@@YAPAUActorRenderData@@QAU1@0PAU1@AAV?$allocator@UActorRenderData@@@0@@Z 10001f30 f i D3D9Render_mesh_processing.obj
 0001:00001000       ??$construct_at@UActorRenderData@@$$V@std@@YAPAUActorRenderData@@QAU1@@Z 10002000 f i D3D9Render_mesh_processing.obj
 0001:000010d0       ??$emplace_back@$$V@?$vector@UActorRenderData@@V?$allocator@UActorRenderData@@@std@@@std@@QAEAAUActorRenderData@@XZ 100020d0 f i D3D9Render_mesh_processing.obj
 0001:000011d0       ??$emplace_back@$$V@?$vector@UFRenderVert@@V?$allocator@UFRenderVert@@@std@@@std@@QAEAAUFRenderVert@@XZ 100021d0 f i D3D9Render_mesh_processing.obj
 0001:00001220       ??0?$UniqueValueArray@PAVUTexture@@@@QAE@H@Z 10002220 f i D3D9Render_mesh_processing.obj
 0001:00001410       ??0bad_alloc@std@@QAE@ABV01@@Z 10002410 f i D3D9Render_mesh_processing.obj
 0001:00001490       ??0bad_array_new_length@std@@QAE@ABV01@@Z 10002490 f i D3D9Render_mesh_processing.obj
 0001:00001510       ??0bad_array_new_length@std@@QAE@XZ 10002510 f i D3D9Render_mesh_processing.obj
 0001:00001580       ??0exception@std@@QAE@ABV01@@Z 10002580 f i D3D9Render_mesh_processing.obj
 0001:000015e0       ??1?$SurfKeyBucketVector@PAVUTexture@@UFRenderVert@@@@QAE@XZ 100025e0 f i D3D9Render_mesh_processing.obj
 0001:00001670       ??1?$UniqueValueArray@PAVUTexture@@@@QAE@XZ 10002670 f i D3D9Render_mesh_processing.obj
 0001:00001720       ??1?$_Uninitialized_backout_al@V?$allocator@U?$SurfKeyBucket@PAVUTexture@@UFRenderVert@@@@@std@@@std@@QAE@XZ 10002720 f i D3D9Render_mesh_processing.obj
 0001:00001740       ??1?$_Uninitialized_backout_al@V?$allocator@UActorRenderData@@@std@@@std@@QAE@XZ 10002740 f i D3D9Render_mesh_processing.obj
 0001:00001760       ??1?$vector@HV?$allocator@H@std@@@std@@QAE@XZ 10002760 f i D3D9Render_mesh_processing.obj
 0001:00001790       ??1?$vector@PAVUTexture@@V?$allocator@PAVUTexture@@@std@@@std@@QAE@XZ 10002790 f i D3D9Render_mesh_processing.obj
 0001:000017c0       ??1?$vector@U?$SurfKeyBucket@PAVUTexture@@UFRenderVert@@@@V?$allocator@U?$SurfKeyBucket@PAVUTexture@@UFRenderVert@@@@@std@@@std@@QAE@XZ 100027c0 f i D3D9Render_mesh_processing.obj
 0001:00001810       ??1?$vector@UFRenderVert@@V?$allocator@UFRenderVert@@@std@@@std@@QAE@XZ 10002810 f i D3D9Render_mesh_processing.obj
 0001:00001850       ??1_Reallocation_guard@?$vector@HV?$allocator@H@std@@@std@@QAE@XZ 10002850 f i D3D9Render_mesh_processing.obj
 0001:00001870       ??1_Reallocation_guard@?$vector@PAVUTexture@@V?$allocator@PAVUTexture@@@std@@@std@@QAE@XZ 10002870 f i D3D9Render_mesh_processing.obj
 0001:00001890       ??1_Reallocation_guard@?$vector@U?$SurfKeyBucket@PAVUTexture@@UFRenderVert@@@@V?$allocator@U?$SurfKeyBucket@PAVUTexture@@UFRenderVert@@@@@std@@@std@@QAE@XZ 10002890 f i D3D9Render_mesh_processing.obj
 0001:000018c0       ??1_Reallocation_guard@?$vector@UActorRenderData@@V?$allocator@UActorRenderData@@@std@@@std@@QAE@XZ 100028c0 f i D3D9Render_mesh_processing.obj
 0001:000018f0       ??1_Reallocation_guard@?$vector@UFRenderVert@@V?$allocator@UFRenderVert@@@std@@@std@@QAE@XZ 100028f0 f i D3D9Render_mesh_processing.obj
 0001:00001910       ??1_Simple_reallocation_guard@?$vector@HV?$allocator@H@std@@@std@@QAE@XZ 10002910 f i D3D9Render_mesh_processing.obj
 0001:00001930       ??1_Simple_reallocation_guard@?$vector@PAVUTexture@@V?$allocator@PAVUTexture@@@std@@@std@@QAE@XZ 10002930 f i D3D9Render_mesh_processing.obj
 0001:00001950       ??1_Simple_reallocation_guard@?$vector@U?$SurfKeyBucket@PAVUTexture@@UFRenderVert@@@@V?$allocator@U?$SurfKeyBucket@PAVUTexture@@UFRenderVert@@@@@std@@@std@@QAE@XZ 10002950 f i D3D9Render_mesh_processing.obj
 0001:00001970       ??1_Simple_reallocation_guard@?$vector@UFRenderVert@@V?$allocator@UFRenderVert@@@std@@@std@@QAE@XZ 10002970 f i D3D9Render_mesh_processing.obj
 0001:00001990       ??1bad_alloc@std@@UAE@XZ   10002990 f i D3D9Render_mesh_processing.obj
 0001:000019e0       ??1bad_array_new_length@std@@UAE@XZ 100029e0 f i D3D9Render_mesh_processing.obj
 0001:00001a30       ??1exception@std@@UAE@XZ   10002a30 f i D3D9Render_mesh_processing.obj
 0001:00001a80       ??_0FCoords@@QAEAAV0@ABVFRotator@@@Z 10002a80 f i D3D9Render_mesh_processing.obj
 0001:00001d20       ??_Ebad_alloc@std@@UAEPAXI@Z 10002d20 f i D3D9Render_mesh_processing.obj
 0001:00001d20       ??_Gbad_alloc@std@@UAEPAXI@Z 10002d20 f i D3D9Render_mesh_processing.obj
 0001:00001d90       ??_Ebad_array_new_length@std@@UAEPAXI@Z 10002d90 f i D3D9Render_mesh_processing.obj
 0001:00001d90       ??_Gbad_array_new_length@std@@UAEPAXI@Z 10002d90 f i D3D9Render_mesh_processing.obj
 0001:00001e00       ??_Eexception@std@@UAEPAXI@Z 10002e00 f i D3D9Render_mesh_processing.obj
 0001:00001e00       ??_Gexception@std@@UAEPAXI@Z 10002e00 f i D3D9Render_mesh_processing.obj
 0001:00001e70       ?DXMatToFCoord@@YA?AVFCoords@@ABUXMMATRIX@DirectX@@@Z 10002e70 f i D3D9Render_mesh_processing.obj
 0001:00001f20       ?FCoordToDXMat@@YA?AUXMMATRIX@DirectX@@ABVFCoords@@@Z 10002f20 f i D3D9Render_mesh_processing.obj
 0001:00001f80       ?FRotToDXRotMat@@YA?AUXMMATRIX@DirectX@@ABVFRotator@@@Z 10002f80 f i D3D9Render_mesh_processing.obj
 0001:00002030       ?SafeNormal@FVector@@QBE?AV1@XZ 10003030 f i D3D9Render_mesh_processing.obj
 0001:000020b0       ?XMMatrixMultiply@DirectX@@YQ?AUXMMATRIX@1@U21@ABU21@@Z 100030b0 f i D3D9Render_mesh_processing.obj
 0001:000021f0       ?XMMatrixScaling@DirectX@@YQ?AUXMMATRIX@1@MMM@Z 100031f0 f i D3D9Render_mesh_processing.obj
 0001:00002220       ?XMMatrixTranslationFromVector@DirectX@@YQ?AUXMMATRIX@1@T__m128@@@Z 10003220 f i D3D9Render_mesh_processing.obj
 0001:00002260       ?XMVector3Normalize@DirectX@@YQ?AT__m128@@T2@@Z 10003260 f i D3D9Render_mesh_processing.obj
 0001:000022a0       ?XMVector3Transform@DirectX@@YQ?AT__m128@@T2@UXMMATRIX@1@@Z 100032a0 f i D3D9Render_mesh_processing.obj
 0001:000022d0       ?_Change_array@?$vector@U?$SurfKeyBucket@PAVUTexture@@UFRenderVert@@@@V?$allocator@U?$SurfKeyBucket@PAVUTexture@@UFRenderVert@@@@@std@@@std@@AAEXQAU?$SurfKeyBucket@PAVUTexture@@UFRenderVert@@@@II@Z 100032d0 f i D3D9Render_mesh_processing.obj
 0001:00002330       ?_Throw_bad_array_new_length@std@@YAXXZ 10003330 f i D3D9Render_mesh_processing.obj
 0001:00002350       ?_Xlength@?$vector@HV?$allocator@H@std@@@std@@CAXXZ 10003350 f i D3D9Render_mesh_processing.obj
 0001:00002360       ?_Xlength@?$vector@PAVUTexture@@V?$allocator@PAVUTexture@@@std@@@std@@CAXXZ 10003360 f i D3D9Render_mesh_processing.obj
 0001:00002370       ?_Xlength@?$vector@U?$SurfKeyBucket@PAVUTexture@@UFRenderVert@@@@V?$allocator@U?$SurfKeyBucket@PAVUTexture@@UFRenderVert@@@@@std@@@std@@CAXXZ 10003370 f i D3D9Render_mesh_processing.obj
 0001:00002380       ?_Xlength@?$vector@UActorRenderData@@V?$allocator@UActorRenderData@@@std@@@std@@CAXXZ 10003380 f i D3D9Render_mesh_processing.obj
 0001:00002390       ?_Xlength@?$vector@UFRenderVert@@V?$allocator@UFRenderVert@@@std@@@std@@CAXXZ 10003390 f i D3D9Render_mesh_processing.obj
 0001:000023a0       ?at@?$UniqueValueArray@PAVUTexture@@@@QAEPAPAVUTexture@@H@Z 100033a0 f i D3D9Render_mesh_processing.obj
 0001:00002590       ?deallocate@?$allocator@H@std@@QAEXQAHI@Z 10003590 f i D3D9Render_mesh_processing.obj
 0001:00002610       ?deallocate@?$allocator@PAVUTexture@@@std@@QAEXQAPAVUTexture@@I@Z 10003610 f i D3D9Render_mesh_processing.obj
 0001:00002690       ?deallocate@?$allocator@U?$SurfKeyBucket@PAVUTexture@@UFRenderVert@@@@@std@@QAEXQAU?$SurfKeyBucket@PAVUTexture@@UFRenderVert@@@@I@Z 10003690 f i D3D9Render_mesh_processing.obj
 0001:00002710       ?deallocate@?$allocator@UActorRenderData@@@std@@QAEXQAUActorRenderData@@I@Z 10003710 f i D3D9Render_mesh_processing.obj
 0001:00002790       ?deallocate@?$allocator@UFRenderVert@@@std@@QAEXQAUFRenderVert@@I@Z 10003790 f i D3D9Render_mesh_processing.obj
 0001:00002810       ?get@?$SurfKeyBucketVector@PAVUTexture@@UFRenderVert@@@@QAEAAV?$vector@UFRenderVert@@V?$allocator@UFRenderVert@@@std@@@std@@PAVUTexture@@K@Z 10003810 f i D3D9Render_mesh_processing.obj
 0001:00002a00       ?insert@?$UniqueValueArray@PAVUTexture@@@@QAE_NHABQAVUTexture@@@Z 10003a00 f i D3D9Render_mesh_processing.obj
 0001:00002aa0       ?renderMeshActor@UD3D9RenderDevice@@QAEXPAUFSceneNode@@PAVAActor@@AAV?$vector@UActorRenderData@@V?$allocator@UActorRenderData@@@std@@@std@@PAUSpecialCoord@@@Z 10003aa0 f   D3D9Render_mesh_processing.obj
 0001:00003fb0       ?renderSpriteGeo@UD3D9RenderDevice@@QAEXPAUFSceneNode@@ABVFVector@@MAAUFTextureInfo@@KVFPlane@@@Z 10004fb0 f i D3D9Render_mesh_processing.obj
 0001:00003ff0       ?reserve@?$vector@U?$SurfKeyBucket@PAVUTexture@@UFRenderVert@@@@V?$allocator@U?$SurfKeyBucket@PAVUTexture@@UFRenderVert@@@@@std@@@std@@QAEXI@Z 10004ff0 f i D3D9Render_mesh_processing.obj
 0001:00004120       ?reserve@?$vector@UFRenderVert@@V?$allocator@UFRenderVert@@@std@@@std@@QAEXI@Z 10005120 f i D3D9Render_mesh_processing.obj
 0001:00004240       ?what@exception@std@@UBEPBDXZ 10005240 f i D3D9Render_mesh_processing.obj
 0001:00004250       ??$_Construct_in_place_by_deref@PAIPAPAI@std@@YAXAAPAIAAPAPAI@Z 10005250 f i c_gclip.obj
 0001:00004270       ??$_Copy_memmove@PAPAIPAPAI@std@@YAPAPAIPAPAI00@Z 10005270 f i c_gclip.obj
 0001:00004290       ??$_Copy_memmove_tail@PAPAI@std@@YAPAPAIQBDQAPAIII@Z 10005290 f i c_gclip.obj
 0001:000042b0       ??$_Uninitialized_copy_unchecked@PAPAIPAPAI@std@@YAPAPAIPAPAIQAPAI0@Z 100052b0 f i c_gclip.obj
 0001:000042c0       ??$_Uninitialized_value_construct_n_unchecked1@PAPAII@std@@YAPAPAIPAPAII@Z 100052c0 f i c_gclip.obj
 0001:000042e0       ??$_Zero_range@PAPAI@std@@YAPAPAIQAPAI0@Z 100052e0 f i c_gclip.obj
 0001:00004300       ??$uninitialized_copy@PAPAIPAPAI@std@@YAPAPAIQAPAI0PAPAI@Z 10005300 f i c_gclip.obj
 0001:00004310       ??0CGClip@@QAE@XZ          10005310 f   c_gclip.obj
 0001:000043c0       ??1?$deque@IV?$allocator@I@std@@@std@@QAE@XZ 100053c0 f i c_gclip.obj
 0001:00004420       ??1CGClip@@QAE@XZ          10005420 f   c_gclip.obj
 0001:00004480       ?CheckFrame@CGClip@@AAEXPBX@Z 10005480 f   c_gclip.obj
 0001:000044b0       ?CheckNewSelectHit@CGClip@@QAE_NXZ 100054b0 f   c_gclip.obj
 0001:000044c0       ?ClearHitNameStack@CGClip@@QAEXXZ 100054c0 f   c_gclip.obj
 0001:000044d0       ?ClipLine@CGClip@@QAEXAAUcl_line_t@1@@Z 100054d0 f   c_gclip.obj
 0001:00004620       ?ClipTri@CGClip@@QAEXAAUcl_tri_t@1@@Z 10005620 f   c_gclip.obj
 0001:000048b0       ?GetHitNameStackSize@CGClip@@QAEIXZ 100058b0 f   c_gclip.obj
 0001:000048c0       ?GetHitNameStackValues@CGClip@@QAEXPAII@Z 100058c0 f   c_gclip.obj
 0001:00004920       ?PopHitName@CGClip@@QAEXXZ 10005920 f   c_gclip.obj
 0001:00004940       ?PushHitName@CGClip@@QAEXI@Z 10005940 f   c_gclip.obj
 0001:000049e0       ?SelectDrawLine@CGClip@@QAEXPBXPBUvec3_t@1@@Z 100059e0 f   c_gclip.obj
 0001:00004a80       ?SelectDrawTri@CGClip@@QAEXPBXPBUvec3_t@1@@Z 10005a80 f   c_gclip.obj
 0001:00004b30       ?SelectModeEnd@CGClip@@QAEXXZ 10005b30 f   c_gclip.obj
 0001:00004b40       ?SelectModeStart@CGClip@@QAEXXZ 10005b40 f   c_gclip.obj
 0001:00004b60       ?SetCp@CGClip@@QAEXIPBM@Z  10005b60 f   c_gclip.obj
 0001:00004ba0       ?SetCpEnable@CGClip@@QAEXI_N@Z 10005ba0 f   c_gclip.obj
 0001:00004bd0       ?_Growmap@?$deque@IV?$allocator@I@std@@@std@@AAEXI@Z 10005bd0 f i c_gclip.obj
 0001:00004d10       ?_Tidy@?$deque@IV?$allocator@I@std@@@std@@AAEXXZ 10005d10 f i c_gclip.obj
 0001:00004de0       ?_Xlen@?$deque@IV?$allocator@I@std@@@std@@CAXXZ 10005de0 f i c_gclip.obj
 0001:00004df0       ?deallocate@?$allocator@PAI@std@@QAEXQAPAII@Z 10005df0 f i c_gclip.obj
 0001:00004e70       ??$_Construct@$00PBD@?$basic_string@DU?$char_traits@D@std@@V?$allocator@D@2@@std@@AAEXQBDI@Z 10005e70 f i D3D9DebugUtils.obj
 0001:00004f30       ??$_Float_put_desired_precision@N@std@@YAH_JH@Z 10005f30 f i D3D9DebugUtils.obj
 0001:00004f70       ??$_Float_put_desired_precision@O@std@@YAH_JH@Z 10005f70 f i D3D9DebugUtils.obj
 0001:00004fb0       ??$_Fput_v3@$0A@@?$num_put@DV?$ostreambuf_iterator@DU?$char_traits@D@std@@@std@@@std@@ABE?AV?$ostreambuf_iterator@DU?$char_traits@D@std@@@1@V21@AAVios_base@1@DPBDI_N@Z 10005fb0 f i D3D9DebugUtils.obj
 0001:00005410       ??$_Immortalize_memcpy_image@V_Iostream_error_category2@std@@@std@@YAABV_Iostream_error_category2@0@XZ 10006410 f i D3D9DebugUtils.obj
 0001:00005420       ??$_Maklocchr@D@std@@YADDPADABU_Cvtvec@@@Z 10006420 f i D3D9DebugUtils.obj
 0001:00005430       ??$_Maklocstr@D@std@@YAPADPBDPADABU_Cvtvec@@@Z 10006430 f i D3D9DebugUtils.obj
 0001:00005480       ??$_Reallocate_grow_by@V<lambda_1>@?1??insert@?$basic_string@DU?$char_traits@D@std@@V?$allocator@D@2@@std@@QAEAAV34@IID@Z@IID@?$basic_string@DU?$char_traits@D@std@@V?$allocator@D@2@@std@@AAEAAV01@IV<lambda_1>@?1??insert@01@QAEAAV01@IID@Z@IID@Z 10006480 f i D3D9DebugUtils.obj
 0001:000055c0       ??$use_facet@V?$ctype@D@std@@@std@@YAABV?$ctype@D@0@ABVlocale@0@@Z 100065c0 f i D3D9DebugUtils.obj
 0001:000057a0       ??$use_facet@V?$num_put@DV?$ostreambuf_iterator@DU?$char_traits@D@std@@@std@@@std@@@std@@YAABV?$num_put@DV?$ostreambuf_iterator@DU?$char_traits@D@std@@@std@@@0@ABVlocale@0@@Z 100067a0 f i D3D9DebugUtils.obj
 0001:00005960       ??$use_facet@V?$numpunct@D@std@@@std@@YAABV?$numpunct@D@0@ABVlocale@0@@Z 10006960 f i D3D9DebugUtils.obj
 0001:00005aa0       ??0?$basic_ios@DU?$char_traits@D@std@@@std@@IAE@XZ 10006aa0 f i D3D9DebugUtils.obj
 0001:00005b50       ??0?$basic_streambuf@DU?$char_traits@D@std@@@std@@IAE@XZ 10006b50 f i D3D9DebugUtils.obj
 0001:00005bf0       ??0?$basic_string@DU?$char_traits@D@std@@V?$allocator@D@2@@std@@QAE@ID@Z 10006bf0 f i D3D9DebugUtils.obj
 0001:00005ce0       ??0?$fpos@U_Mbstatet@@@std@@QAE@_J@Z 10006ce0 f i D3D9DebugUtils.obj
 0001:00005d10       ??0_Locinfo@std@@QAE@PBD@Z 10006d10 f i D3D9DebugUtils.obj
 0001:00005dd0       ??0_System_error@std@@IAE@Verror_code@1@ABV?$basic_string@DU?$char_traits@D@std@@V?$allocator@D@2@@1@@Z 10006dd0 f i D3D9DebugUtils.obj
 0001:00006090       ??0_System_error@std@@QAE@ABV01@@Z 10007090 f i D3D9DebugUtils.obj
 0001:00006120       ??0bad_cast@std@@QAE@ABV01@@Z 10007120 f i D3D9DebugUtils.obj
 0001:000061a0       ??0bad_cast@std@@QAE@XZ    100071a0 f i D3D9DebugUtils.obj
 0001:00006210       ??0failure@ios_base@std@@QAE@ABV012@@Z 10007210 f i D3D9DebugUtils.obj
 0001:000062c0       ??0failure@ios_base@std@@QAE@PBDABVerror_code@2@@Z 100072c0 f i D3D9DebugUtils.obj
 0001:000063c0       ??0ods_stream@@QAE@XZ      100073c0 f   D3D9DebugUtils.obj
 0001:000064e0       ??0runtime_error@std@@QAE@ABV01@@Z 100074e0 f i D3D9DebugUtils.obj
 0001:00006560       ??0sentry@?$basic_ostream@DU?$char_traits@D@std@@@std@@QAE@AAV12@@Z 10007560 f i D3D9DebugUtils.obj
 0001:00006600       ??0system_error@std@@QAE@ABV01@@Z 10007600 f i D3D9DebugUtils.obj
 0001:000066a0       ??1?$_Tidy_guard@V?$numpunct@D@std@@@std@@QAE@XZ 100076a0 f i D3D9DebugUtils.obj
 0001:00006700       ??1?$_Yarn@D@std@@QAE@XZ   10007700 f i D3D9DebugUtils.obj
 0001:00006750       ??1?$_Yarn@G@std@@QAE@XZ   10007750 f i D3D9DebugUtils.obj
 0001:000067a0       ??1?$basic_ios@DU?$char_traits@D@std@@@std@@UAE@XZ 100077a0 f i D3D9DebugUtils.obj
 0001:00006800       ??1?$basic_ostream@DU?$char_traits@D@std@@@std@@UAE@XZ 10007800 f i D3D9DebugUtils.obj
 0001:00006820       ??1?$basic_ostringstream@DU?$char_traits@D@std@@V?$allocator@D@2@@std@@UAE@XZ 10007820 f i D3D9DebugUtils.obj
 0001:000068f0       ??1?$basic_streambuf@DU?$char_traits@D@std@@@std@@UAE@XZ 100078f0 f i D3D9DebugUtils.obj
 0001:00006930       ??1?$basic_string@DU?$char_traits@D@std@@V?$allocator@D@2@@std@@QAE@XZ 10007930 f i D3D9DebugUtils.obj
 0001:00006960       ??1?$basic_stringbuf@DU?$char_traits@D@std@@V?$allocator@D@2@@std@@UAE@XZ 10007960 f i D3D9DebugUtils.obj
 0001:000069f0       ??1?$ctype@D@std@@MAE@XZ   100079f0 f i D3D9DebugUtils.obj
 0001:00006a90       ??1?$num_put@DV?$ostreambuf_iterator@DU?$char_traits@D@std@@@std@@@std@@MAE@XZ 10007a90 f i D3D9DebugUtils.obj
 0001:00006af0       ??1?$numpunct@D@std@@MAE@XZ 10007af0 f i D3D9DebugUtils.obj
 0001:00006b70       ??1?$unique_ptr@V_Facet_base@std@@U?$default_delete@V_Facet_base@std@@@2@@std@@QAE@XZ 10007b70 f i D3D9DebugUtils.obj
 0001:00006b80       ??1_Facet_base@std@@UAE@XZ 10007b80 f i D3D9DebugUtils.obj
 0001:00006b90       ??1_Locinfo@std@@QAE@XZ    10007b90 f i D3D9DebugUtils.obj
 0001:00006c90       ??1_Sentry_base@?$basic_ostream@DU?$char_traits@D@std@@@std@@QAE@XZ 10007c90 f i D3D9DebugUtils.obj
 0001:00006ce0       ??1_System_error@std@@UAE@XZ 10007ce0 f i D3D9DebugUtils.obj
 0001:00006d30       ??1bad_cast@std@@UAE@XZ    10007d30 f i D3D9DebugUtils.obj
 0001:00006d80       ??1ctype_base@std@@UAE@XZ  10007d80 f i D3D9DebugUtils.obj
 0001:00006de0       ??1error_category@std@@UAE@XZ 10007de0 f i D3D9DebugUtils.obj
 0001:00006df0       ??1facet@locale@std@@MAE@XZ 10007df0 f i D3D9DebugUtils.obj
 0001:00006e40       ??1failure@ios_base@std@@UAE@XZ 10007e40 f i D3D9DebugUtils.obj
 0001:00006e90       ??1ios_base@std@@UAE@XZ    10007e90 f i D3D9DebugUtils.obj
 0001:00006ee0       ??1locale@std@@QAE@XZ      10007ee0 f i D3D9DebugUtils.obj
 0001:00006f00       ??1ods_buf@@UAE@XZ         10007f00 f   D3D9DebugUtils.obj
 0001:00006fa0       ??1ods_stream@@UAE@XZ      10007fa0 f   D3D9DebugUtils.obj
 0001:00007040       ??1runtime_error@std@@UAE@XZ 10008040 f i D3D9DebugUtils.obj
 0001:00007090       ??1sentry@?$basic_ostream@DU?$char_traits@D@std@@@std@@QAE@XZ 10008090 f i D3D9DebugUtils.obj
 0001:00007100       ??1system_error@std@@UAE@XZ 10008100 f i D3D9DebugUtils.obj
 0001:00007150       ??6?$basic_ostream@DU?$char_traits@D@std@@@std@@QAEAAV01@K@Z 10008150 f i D3D9DebugUtils.obj
 0001:00007330       ??_D?$basic_ostringstream@DU?$char_traits@D@std@@V?$allocator@D@2@@std@@QAEXXZ 10008330 f i D3D9DebugUtils.obj
 0001:0000741e       ??_E?$basic_ostream@DU?$char_traits@D@std@@@std@@$4PPPPPPPM@A@AEPAXI@Z 1000841e f i D3D9DebugUtils.obj
 0001:00007426       ??_E?$basic_ostringstream@DU?$char_traits@D@std@@V?$allocator@D@2@@std@@$4PPPPPPPM@A@AEPAXI@Z 10008426 f i D3D9DebugUtils.obj
 0001:0000742e       ??_Eods_stream@@$4PPPPPPPM@A@AEPAXI@Z 1000842e f i D3D9DebugUtils.obj
 0001:00007440       ??_E?$basic_ios@DU?$char_traits@D@std@@@std@@UAEPAXI@Z 10008440 f i D3D9DebugUtils.obj
 0001:00007440       ??_G?$basic_ios@DU?$char_traits@D@std@@@std@@UAEPAXI@Z 10008440 f i D3D9DebugUtils.obj
 0001:000074b0       ??_E?$basic_ostream@DU?$char_traits@D@std@@@std@@UAEPAXI@Z 100084b0 f i D3D9DebugUtils.obj
 0001:000074b0       ??_G?$basic_ostream@DU?$char_traits@D@std@@@std@@UAEPAXI@Z 100084b0 f i D3D9DebugUtils.obj
 0001:00007540       ??_E?$basic_ostringstream@DU?$char_traits@D@std@@V?$allocator@D@2@@std@@UAEPAXI@Z 10008540 f i D3D9DebugUtils.obj
 0001:00007540       ??_G?$basic_ostringstream@DU?$char_traits@D@std@@V?$allocator@D@2@@std@@UAEPAXI@Z 10008540 f i D3D9DebugUtils.obj
 0001:00007570       ??_E?$basic_streambuf@DU?$char_traits@D@std@@@std@@UAEPAXI@Z 10008570 f i D3D9DebugUtils.obj
 0001:00007570       ??_G?$basic_streambuf@DU?$char_traits@D@std@@@std@@UAEPAXI@Z 10008570 f i D3D9DebugUtils.obj
 0001:000075c0       ??_E?$basic_stringbuf@DU?$char_traits@D@std@@V?$allocator@D@2@@std@@UAEPAXI@Z 100085c0 f i D3D9DebugUtils.obj
 0001:000075c0       ??_G?$basic_stringbuf@DU?$char_traits@D@std@@V?$allocator@D@2@@std@@UAEPAXI@Z 100085c0 f i D3D9DebugUtils.obj
 0001:00007660       ??_E?$ctype@D@std@@MAEPAXI@Z 10008660 f i D3D9DebugUtils.obj
 0001:00007660       ??_G?$ctype@D@std@@MAEPAXI@Z 10008660 f i D3D9DebugUtils.obj
 0001:00007710       ??_E?$num_put@DV?$ostreambuf_iterator@DU?$char_traits@D@std@@@std@@@std@@MAEPAXI@Z 10008710 f i D3D9DebugUtils.obj
 0001:00007710       ??_G?$num_put@DV?$ostreambuf_iterator@DU?$char_traits@D@std@@@std@@@std@@MAEPAXI@Z 10008710 f i D3D9DebugUtils.obj
 0001:00007780       ??_E?$numpunct@D@std@@MAEPAXI@Z 10008780 f i D3D9DebugUtils.obj
 0001:00007780       ??_G?$numpunct@D@std@@MAEPAXI@Z 10008780 f i D3D9DebugUtils.obj
 0001:00007810       ??_E_Facet_base@std@@UAEPAXI@Z 10008810 f i D3D9DebugUtils.obj
 0001:00007810       ??_G_Facet_base@std@@UAEPAXI@Z 10008810 f i D3D9DebugUtils.obj
 0001:00007840       ??_E_Iostream_error_category2@std@@UAEPAXI@Z 10008840 f i D3D9DebugUtils.obj
 0001:00007840       ??_G_Iostream_error_category2@std@@UAEPAXI@Z 10008840 f i D3D9DebugUtils.obj
 0001:00007860       ??_E_System_error@std@@UAEPAXI@Z 10008860 f i D3D9DebugUtils.obj
 0001:00007860       ??_G_System_error@std@@UAEPAXI@Z 10008860 f i D3D9DebugUtils.obj
 0001:000078d0       ??_Ebad_cast@std@@UAEPAXI@Z 100088d0 f i D3D9DebugUtils.obj
 0001:000078d0       ??_Gbad_cast@std@@UAEPAXI@Z 100088d0 f i D3D9DebugUtils.obj
 0001:00007940       ??_Ectype_base@std@@UAEPAXI@Z 10008940 f i D3D9DebugUtils.obj
 0001:00007940       ??_Gctype_base@std@@UAEPAXI@Z 10008940 f i D3D9DebugUtils.obj
 0001:000079b0       ??_Efacet@locale@std@@MAEPAXI@Z 100089b0 f i D3D9DebugUtils.obj
 0001:000079b0       ??_Gfacet@locale@std@@MAEPAXI@Z 100089b0 f i D3D9DebugUtils.obj
 0001:00007a20       ??_Efailure@ios_base@std@@UAEPAXI@Z 10008a20 f i D3D9DebugUtils.obj
 0001:00007a20       ??_Gfailure@ios_base@std@@UAEPAXI@Z 10008a20 f i D3D9DebugUtils.obj
 0001:00007a90       ??_Eios_base@std@@UAEPAXI@Z 10008a90 f i D3D9DebugUtils.obj
 0001:00007a90       ??_Gios_base@std@@UAEPAXI@Z 10008a90 f i D3D9DebugUtils.obj
 0001:00007af0       ??_Eods_buf@@UAEPAXI@Z     10008af0 f i D3D9DebugUtils.obj
 0001:00007af0       ??_Gods_buf@@UAEPAXI@Z     10008af0 f i D3D9DebugUtils.obj
 0001:00007b20       ??_Eods_stream@@UAEPAXI@Z  10008b20 f i D3D9DebugUtils.obj
 0001:00007b20       ??_Gods_stream@@UAEPAXI@Z  10008b20 f i D3D9DebugUtils.obj
 0001:00007ba0       ??_Eruntime_error@std@@UAEPAXI@Z 10008ba0 f i D3D9DebugUtils.obj
 0001:00007ba0       ??_Gruntime_error@std@@UAEPAXI@Z 10008ba0 f i D3D9DebugUtils.obj
 0001:00007c10       ??_Esystem_error@std@@UAEPAXI@Z 10008c10 f i D3D9DebugUtils.obj
 0001:00007c10       ??_Gsystem_error@std@@UAEPAXI@Z 10008c10 f i D3D9DebugUtils.obj
 0001:00007c80       ?HexString@@YA?AV?$basic_string@DU?$char_traits@D@std@@V?$allocator@D@2@@std@@KK@Z 10008c80 f   D3D9DebugUtils.obj
 0001:00007e50       ?_Deallocate_for_capacity@?$basic_string@DU?$char_traits@D@std@@V?$allocator@D@2@@std@@CAXAAV?$allocator@D@2@QADI@Z 10008e50 f i D3D9DebugUtils.obj
 0001:00007ed0       ?_Decref@facet@locale@std@@UAEPAV_Facet_base@3@XZ 10008ed0 f i D3D9DebugUtils.obj
 0001:00007ef0       ?_Ffmt@?$num_put@DV?$ostreambuf_iterator@DU?$char_traits@D@std@@@std@@@std@@ABAPADPADDH@Z 10008ef0 f i D3D9DebugUtils.obj
 0001:00007fc0       ?_Getcat@?$numpunct@D@std@@SAIPAPBVfacet@locale@2@PBV42@@Z 10008fc0 f i D3D9DebugUtils.obj
 0001:00008150       ?_Incref@facet@locale@std@@UAEXXZ 10009150 f i D3D9DebugUtils.obj
 0001:00008160       ?_Init@?$basic_streambuf@DU?$char_traits@D@std@@@std@@IAEXXZ 10009160 f i D3D9DebugUtils.obj
 0001:000081c0       ?_Iput@?$num_put@DV?$ostreambuf_iterator@DU?$char_traits@D@std@@@std@@@std@@ABA?AV?$ostreambuf_iterator@DU?$char_traits@D@std@@@2@V32@AAVios_base@2@DPADI@Z 100091c0 f i D3D9DebugUtils.obj
 0001:000085c0       ?_Lock@?$basic_streambuf@DU?$char_traits@D@std@@@std@@UAEXXZ 100095c0 f i D3D9DebugUtils.obj
 0001:000085d0       ?_Osfx@?$basic_ostream@DU?$char_traits@D@std@@@std@@QAEXXZ 100095d0 f i D3D9DebugUtils.obj
 0001:00008660       ?_Put@?$num_put@DV?$ostreambuf_iterator@DU?$char_traits@D@std@@@std@@@std@@ABA?AV?$ostreambuf_iterator@DU?$char_traits@D@std@@@2@V32@PBDI@Z 10009660 f i D3D9DebugUtils.obj
 0001:000086d0       ?_Rep@?$num_put@DV?$ostreambuf_iterator@DU?$char_traits@D@std@@@std@@@std@@ABA?AV?$ostreambuf_iterator@DU?$char_traits@D@std@@@2@V32@DI@Z 100096d0 f i D3D9DebugUtils.obj
 0001:00008740       ?_Throw_bad_cast@std@@YAXXZ 10009740 f i D3D9DebugUtils.obj
 0001:00008760       ?_Tidy@?$basic_stringbuf@DU?$char_traits@D@std@@V?$allocator@D@2@@std@@IAEXXZ 10009760 f i D3D9DebugUtils.obj
 0001:00008810       ?_Unlock@?$basic_streambuf@DU?$char_traits@D@std@@@std@@UAEXXZ 10009810 f i D3D9DebugUtils.obj
 0001:00008820       ?_Xlen_string@std@@YAXXZ   10009820 f i D3D9DebugUtils.obj
 0001:00008830       ?_Xran@?$_String_val@U?$_Simple_types@D@std@@@std@@SAXXZ 10009830 f i D3D9DebugUtils.obj
 0001:00008840       ?append@?$basic_string@DU?$char_traits@D@std@@V?$allocator@D@2@@std@@QAEAAV12@ID@Z 10009840 f i D3D9DebugUtils.obj
 0001:000089b0       ?append@?$basic_string@DU?$char_traits@D@std@@V?$allocator@D@2@@std@@QAEAAV12@QBDI@Z 100099b0 f i D3D9DebugUtils.obj
 0001:00008b20       ?clear@ios_base@std@@QAEXH_N@Z 10009b20 f i D3D9DebugUtils.obj
 0001:00008ba0       ?deallocate@?$allocator@D@std@@QAEXQADI@Z 10009ba0 f i D3D9DebugUtils.obj
 0001:00008c20       ?default_error_condition@error_category@std@@UBE?AVerror_condition@2@H@Z 10009c20 f i D3D9DebugUtils.obj
 0001:00008c40       ?dereferenceFName@@YAPBDABVFName@@@Z 10009c40 f   D3D9DebugUtils.obj
 0001:00008cd0       ?do_decimal_point@?$numpunct@D@std@@MBEDXZ 10009cd0 f i D3D9DebugUtils.obj
 0001:00008ce0       ?do_falsename@?$numpunct@D@std@@MBE?AV?$basic_string@DU?$char_traits@D@std@@V?$allocator@D@2@@2@XZ 10009ce0 f i D3D9DebugUtils.obj
 0001:00008d70       ?do_grouping@?$numpunct@D@std@@MBE?AV?$basic_string@DU?$char_traits@D@std@@V?$allocator@D@2@@2@XZ 10009d70 f i D3D9DebugUtils.obj
 0001:00008e00       ?do_narrow@?$ctype@D@std@@MBEDDD@Z 10009e00 f i D3D9DebugUtils.obj
 0001:00008e10       ?do_narrow@?$ctype@D@std@@MBEPBDPBD0DPAD@Z 10009e10 f i D3D9DebugUtils.obj
 0001:00008e30       ?do_put@?$num_put@DV?$ostreambuf_iterator@DU?$char_traits@D@std@@@std@@@std@@MBE?AV?$ostreambuf_iterator@DU?$char_traits@D@std@@@2@V32@AAVios_base@2@DJ@Z 10009e30 f i D3D9DebugUtils.obj
 0001:00008ef0       ?do_put@?$num_put@DV?$ostreambuf_iterator@DU?$char_traits@D@std@@@std@@@std@@MBE?AV?$ostreambuf_iterator@DU?$char_traits@D@std@@@2@V32@AAVios_base@2@DK@Z 10009ef0 f i D3D9DebugUtils.obj
 0001:00008fb0       ?do_put@?$num_put@DV?$ostreambuf_iterator@DU?$char_traits@D@std@@@std@@@std@@MBE?AV?$ostreambuf_iterator@DU?$char_traits@D@std@@@2@V32@AAVios_base@2@DN@Z 10009fb0 f i D3D9DebugUtils.obj
 0001:000091e0       ?do_put@?$num_put@DV?$ostreambuf_iterator@DU?$char_traits@D@std@@@std@@@std@@MBE?AV?$ostreambuf_iterator@DU?$char_traits@D@std@@@2@V32@AAVios_base@2@DO@Z 1000a1e0 f i D3D9DebugUtils.obj
 0001:00009410       ?do_put@?$num_put@DV?$ostreambuf_iterator@DU?$char_traits@D@std@@@std@@@std@@MBE?AV?$ostreambuf_iterator@DU?$char_traits@D@std@@@2@V32@AAVios_base@2@DPBX@Z 1000a410 f i D3D9DebugUtils.obj
 0001:00009470       ?do_put@?$num_put@DV?$ostreambuf_iterator@DU?$char_traits@D@std@@@std@@@std@@MBE?AV?$ostreambuf_iterator@DU?$char_traits@D@std@@@2@V32@AAVios_base@2@D_J@Z 1000a470 f i D3D9DebugUtils.obj
 0001:00009540       ?do_put@?$num_put@DV?$ostreambuf_iterator@DU?$char_traits@D@std@@@std@@@std@@MBE?AV?$ostreambuf_iterator@DU?$char_traits@D@std@@@2@V32@AAVios_base@2@D_K@Z 1000a540 f i D3D9DebugUtils.obj
 0001:00009610       ?do_put@?$num_put@DV?$ostreambuf_iterator@DU?$char_traits@D@std@@@std@@@std@@MBE?AV?$ostreambuf_iterator@DU?$char_traits@D@std@@@2@V32@AAVios_base@2@D_N@Z 1000a610 f i D3D9DebugUtils.obj
 0001:000098b0       ?do_thousands_sep@?$numpunct@D@std@@MBEDXZ 1000a8b0 f i D3D9DebugUtils.obj
 0001:000098c0       ?do_tolower@?$ctype@D@std@@MBEDD@Z 1000a8c0 f i D3D9DebugUtils.obj
 0001:000098e0       ?do_tolower@?$ctype@D@std@@MBEPBDPADPBD@Z 1000a8e0 f i D3D9DebugUtils.obj
 0001:00009910       ?do_toupper@?$ctype@D@std@@MBEDD@Z 1000a910 f i D3D9DebugUtils.obj
 0001:00009930       ?do_toupper@?$ctype@D@std@@MBEPBDPADPBD@Z 1000a930 f i D3D9DebugUtils.obj
 0001:00009960       ?do_truename@?$numpunct@D@std@@MBE?AV?$basic_string@DU?$char_traits@D@std@@V?$allocator@D@2@@2@XZ 1000a960 f i D3D9DebugUtils.obj
 0001:000099f0       ?do_widen@?$ctype@D@std@@MBEDD@Z 1000a9f0 f i D3D9DebugUtils.obj
 0001:00009a00       ?do_widen@?$ctype@D@std@@MBEPBDPBD0PAD@Z 1000aa00 f i D3D9DebugUtils.obj
 0001:00009a20       ?equivalent@error_category@std@@UBE_NABVerror_code@2@H@Z 1000aa20 f i D3D9DebugUtils.obj
 0001:00009a50       ?equivalent@error_category@std@@UBE_NHABVerror_condition@2@@Z 1000aa50 f i D3D9DebugUtils.obj
 0001:00009a90       ?flush@?$basic_ostream@DU?$char_traits@D@std@@@std@@QAEAAV12@XZ 1000aa90 f i D3D9DebugUtils.obj
 0001:00009bf0       ?grouping@?$numpunct@D@std@@QBE?AV?$basic_string@DU?$char_traits@D@std@@V?$allocator@D@2@@2@XZ 1000abf0 f i D3D9DebugUtils.obj
 0001:00009c50       ?hex@std@@YAAAVios_base@1@AAV21@@Z 1000ac50 f i D3D9DebugUtils.obj
 0001:00009c70       ?imbue@?$basic_streambuf@DU?$char_traits@D@std@@@std@@MAEXABVlocale@2@@Z 1000ac70 f i D3D9DebugUtils.obj
 0001:00009c80       ?init@?$basic_ios@DU?$char_traits@D@std@@@std@@IAEXPAV?$basic_streambuf@DU?$char_traits@D@std@@@2@_N@Z 1000ac80 f i D3D9DebugUtils.obj
 0001:00009e20       ?make_error_code@std@@YA?AVerror_code@1@W4io_errc@1@@Z 1000ae20 f i D3D9DebugUtils.obj
 0001:00009e40       ?message@_Iostream_error_category2@std@@UBE?AV?$basic_string@DU?$char_traits@D@std@@V?$allocator@D@2@@2@H@Z 1000ae40 f i D3D9DebugUtils.obj
 0001:00009f30       ?name@_Iostream_error_category2@std@@UBEPBDXZ 1000af30 f i D3D9DebugUtils.obj
 0001:00009f40       ?overflow@?$basic_streambuf@DU?$char_traits@D@std@@@std@@MAEHH@Z 1000af40 f i D3D9DebugUtils.obj
 0001:00009f50       ?overflow@?$basic_stringbuf@DU?$char_traits@D@std@@V?$allocator@D@2@@std@@MAEHH@Z 1000af50 f i D3D9DebugUtils.obj
 0001:0000a0f0       ?pbackfail@?$basic_streambuf@DU?$char_traits@D@std@@@std@@MAEHH@Z 1000b0f0 f i D3D9DebugUtils.obj
 0001:0000a100       ?pbackfail@?$basic_stringbuf@DU?$char_traits@D@std@@V?$allocator@D@2@@std@@MAEHH@Z 1000b100 f i D3D9DebugUtils.obj
 0001:0000a160       ?seekoff@?$basic_streambuf@DU?$char_traits@D@std@@@std@@MAE?AV?$fpos@U_Mbstatet@@@2@_JHH@Z 1000b160 f i D3D9DebugUtils.obj
 0001:0000a190       ?seekoff@?$basic_stringbuf@DU?$char_traits@D@std@@V?$allocator@D@2@@std@@MAE?AV?$fpos@U_Mbstatet@@@2@_JHH@Z 1000b190 f i D3D9DebugUtils.obj
 0001:0000a360       ?seekpos@?$basic_streambuf@DU?$char_traits@D@std@@@std@@MAE?AV?$fpos@U_Mbstatet@@@2@V32@H@Z 1000b360 f i D3D9DebugUtils.obj
 0001:0000a390       ?seekpos@?$basic_stringbuf@DU?$char_traits@D@std@@V?$allocator@D@2@@std@@MAE?AV?$fpos@U_Mbstatet@@@2@V32@H@Z 1000b390 f i D3D9DebugUtils.obj
 0001:0000a4e0       ?setbuf@?$basic_streambuf@DU?$char_traits@D@std@@@std@@MAEPAV12@PAD_J@Z 1000b4e0 f i D3D9DebugUtils.obj
 0001:0000a4f0       ?setstate@?$basic_ios@DU?$char_traits@D@std@@@std@@QAEXH_N@Z 1000b4f0 f i D3D9DebugUtils.obj
 0001:0000a520       ?showmanyc@?$basic_streambuf@DU?$char_traits@D@std@@@std@@MAE_JXZ 1000b520 f i D3D9DebugUtils.obj
 0001:0000a530       ?str@?$basic_stringbuf@DU?$char_traits@D@std@@V?$allocator@D@2@@std@@QGBE?AV?$basic_string@DU?$char_traits@D@std@@V?$allocator@D@2@@2@XZ 1000b530 f i D3D9DebugUtils.obj
 0001:0000a710       ?sync@?$basic_streambuf@DU?$char_traits@D@std@@@std@@MAEHXZ 1000b710 f i D3D9DebugUtils.obj
 0001:0000a720       ?sync@ods_buf@@MAEHXZ      1000b720 f   D3D9DebugUtils.obj
 0001:0000a8a0       ?uflow@?$basic_streambuf@DU?$char_traits@D@std@@@std@@MAEHXZ 1000b8a0 f i D3D9DebugUtils.obj
 0001:0000a8d0       ?underflow@?$basic_streambuf@DU?$char_traits@D@std@@@std@@MAEHXZ 1000b8d0 f i D3D9DebugUtils.obj
 0001:0000a8e0       ?underflow@?$basic_stringbuf@DU?$char_traits@D@std@@V?$allocator@D@2@@std@@MAEHXZ 1000b8e0 f i D3D9DebugUtils.obj
 0001:0000a950       ?uppercase@std@@YAAAVios_base@1@AAV21@@Z 1000b950 f i D3D9DebugUtils.obj
 0001:0000a960       ?xsgetn@?$basic_streambuf@DU?$char_traits@D@std@@@std@@MAE_JPAD_J@Z 1000b960 f i D3D9DebugUtils.obj
 0001:0000aa30       ?xsputn@?$basic_streambuf@DU?$char_traits@D@std@@@std@@MAE_JPBD_J@Z 1000ba30 f i D3D9DebugUtils.obj
 0001:0000ab10       ___local_stdio_printf_options 1000bb10 f i D3D9DebugUtils.obj
 0001:0000ab20       _sprintf_s                 1000bb20 f i D3D9DebugUtils.obj
 0001:0000ab50       ??$?6U?$char_traits@D@std@@@std@@YAAAV?$basic_ostream@DU?$char_traits@D@std@@@0@AAV10@PBD@Z 1000bb50 f i D3D9Render.obj
 0001:0000ada0       ??$Cast@VUD3D9RenderDevice@@VURenderDevice@@@@YAPAVUD3D9RenderDevice@@PAVURenderDevice@@@Z 1000bda0 f i D3D9Render.obj
 0001:0000add0       ??$ConstructObject@VURenderIterator@@@@YAPAVURenderIterator@@PAVUClass@@PAVUObject@@VFName@@K@Z 1000bdd0 f i D3D9Render.obj
 0001:0000adf0       ??$_Checked_x86_x64_countr_zero@_K@std@@YAH_K@Z 1000bdf0 f i D3D9Render.obj
 0001:0000ae20       ??$_Copy_memmove@PAPAUFSurfaceFacet@@PAPAU1@@std@@YAPAPAUFSurfaceFacet@@PAPAU1@00@Z 1000be20 f i D3D9Render.obj
 0001:0000ae40       ??$_Copy_memmove@PAPAVAActor@@PAPAV1@@std@@YAPAPAVAActor@@PAPAV1@00@Z 1000be40 f i D3D9Render.obj
 0001:0000ae60       ??$_Copy_memmove@PAPAVABrush@@PAPAV1@@std@@YAPAPAVABrush@@PAPAV1@00@Z 1000be60 f i D3D9Render.obj
 0001:0000ae80       ??$_Copy_memmove@PAPAVASkyZoneInfo@@PAPAV1@@std@@YAPAPAVASkyZoneInfo@@PAPAV1@00@Z 1000be80 f i D3D9Render.obj
 0001:0000aea0       ??$_Copy_memmove@PAUFTransTexture@@PAU1@@std@@YAPAUFTransTexture@@PAU1@00@Z 1000bea0 f i D3D9Render.obj
 0001:0000aec0       ??$_Copy_memmove_tail@PAPAUFSurfaceFacet@@@std@@YAPAPAUFSurfaceFacet@@QBDQAPAU1@II@Z 1000bec0 f i D3D9Render.obj
 0001:0000aee0       ??$_Copy_memmove_tail@PAPAVAActor@@@std@@YAPAPAVAActor@@QBDQAPAV1@II@Z 1000bee0 f i D3D9Render.obj
 0001:0000af00       ??$_Copy_memmove_tail@PAPAVABrush@@@std@@YAPAPAVABrush@@QBDQAPAV1@II@Z 1000bf00 f i D3D9Render.obj
 0001:0000af20       ??$_Copy_memmove_tail@PAPAVASkyZoneInfo@@@std@@YAPAPAVASkyZoneInfo@@QBDQAPAV1@II@Z 1000bf20 f i D3D9Render.obj
 0001:0000af40       ??$_Copy_memmove_tail@PAUFTransTexture@@@std@@YAPAUFTransTexture@@QBDQAU1@II@Z 1000bf40 f i D3D9Render.obj
 0001:0000af60       ??$_Countr_zero_bsf@_K@std@@YAH_K@Z 1000bf60 f i D3D9Render.obj
 0001:0000af80       ??$_Countr_zero_tzcnt@_K@std@@YAH_K@Z 1000bf80 f i D3D9Render.obj
 0001:0000afa0       ??$_Destroy_range@V?$allocator@U?$SurfKeyBucket@PAVUTexture@@USurfaceData@UD3D9Render@@@@@std@@@std@@YAXPAU?$SurfKeyBucket@PAVUTexture@@USurfaceData@UD3D9Render@@@@QAU1@AAV?$allocator@U?$SurfKeyBucket@PAVUTexture@@USurfaceData@UD3D9Render@@@@@0@@Z 1000bfa0 f i D3D9Render.obj
 0001:0000b040       ??$_Destroy_range@V?$allocator@USurfaceData@UD3D9Render@@@std@@@std@@YAXPAUSurfaceData@UD3D9Render@@QAU12@AAV?$allocator@USurfaceData@UD3D9Render@@@0@@Z 1000c040 f i D3D9Render.obj
 0001:0000b150       ??$_Destroy_range@V?$allocator@V?$unique_ptr@VRTXAnchor@@U?$default_delete@VRTXAnchor@@@std@@@std@@@std@@@std@@YAXPAV?$unique_ptr@VRTXAnchor@@U?$default_delete@VRTXAnchor@@@std@@@0@QAV10@AAV?$allocator@V?$unique_ptr@VRTXAnchor@@U?$default_delete@VRTXAnchor@@@std@@@std@@@0@@Z 1000c150 f i D3D9Render.obj
 0001:0000b240       ??$_Emplace_reallocate@$$V@?$vector@U?$SurfKeyBucket@PAVUTexture@@USurfaceData@UD3D9Render@@@@V?$allocator@U?$SurfKeyBucket@PAVUTexture@@USurfaceData@UD3D9Render@@@@@std@@@std@@AAEPAU?$SurfKeyBucket@PAVUTexture@@USurfaceData@UD3D9Render@@@@QAU2@@Z 1000c240 f i D3D9Render.obj
 0001:0000b430       ??$_Emplace_reallocate@$$V@?$vector@USurfaceData@UD3D9Render@@V?$allocator@USurfaceData@UD3D9Render@@@std@@@std@@AAEPAUSurfaceData@UD3D9Render@@QAU23@@Z 1000c430 f i D3D9Render.obj
 0001:0000b7e0       ??$_Emplace_reallocate@ABH@?$vector@HV?$allocator@H@std@@@std@@AAEPAHQAHABH@Z 1000c7e0 f i D3D9Render.obj
 0001:0000b960       ??$_Emplace_reallocate@ABQAUFSurfaceFacet@@@?$vector@PAUFSurfaceFacet@@V?$allocator@PAUFSurfaceFacet@@@std@@@std@@AAEPAPAUFSurfaceFacet@@QAPAU2@ABQAU2@@Z 1000c960 f i D3D9Render.obj
 0001:0000bae0       ??$_Emplace_reallocate@ABQAVAActor@@@?$vector@PAVAActor@@V?$allocator@PAVAActor@@@std@@@std@@AAEPAPAVAActor@@QAPAV2@ABQAV2@@Z 1000cae0 f i D3D9Render.obj
 0001:0000bc60       ??$_Emplace_reallocate@PAVABrush@@@?$vector@PAVABrush@@V?$allocator@PAVABrush@@@std@@@std@@AAEPAPAVABrush@@QAPAV2@$$QAPAV2@@Z 1000cc60 f i D3D9Render.obj
 0001:0000bde0       ??$_Emplace_reallocate@PAVASkyZoneInfo@@@?$vector@PAVASkyZoneInfo@@V?$allocator@PAVASkyZoneInfo@@@std@@@std@@AAEPAPAVASkyZoneInfo@@QAPAV2@$$QAPAV2@@Z 1000cde0 f i D3D9Render.obj
 0001:0000bf60       ??$_Find_last@H@?$_Hash@V?$_Uset_traits@HV?$_Uhash_compare@HU?$hash@H@std@@U?$equal_to@H@2@@std@@V?$allocator@H@2@$0A@@std@@@std@@IBE?AU?$_Hash_find_last_result@PAU?$_List_node@HPAX@std@@@1@ABHI@Z 1000cf60 f i D3D9Render.obj
 0001:0000bfd0       ??$_Find_last@PAVAActor@@@?$_Hash@V?$_Uset_traits@PAVAActor@@V?$_Uhash_compare@PAVAActor@@U?$hash@PAVAActor@@@std@@U?$equal_to@PAVAActor@@@3@@std@@V?$allocator@PAVAActor@@@3@$0A@@std@@@std@@IBE?AU?$_Hash_find_last_result@PAU?$_List_node@PAVAActor@@PAX@std@@@1@ABQAVAActor@@I@Z 1000cfd0 f i D3D9Render.obj
 0001:0000c040       ??$_Find_last@PAVUTexture@@@?$_Hash@V?$_Umap_traits@PAVUTexture@@UFTextureInfo@@V?$_Uhash_compare@PAVUTexture@@U?$hash@PAVUTexture@@@std@@U?$equal_to@PAVUTexture@@@3@@std@@V?$allocator@U?$pair@QAVUTexture@@UFTextureInfo@@@std@@@4@$0A@@std@@@std@@IBE?AU?$_Hash_find_last_result@PAU?$_List_node@U?$pair@QAVUTexture@@UFTextureInfo@@@std@@PAX@std@@@1@ABQAVUTexture@@I@Z 1000d040 f i D3D9Render.obj
 0001:0000c0b0       ??$_Fnv1a_append_value@H@std@@YAIIABH@Z 1000d0b0 f i D3D9Render.obj
 0001:0000c0f0       ??$_Fnv1a_append_value@PAVAActor@@@std@@YAIIABQAVAActor@@@Z 1000d0f0 f i D3D9Render.obj
 0001:0000c130       ??$_Fnv1a_append_value@PAVUTexture@@@std@@YAIIABQAVUTexture@@@Z 1000d130 f i D3D9Render.obj
 0001:0000c170       ??$_Hash_representation@H@std@@YAIABH@Z 1000d170 f i D3D9Render.obj
 0001:0000c190       ??$_Hash_representation@PAVAActor@@@std@@YAIABQAVAActor@@@Z 1000d190 f i D3D9Render.obj
 0001:0000c1b0       ??$_Hash_representation@PAVUTexture@@@std@@YAIABQAVUTexture@@@Z 1000d1b0 f i D3D9Render.obj
 0001:0000c1d0       ??$_Try_emplace@ABQAVUTexture@@$$V@?$_Hash@V?$_Umap_traits@PAVUTexture@@UFTextureInfo@@V?$_Uhash_compare@PAVUTexture@@U?$hash@PAVUTexture@@@std@@U?$equal_to@PAVUTexture@@@3@@std@@V?$allocator@U?$pair@QAVUTexture@@UFTextureInfo@@@std@@@4@$0A@@std@@@std@@IAE?AU?$pair@PAU?$_List_node@U?$pair@QAVUTexture@@UFTextureInfo@@@std@@PAX@std@@_N@1@ABQAVUTexture@@@Z 1000d1d0 f i D3D9Render.obj
 0001:0000c3d0       ??$_Uninitialized_move@PAU?$SurfKeyBucket@PAVUTexture@@USurfaceData@UD3D9Render@@@@V?$allocator@U?$SurfKeyBucket@PAVUTexture@@USurfaceData@UD3D9Render@@@@@std@@@std@@YAPAU?$SurfKeyBucket@PAVUTexture@@USurfaceData@UD3D9Render@@@@QAU1@0PAU1@AAV?$allocator@U?$SurfKeyBucket@PAVUTexture@@USurfaceData@UD3D9Render@@@@@0@@Z 1000d3d0 f i D3D9Render.obj
 0001:0000c4a0       ??$_Uninitialized_move@PAUSurfaceData@UD3D9Render@@V?$allocator@USurfaceData@UD3D9Render@@@std@@@std@@YAPAUSurfaceData@UD3D9Render@@QAU12@0PAU12@AAV?$allocator@USurfaceData@UD3D9Render@@@0@@Z 1000d4a0 f i D3D9Render.obj
 0001:0000c630       ??$emplace@H@?$_Hash@V?$_Uset_traits@HV?$_Uhash_compare@HU?$hash@H@std@@U?$equal_to@H@2@@std@@V?$allocator@H@2@$0A@@std@@@std@@QAE?AU?$pair@V?$_List_const_iterator@V?$_List_val@U?$_List_simple_types@H@std@@@std@@@std@@_N@1@$$QAH@Z 1000d630 f i D3D9Render.obj
 0001:0000c810       ??$endl@DU?$char_traits@D@std@@@std@@YAAAV?$basic_ostream@DU?$char_traits@D@std@@@0@AAV10@@Z 1000d810 f i D3D9Render.obj
 0001:0000c8d0       ??$fill@PAV?$_List_unchecked_const_iterator@V?$_List_val@U?$_List_simple_types@H@std@@@std@@U_Iterator_base0@2@@std@@V12@@std@@YAXQAV?$_List_unchecked_const_iterator@V?$_List_val@U?$_List_simple_types@H@std@@@std@@U_Iterator_base0@2@@0@0ABV10@@Z 1000d8d0 f i D3D9Render.obj
 0001:0000c940       ??$fill@PAV?$_List_unchecked_const_iterator@V?$_List_val@U?$_List_simple_types@PAVAActor@@@std@@@std@@U_Iterator_base0@2@@std@@V12@@std@@YAXQAV?$_List_unchecked_const_iterator@V?$_List_val@U?$_List_simple_types@PAVAActor@@@std@@@std@@U_Iterator_base0@2@@0@0ABV10@@Z 1000d940 f i D3D9Render.obj
 0001:0000c9b0       ??$fill@PAV?$_List_unchecked_iterator@V?$_List_val@U?$_List_simple_types@U?$pair@QAVUTexture@@UFTextureInfo@@@std@@@std@@@std@@@std@@V12@@std@@YAXQAV?$_List_unchecked_iterator@V?$_List_val@U?$_List_simple_types@U?$pair@QAVUTexture@@UFTextureInfo@@@std@@@std@@@std@@@0@0ABV10@@Z 1000d9b0 f i D3D9Render.obj
 0001:0000ca20       ??$uninitialized_fill@PAV?$_List_unchecked_const_iterator@V?$_List_val@U?$_List_simple_types@H@std@@@std@@U_Iterator_base0@2@@std@@V12@@std@@YAXQAV?$_List_unchecked_const_iterator@V?$_List_val@U?$_List_simple_types@H@std@@@std@@U_Iterator_base0@2@@0@0ABV10@@Z 1000da20 f i D3D9Render.obj
 0001:0000ca40       ??$uninitialized_fill@PAV?$_List_unchecked_const_iterator@V?$_List_val@U?$_List_simple_types@PAVAActor@@@std@@@std@@U_Iterator_base0@2@@std@@V12@@std@@YAXQAV?$_List_unchecked_const_iterator@V?$_List_val@U?$_List_simple_types@PAVAActor@@@std@@@std@@U_Iterator_base0@2@@0@0ABV10@@Z 1000da40 f i D3D9Render.obj
 0001:0000ca60       ??$uninitialized_fill@PAV?$_List_unchecked_iterator@V?$_List_val@U?$_List_simple_types@U?$pair@$$CBV?$basic_string@DU?$char_traits@D@std@@V?$allocator@D@2@@std@@V12@@std@@@std@@@std@@@std@@V12@@std@@YAXQAV?$_List_unchecked_iterator@V?$_List_val@U?$_List_simple_types@U?$pair@$$CBV?$basic_string@DU?$char_traits@D@std@@V?$allocator@D@2@@std@@V12@@std@@@std@@@std@@@0@0ABV10@@Z 1000da60 f i D3D9Render.obj
 0001:0000ca80       ??$uninitialized_fill@PAV?$_List_unchecked_iterator@V?$_List_val@U?$_List_simple_types@U?$pair@QAVUTexture@@UFTextureInfo@@@std@@@std@@@std@@@std@@V12@@std@@YAXQAV?$_List_unchecked_iterator@V?$_List_val@U?$_List_simple_types@U?$pair@QAVUTexture@@UFTextureInfo@@@std@@@std@@@std@@@0@0ABV10@@Z 1000da80 f i D3D9Render.obj
 0001:0000caa0       ??0?$SurfKeyBucketVector@PAUFTextureInfo@@V?$vector@UFTransTexture@@V?$allocator@UFTransTexture@@@std@@@std@@@@QAE@XZ 1000daa0 f i D3D9Render.obj
 0001:0000cb00       ??0?$SurfKeyBucketVector@PAVUTexture@@USurfaceData@UD3D9Render@@@@QAE@XZ 1000db00 f i D3D9Render.obj
 0001:0000cb60       ??0?$array@V?$SurfKeyBucketVector@PAVUTexture@@USurfaceData@UD3D9Render@@@@$01@std@@QAE@XZ 1000db60 f i D3D9Render.obj
 0001:0000cbc0       ??0?$basic_string@DU?$char_traits@D@std@@V?$allocator@D@2@@std@@QAE@ABV01@@Z 1000dbc0 f i D3D9Render.obj
 0001:0000cc90       ??0?$unordered_map@PAVUTexture@@UFTextureInfo@@U?$hash@PAVUTexture@@@std@@U?$equal_to@PAVUTexture@@@4@V?$allocator@U?$pair@QAVUTexture@@UFTextureInfo@@@std@@@4@@std@@QAE@XZ 1000dc90 f i D3D9Render.obj
 0001:0000cdb0       ??0?$unordered_set@HU?$hash@H@std@@U?$equal_to@H@2@V?$allocator@H@2@@std@@QAE@XZ 1000ddb0 f i D3D9Render.obj
 0001:0000ced0       ??0?$unordered_set@PAVAActor@@U?$hash@PAVAActor@@@std@@U?$equal_to@PAVAActor@@@3@V?$allocator@PAVAActor@@@3@@std@@QAE@XZ 1000ded0 f i D3D9Render.obj
 0001:0000cff0       ??0?$vector@PAVAActor@@V?$allocator@PAVAActor@@@std@@@std@@QAE@ABV01@@Z 1000dff0 f i D3D9Render.obj
 0001:0000d0e0       ??0?$vector@UFTransTexture@@V?$allocator@UFTransTexture@@@std@@@std@@QAE@ABV01@@Z 1000e0e0 f i D3D9Render.obj
 0001:0000d1c0       ??0FSurfaceInfo@@QAE@XZ    1000e1c0 f i D3D9Render.obj
 0001:0000d200       ??0FrameActors@UD3D9Render@@QAE@XZ 1000e200 f i D3D9Render.obj
 0001:0000d290       ??0UD3D9Render@@QAE@XZ     1000e290 f   D3D9Render.obj
 0001:0000d330       ??1?$SurfKeyBucketVector@PAUFTextureInfo@@V?$vector@UFTransTexture@@V?$allocator@UFTransTexture@@@std@@@std@@@@QAE@XZ 1000e330 f i D3D9Render.obj
 0001:0000d380       ??1?$SurfKeyBucketVector@PAVUTexture@@USurfaceData@UD3D9Render@@@@QAE@XZ 1000e380 f i D3D9Render.obj
 0001:0000d410       ??1?$_Alloc_construct_ptr@V?$allocator@U?$_List_node@HPAX@std@@@std@@@std@@QAE@XZ 1000e410 f i D3D9Render.obj
 0001:0000d430       ??1?$_Alloc_construct_ptr@V?$allocator@U?$_List_node@PAVAActor@@PAX@std@@@std@@@std@@QAE@XZ 1000e430 f i D3D9Render.obj
 0001:0000d450       ??1?$_Alloc_construct_ptr@V?$allocator@U?$_List_node@U?$pair@QAVUTexture@@UFTextureInfo@@@std@@PAX@std@@@std@@@std@@QAE@XZ 1000e450 f i D3D9Render.obj
 0001:0000d4a0       ??1?$_Hash@V?$_Umap_traits@PAVUTexture@@UFTextureInfo@@V?$_Uhash_compare@PAVUTexture@@U?$hash@PAVUTexture@@@std@@U?$equal_to@PAVUTexture@@@3@@std@@V?$allocator@U?$pair@QAVUTexture@@UFTextureInfo@@@std@@@4@$0A@@std@@@std@@QAE@XZ 1000e4a0 f i D3D9Render.obj
 0001:0000d550       ??1?$_Hash@V?$_Umap_traits@V?$basic_string@DU?$char_traits@D@std@@V?$allocator@D@2@@std@@V12@V?$_Uhash_compare@V?$basic_string@DU?$char_traits@D@std@@V?$allocator@D@2@@std@@U?$hash@V?$basic_string@DU?$char_traits@D@std@@V?$allocator@D@2@@std@@@2@U?$equal_to@V?$basic_string@DU?$char_traits@D@std@@V?$allocator@D@2@@std@@@2@@2@V?$allocator@U?$pair@$$CBV?$basic_string@DU?$char_traits@D@std@@V?$allocator@D@2@@std@@V12@@std@@@2@$0A@@std@@@std@@QAE@XZ 1000e550 f i D3D9Render.obj
 0001:0000d5d0       ??1?$_Hash@V?$_Uset_traits@HV?$_Uhash_compare@HU?$hash@H@std@@U?$equal_to@H@2@@std@@V?$allocator@H@2@$0A@@std@@@std@@QAE@XZ 1000e5d0 f i D3D9Render.obj
 0001:0000d680       ??1?$_Hash@V?$_Uset_traits@PAVAActor@@V?$_Uhash_compare@PAVAActor@@U?$hash@PAVAActor@@@std@@U?$equal_to@PAVAActor@@@3@@std@@V?$allocator@PAVAActor@@@3@$0A@@std@@@std@@QAE@XZ 1000e680 f i D3D9Render.obj
 0001:0000d730       ??1?$_Hash_vec@V?$allocator@V?$_List_unchecked_const_iterator@V?$_List_val@U?$_List_simple_types@H@std@@@std@@U_Iterator_base0@2@@std@@@std@@@std@@QAE@XZ 1000e730 f i D3D9Render.obj
 0001:0000d760       ??1?$_Hash_vec@V?$allocator@V?$_List_unchecked_const_iterator@V?$_List_val@U?$_List_simple_types@PAVAActor@@@std@@@std@@U_Iterator_base0@2@@std@@@std@@@std@@QAE@XZ 1000e760 f i D3D9Render.obj
 0001:0000d790       ??1?$_Hash_vec@V?$allocator@V?$_List_unchecked_iterator@V?$_List_val@U?$_List_simple_types@U?$pair@$$CBV?$basic_string@DU?$char_traits@D@std@@V?$allocator@D@2@@std@@V12@@std@@@std@@@std@@@std@@@std@@@std@@QAE@XZ 1000e790 f i D3D9Render.obj
 0001:0000d7c0       ??1?$_Hash_vec@V?$allocator@V?$_List_unchecked_iterator@V?$_List_val@U?$_List_simple_types@U?$pair@QAVUTexture@@UFTextureInfo@@@std@@@std@@@std@@@std@@@std@@@std@@QAE@XZ 1000e7c0 f i D3D9Render.obj
 0001:0000d7f0       ??1?$_List_node_emplace_op2@V?$allocator@U?$_List_node@HPAX@std@@@std@@@std@@QAE@XZ 1000e7f0 f i D3D9Render.obj
 0001:0000d840       ??1?$_List_node_emplace_op2@V?$allocator@U?$_List_node@PAVAActor@@PAX@std@@@std@@@std@@QAE@XZ 1000e840 f i D3D9Render.obj
 0001:0000d890       ??1?$_List_node_emplace_op2@V?$allocator@U?$_List_node@U?$pair@QAVUTexture@@UFTextureInfo@@@std@@PAX@std@@@std@@@std@@QAE@XZ 1000e890 f i D3D9Render.obj
 0001:0000d8f0       ??1?$_Tidy_guard@V?$vector@PAVAActor@@V?$allocator@PAVAActor@@@std@@@std@@@std@@QAE@XZ 1000e8f0 f i D3D9Render.obj
 0001:0000d930       ??1?$_Tidy_guard@V?$vector@UFTransTexture@@V?$allocator@UFTransTexture@@@std@@@std@@@std@@QAE@XZ 1000e930 f i D3D9Render.obj
 0001:0000d950       ??1?$_Uninitialized_backout_al@V?$allocator@U?$SurfKeyBucket@PAVUTexture@@USurfaceData@UD3D9Render@@@@@std@@@std@@QAE@XZ 1000e950 f i D3D9Render.obj
 0001:0000d970       ??1?$_Uninitialized_backout_al@V?$allocator@USurfaceData@UD3D9Render@@@std@@@std@@QAE@XZ 1000e970 f i D3D9Render.obj
 0001:0000d9d0       ??1?$array@V?$SurfKeyBucketVector@PAVUTexture@@USurfaceData@UD3D9Render@@@@$01@std@@QAE@XZ 1000e9d0 f i D3D9Render.obj
 0001:0000da20       ??1?$array@V?$array@V?$SurfKeyBucketVector@PAVUTexture@@USurfaceData@UD3D9Render@@@@$01@std@@$0EA@@std@@QAE@XZ 1000ea20 f i D3D9Render.obj
 0001:0000da70       ??1?$list@HV?$allocator@H@std@@@std@@QAE@XZ 1000ea70 f i D3D9Render.obj
 0001:0000dae0       ??1?$list@PAVAActor@@V?$allocator@PAVAActor@@@std@@@std@@QAE@XZ 1000eae0 f i D3D9Render.obj
 0001:0000db50       ??1?$list@U?$pair@$$CBV?$basic_string@DU?$char_traits@D@std@@V?$allocator@D@2@@std@@V12@@std@@V?$allocator@U?$pair@$$CBV?$basic_string@DU?$char_traits@D@std@@V?$allocator@D@2@@std@@V12@@std@@@2@@std@@QAE@XZ 1000eb50 f i D3D9Render.obj
 0001:0000dc30       ??1?$list@U?$pair@QAVUTexture@@UFTextureInfo@@@std@@V?$allocator@U?$pair@QAVUTexture@@UFTextureInfo@@@std@@@2@@std@@QAE@XZ 1000ec30 f i D3D9Render.obj
 0001:0000dcb0       ??1?$unordered_map@PAVUTexture@@UFTextureInfo@@U?$hash@PAVUTexture@@@std@@U?$equal_to@PAVUTexture@@@4@V?$allocator@U?$pair@QAVUTexture@@UFTextureInfo@@@std@@@4@@std@@QAE@XZ 1000ecb0 f i D3D9Render.obj
 0001:0000dd00       ??1?$unordered_map@V?$basic_string@DU?$char_traits@D@std@@V?$allocator@D@2@@std@@V12@U?$hash@V?$basic_string@DU?$char_traits@D@std@@V?$allocator@D@2@@std@@@2@U?$equal_to@V?$basic_string@DU?$char_traits@D@std@@V?$allocator@D@2@@std@@@2@V?$allocator@U?$pair@$$CBV?$basic_string@DU?$char_traits@D@std@@V?$allocator@D@2@@std@@V12@@std@@@2@@std@@QAE@XZ 1000ed00 f i D3D9Render.obj
 0001:0000dd80       ??1?$unordered_set@HU?$hash@H@std@@U?$equal_to@H@2@V?$allocator@H@2@@std@@QAE@XZ 1000ed80 f i D3D9Render.obj
 0001:0000ddd0       ??1?$unordered_set@PAVAActor@@U?$hash@PAVAActor@@@std@@U?$equal_to@PAVAActor@@@3@V?$allocator@PAVAActor@@@3@@std@@QAE@XZ 1000edd0 f i D3D9Render.obj
 0001:0000de20       ??1?$vector@PAUFSurfaceFacet@@V?$allocator@PAUFSurfaceFacet@@@std@@@std@@QAE@XZ 1000ee20 f i D3D9Render.obj
 0001:0000de50       ??1?$vector@PAVAActor@@V?$allocator@PAVAActor@@@std@@@std@@QAE@XZ 1000ee50 f i D3D9Render.obj
 0001:0000de80       ??1?$vector@PAVABrush@@V?$allocator@PAVABrush@@@std@@@std@@QAE@XZ 1000ee80 f i D3D9Render.obj
 0001:0000deb0       ??1?$vector@PAVASkyZoneInfo@@V?$allocator@PAVASkyZoneInfo@@@std@@@std@@QAE@XZ 1000eeb0 f i D3D9Render.obj
 0001:0000dee0       ??1?$vector@U?$SurfKeyBucket@PAUFTextureInfo@@V?$vector@UFTransTexture@@V?$allocator@UFTransTexture@@@std@@@std@@@@V?$allocator@U?$SurfKeyBucket@PAUFTextureInfo@@V?$vector@UFTransTexture@@V?$allocator@UFTransTexture@@@std@@@std@@@@@std@@@std@@QAE@XZ 1000eee0 f i D3D9Render.obj
 0001:0000def0       ??1?$vector@U?$SurfKeyBucket@PAVUTexture@@USurfaceData@UD3D9Render@@@@V?$allocator@U?$SurfKeyBucket@PAVUTexture@@USurfaceData@UD3D9Render@@@@@std@@@std@@QAE@XZ 1000eef0 f i D3D9Render.obj
 0001:0000df40       ??1?$vector@UActorRenderData@@V?$allocator@UActorRenderData@@@std@@@std@@QAE@XZ 1000ef40 f i D3D9Render.obj
 0001:0000df50       ??1?$vector@UFTransTexture@@V?$allocator@UFTransTexture@@@std@@@std@@QAE@XZ 1000ef50 f i D3D9Render.obj
 0001:0000df60       ??1?$vector@USurfaceData@UD3D9Render@@V?$allocator@USurfaceData@UD3D9Render@@@std@@@std@@QAE@XZ 1000ef60 f i D3D9Render.obj
 0001:0000dfb0       ??1?$vector@V?$unique_ptr@VRTXAnchor@@U?$default_delete@VRTXAnchor@@@std@@@std@@V?$allocator@V?$unique_ptr@VRTXAnchor@@U?$default_delete@VRTXAnchor@@@std@@@std@@@2@@std@@QAE@XZ 1000efb0 f i D3D9Render.obj
 0001:0000e050       ??1?$vector@V?$vector@UFTransTexture@@V?$allocator@UFTransTexture@@@std@@@std@@V?$allocator@V?$vector@UFTransTexture@@V?$allocator@UFTransTexture@@@std@@@std@@@2@@std@@QAE@XZ 1000f050 f i D3D9Render.obj
 0001:0000e120       ??1FrameActors@UD3D9Render@@QAE@XZ 1000f120 f i D3D9Render.obj
 0001:0000e200       ??1ModelFacets@UD3D9Render@@QAE@XZ 1000f200 f i D3D9Render.obj
 0001:0000e260       ??1_Clear_guard@?$_Hash@V?$_Umap_traits@PAVUTexture@@UFTextureInfo@@V?$_Uhash_compare@PAVUTexture@@U?$hash@PAVUTexture@@@std@@U?$equal_to@PAVUTexture@@@3@@std@@V?$allocator@U?$pair@QAVUTexture@@UFTextureInfo@@@std@@@4@$0A@@std@@@std@@QAE@XZ 1000f260 f i D3D9Render.obj
 0001:0000e330       ??1_Clear_guard@?$_Hash@V?$_Uset_traits@HV?$_Uhash_compare@HU?$hash@H@std@@U?$equal_to@H@2@@std@@V?$allocator@H@2@$0A@@std@@@std@@QAE@XZ 1000f330 f i D3D9Render.obj
 0001:0000e400       ??1_Clear_guard@?$_Hash@V?$_Uset_traits@PAVAActor@@V?$_Uhash_compare@PAVAActor@@U?$hash@PAVAActor@@@std@@U?$equal_to@PAVAActor@@@3@@std@@V?$allocator@PAVAActor@@@3@$0A@@std@@@std@@QAE@XZ 1000f400 f i D3D9Render.obj
 0001:0000e4d0       ??1_Range_eraser@?$_Hash@V?$_Umap_traits@PAVUTexture@@UFTextureInfo@@V?$_Uhash_compare@PAVUTexture@@U?$hash@PAVUTexture@@@std@@U?$equal_to@PAVUTexture@@@3@@std@@V?$allocator@U?$pair@QAVUTexture@@UFTextureInfo@@@std@@@4@$0A@@std@@@std@@QAE@XZ 1000f4d0 f i D3D9Render.obj
 0001:0000e4f0       ??1_Range_eraser@?$_Hash@V?$_Uset_traits@HV?$_Uhash_compare@HU?$hash@H@std@@U?$equal_to@H@2@@std@@V?$allocator@H@2@$0A@@std@@@std@@QAE@XZ 1000f4f0 f i D3D9Render.obj
 0001:0000e510       ??1_Range_eraser@?$_Hash@V?$_Uset_traits@PAVAActor@@V?$_Uhash_compare@PAVAActor@@U?$hash@PAVAActor@@@std@@U?$equal_to@PAVAActor@@@3@@std@@V?$allocator@PAVAActor@@@3@$0A@@std@@@std@@QAE@XZ 1000f510 f i D3D9Render.obj
 0001:0000e530       ??1_Reallocation_guard@?$vector@PAUFSurfaceFacet@@V?$allocator@PAUFSurfaceFacet@@@std@@@std@@QAE@XZ 1000f530 f i D3D9Render.obj
 0001:0000e550       ??1_Reallocation_guard@?$vector@PAVAActor@@V?$allocator@PAVAActor@@@std@@@std@@QAE@XZ 1000f550 f i D3D9Render.obj
 0001:0000e570       ??1_Reallocation_guard@?$vector@PAVABrush@@V?$allocator@PAVABrush@@@std@@@std@@QAE@XZ 1000f570 f i D3D9Render.obj
 0001:0000e590       ??1_Reallocation_guard@?$vector@PAVASkyZoneInfo@@V?$allocator@PAVASkyZoneInfo@@@std@@@std@@QAE@XZ 1000f590 f i D3D9Render.obj
 0001:0000e5b0       ??1_Reallocation_guard@?$vector@U?$SurfKeyBucket@PAVUTexture@@USurfaceData@UD3D9Render@@@@V?$allocator@U?$SurfKeyBucket@PAVUTexture@@USurfaceData@UD3D9Render@@@@@std@@@std@@QAE@XZ 1000f5b0 f i D3D9Render.obj
 0001:0000e5e0       ??1_Reallocation_guard@?$vector@USurfaceData@UD3D9Render@@V?$allocator@USurfaceData@UD3D9Render@@@std@@@std@@QAE@XZ 1000f5e0 f i D3D9Render.obj
 0001:0000e640       ??1_Simple_reallocation_guard@?$vector@PAUFSurfaceFacet@@V?$allocator@PAUFSurfaceFacet@@@std@@@std@@QAE@XZ 1000f640 f i D3D9Render.obj
 0001:0000e660       ??1_Simple_reallocation_guard@?$vector@PAVAActor@@V?$allocator@PAVAActor@@@std@@@std@@QAE@XZ 1000f660 f i D3D9Render.obj
 0001:0000e680       ??4reference@?$bitset@$0EA@@std@@QAEAAV012@_N@Z 1000f680 f i D3D9Render.obj
 0001:0000e6e0       ??Breference@?$bitset@$0EA@@std@@QBE_NXZ 1000f6e0 f i D3D9Render.obj
 0001:0000e720       ??_EUD3D9Render@@UAEPAXI@Z 1000f720 f i D3D9Render.obj
 0001:0000e720       ??_GUD3D9Render@@UAEPAXI@Z 1000f720 f i D3D9Render.obj
 0001:0000e780       ?CallFunction@UD3D9Render@@UAEXAAUFFrame@@PAXPAVUFunction@@@Z 1000f780 f i D3D9Render.obj
 0001:0000e790       ?DrawActor@UD3D9Render@@UAEXPAUFSceneNode@@PAVAActor@@@Z 1000f790 f   D3D9Render.obj
 0001:0000e9d0       ?DrawStats@UD3D9Render@@UAEXPAUFSceneNode@@@Z 1000f9d0 f i D3D9Render.obj
 0001:0000e9e0       ?DrawWorld@UD3D9Render@@UAEXPAUFSceneNode@@@Z 1000f9e0 f   D3D9Render.obj
 0001:0000ef80       ?GetStateName@UD3D9Render@@UBE?AVFString@@XZ 1000ff80 f i D3D9Render.obj
 0001:0000efe0       ?StaticClass@UD3D9Render@@SAPAVUClass@@XZ 1000ffe0 f   D3D9Render.obj
 0001:0000eff0       ?StaticConfigName@UD3D9Render@@SAPBDXZ 1000fff0 f   D3D9Render.obj
 0001:0000f000       ?StaticConstructor@UD3D9Render@@SAXPAVUClass@@@Z 10010000 f   D3D9Render.obj
 0001:0000f0b0       ?_Assign_grow@?$_Hash_vec@V?$allocator@V?$_List_unchecked_const_iterator@V?$_List_val@U?$_List_simple_types@H@std@@@std@@U_Iterator_base0@2@@std@@@std@@@std@@QAEXIV?$_List_unchecked_const_iterator@V?$_List_val@U?$_List_simple_types@H@std@@@std@@U_Iterator_base0@2@@2@@Z 100100b0 f i D3D9Render.obj
 0001:0000f150       ?_Assign_grow@?$_Hash_vec@V?$allocator@V?$_List_unchecked_const_iterator@V?$_List_val@U?$_List_simple_types@PAVAActor@@@std@@@std@@U_Iterator_base0@2@@std@@@std@@@std@@QAEXIV?$_List_unchecked_const_iterator@V?$_List_val@U?$_List_simple_types@PAVAActor@@@std@@@std@@U_Iterator_base0@2@@2@@Z 10010150 f i D3D9Render.obj
 0001:0000f1f0       ?_Assign_grow@?$_Hash_vec@V?$allocator@V?$_List_unchecked_iterator@V?$_List_val@U?$_List_simple_types@U?$pair@QAVUTexture@@UFTextureInfo@@@std@@@std@@@std@@@std@@@std@@@std@@QAEXIV?$_List_unchecked_iterator@V?$_List_val@U?$_List_simple_types@U?$pair@QAVUTexture@@UFTextureInfo@@@std@@@std@@@std@@@2@@Z 100101f0 f i D3D9Render.obj
 0001:0000f290       ?_Forced_rehash@?$_Hash@V?$_Umap_traits@PAVUTexture@@UFTextureInfo@@V?$_Uhash_compare@PAVUTexture@@U?$hash@PAVUTexture@@@std@@U?$equal_to@PAVUTexture@@@3@@std@@V?$allocator@U?$pair@QAVUTexture@@UFTextureInfo@@@std@@@4@$0A@@std@@@std@@IAEXI@Z 10010290 f i D3D9Render.obj
 0001:0000f420       ?_Forced_rehash@?$_Hash@V?$_Uset_traits@HV?$_Uhash_compare@HU?$hash@H@std@@U?$equal_to@H@2@@std@@V?$allocator@H@2@$0A@@std@@@std@@IAEXI@Z 10010420 f i D3D9Render.obj
 0001:0000f5b0       ?_Forced_rehash@?$_Hash@V?$_Uset_traits@PAVAActor@@V?$_Uhash_compare@PAVAActor@@U?$hash@PAVAActor@@@std@@U?$equal_to@PAVAActor@@@3@@std@@V?$allocator@PAVAActor@@@3@$0A@@std@@@std@@IAEXI@Z 100105b0 f i D3D9Render.obj
 0001:0000f740       ?_Insert_new_node_before@?$_Hash@V?$_Uset_traits@PAVAActor@@V?$_Uhash_compare@PAVAActor@@U?$hash@PAVAActor@@@std@@U?$equal_to@PAVAActor@@@3@@std@@V?$allocator@PAVAActor@@@3@$0A@@std@@@std@@IAEPAU?$_List_node@PAVAActor@@PAX@2@IQAU32@0@Z 10010740 f i D3D9Render.obj
 0001:0000f7a0       ?_Rehash_for_1@?$_Hash@V?$_Uset_traits@PAVAActor@@V?$_Uhash_compare@PAVAActor@@U?$hash@PAVAActor@@@std@@U?$equal_to@PAVAActor@@@3@@std@@V?$allocator@PAVAActor@@@3@$0A@@std@@@std@@IAEXXZ 100107a0 f i D3D9Render.obj
 0001:0000f830       ?_Tidy@?$vector@U?$SurfKeyBucket@PAUFTextureInfo@@V?$vector@UFTransTexture@@V?$allocator@UFTransTexture@@@std@@@std@@@@V?$allocator@U?$SurfKeyBucket@PAUFTextureInfo@@V?$vector@UFTransTexture@@V?$allocator@UFTransTexture@@@std@@@std@@@@@std@@@std@@AAEXXZ 10010830 f i D3D9Render.obj
 0001:0000f990       ?_Tidy@?$vector@U?$SurfKeyBucket@PAVUTexture@@USurfaceData@UD3D9Render@@@@V?$allocator@U?$SurfKeyBucket@PAVUTexture@@USurfaceData@UD3D9Render@@@@@std@@@std@@AAEXXZ 10010990 f i D3D9Render.obj
 0001:0000f9e0       ?_Tidy@?$vector@UActorRenderData@@V?$allocator@UActorRenderData@@@std@@@std@@AAEXXZ 100109e0 f i D3D9Render.obj
 0001:0000fb60       ?_Tidy@?$vector@UFTransTexture@@V?$allocator@UFTransTexture@@@std@@@std@@AAEXXZ 10010b60 f i D3D9Render.obj
 0001:0000fcb0       ?_Unchecked_erase@?$_Hash@V?$_Umap_traits@PAVUTexture@@UFTextureInfo@@V?$_Uhash_compare@PAVUTexture@@U?$hash@PAVUTexture@@@std@@U?$equal_to@PAVUTexture@@@3@@std@@V?$allocator@U?$pair@QAVUTexture@@UFTextureInfo@@@std@@@4@$0A@@std@@@std@@AAEPAU?$_List_node@U?$pair@QAVUTexture@@UFTextureInfo@@@std@@PAX@2@PAU32@QAU32@@Z 10010cb0 f i D3D9Render.obj
 0001:0000fe30       ?_Unchecked_erase@?$_Hash@V?$_Uset_traits@HV?$_Uhash_compare@HU?$hash@H@std@@U?$equal_to@H@2@@std@@V?$allocator@H@2@$0A@@std@@@std@@AAEPAU?$_List_node@HPAX@2@PAU32@QAU32@@Z 10010e30 f i D3D9Render.obj
 0001:0000ffa0       ?_Unchecked_erase@?$_Hash@V?$_Uset_traits@PAVAActor@@V?$_Uhash_compare@PAVAActor@@U?$hash@PAVAActor@@@std@@U?$equal_to@PAVAActor@@@3@@std@@V?$allocator@PAVAActor@@@3@$0A@@std@@@std@@AAEPAU?$_List_node@PAVAActor@@PAX@2@PAU32@QAU32@@Z 10010fa0 f i D3D9Render.obj
 0001:00010110       ?_Xlength@?$vector@PAUFSurfaceFacet@@V?$allocator@PAUFSurfaceFacet@@@std@@@std@@CAXXZ 10011110 f i D3D9Render.obj
 0001:00010120       ?_Xlength@?$vector@PAVAActor@@V?$allocator@PAVAActor@@@std@@@std@@CAXXZ 10011120 f i D3D9Render.obj
 0001:00010130       ?_Xlength@?$vector@PAVABrush@@V?$allocator@PAVABrush@@@std@@@std@@CAXXZ 10011130 f i D3D9Render.obj
 0001:00010140       ?_Xlength@?$vector@PAVASkyZoneInfo@@V?$allocator@PAVASkyZoneInfo@@@std@@@std@@CAXXZ 10011140 f i D3D9Render.obj
 0001:00010150       ?_Xlength@?$vector@U?$SurfKeyBucket@PAVUTexture@@USurfaceData@UD3D9Render@@@@V?$allocator@U?$SurfKeyBucket@PAVUTexture@@USurfaceData@UD3D9Render@@@@@std@@@std@@CAXXZ 10011150 f i D3D9Render.obj
 0001:00010160       ?_Xlength@?$vector@UFTransTexture@@V?$allocator@UFTransTexture@@@std@@@std@@CAXXZ 10011160 f i D3D9Render.obj
 0001:00010170       ?_Xlength@?$vector@USurfaceData@UD3D9Render@@V?$allocator@USurfaceData@UD3D9Render@@@std@@@std@@CAXXZ 10011170 f i D3D9Render.obj
 0001:000101a0       ?calculateSurfaceFacet@SurfaceData@UD3D9Render@@QAEXPAVULevel@@K@Z 100111a0 f   D3D9Render.obj
 0001:00010560       ?count@?$_Hash@V?$_Umap_traits@PAVUTexture@@UFTextureInfo@@V?$_Uhash_compare@PAVUTexture@@U?$hash@PAVUTexture@@@std@@U?$equal_to@PAVUTexture@@@3@@std@@V?$allocator@U?$pair@QAVUTexture@@UFTextureInfo@@@std@@@4@$0A@@std@@@std@@QBEIABQAVUTexture@@@Z 10011560 f i D3D9Render.obj
 0001:000105a0       ?deallocate@?$allocator@PAUFSurfaceFacet@@@std@@QAEXQAPAUFSurfaceFacet@@I@Z 100115a0 f i D3D9Render.obj
 0001:00010620       ?deallocate@?$allocator@PAVAActor@@@std@@QAEXQAPAVAActor@@I@Z 10011620 f i D3D9Render.obj
 0001:000106a0       ?deallocate@?$allocator@PAVABrush@@@std@@QAEXQAPAVABrush@@I@Z 100116a0 f i D3D9Render.obj
 0001:00010720       ?deallocate@?$allocator@PAVASkyZoneInfo@@@std@@QAEXQAPAVASkyZoneInfo@@I@Z 10011720 f i D3D9Render.obj
 0001:000107a0       ?deallocate@?$allocator@U?$SurfKeyBucket@PAVUTexture@@USurfaceData@UD3D9Render@@@@@std@@QAEXQAU?$SurfKeyBucket@PAVUTexture@@USurfaceData@UD3D9Render@@@@I@Z 100117a0 f i D3D9Render.obj
 0001:00010820       ?deallocate@?$allocator@U?$_List_node@HPAX@std@@@std@@QAEXQAU?$_List_node@HPAX@2@I@Z 10011820 f i D3D9Render.obj
 0001:000108a0       ?deallocate@?$allocator@U?$_List_node@PAVAActor@@PAX@std@@@std@@QAEXQAU?$_List_node@PAVAActor@@PAX@2@I@Z 100118a0 f i D3D9Render.obj
 0001:00010920       ?deallocate@?$allocator@USurfaceData@UD3D9Render@@@std@@QAEXQAUSurfaceData@UD3D9Render@@I@Z 10011920 f i D3D9Render.obj
 0001:00010a20       ?deallocate@?$allocator@V?$_List_unchecked_const_iterator@V?$_List_val@U?$_List_simple_types@H@std@@@std@@U_Iterator_base0@2@@std@@@std@@QAEXQAV?$_List_unchecked_const_iterator@V?$_List_val@U?$_List_simple_types@H@std@@@std@@U_Iterator_base0@2@@2@I@Z 10011a20 f i D3D9Render.obj
 0001:00010aa0       ?deallocate@?$allocator@V?$_List_unchecked_const_iterator@V?$_List_val@U?$_List_simple_types@PAVAActor@@@std@@@std@@U_Iterator_base0@2@@std@@@std@@QAEXQAV?$_List_unchecked_const_iterator@V?$_List_val@U?$_List_simple_types@PAVAActor@@@std@@@std@@U_Iterator_base0@2@@2@I@Z 10011aa0 f i D3D9Render.obj
 0001:00010b20       ?deallocate@?$allocator@V?$_List_unchecked_iterator@V?$_List_val@U?$_List_simple_types@U?$pair@$$CBV?$basic_string@DU?$char_traits@D@std@@V?$allocator@D@2@@std@@V12@@std@@@std@@@std@@@std@@@std@@QAEXQAV?$_List_unchecked_iterator@V?$_List_val@U?$_List_simple_types@U?$pair@$$CBV?$basic_string@DU?$char_traits@D@std@@V?$allocator@D@2@@std@@V12@@std@@@std@@@std@@@2@I@Z 10011b20 f i D3D9Render.obj
 0001:00010ba0       ?deallocate@?$allocator@V?$_List_unchecked_iterator@V?$_List_val@U?$_List_simple_types@U?$pair@QAVUTexture@@UFTextureInfo@@@std@@@std@@@std@@@std@@@std@@QAEXQAV?$_List_unchecked_iterator@V?$_List_val@U?$_List_simple_types@U?$pair@QAVUTexture@@UFTextureInfo@@@std@@@std@@@std@@@2@I@Z 10011ba0 f i D3D9Render.obj
 0001:00010c20       ?debugf@@YAXW4EName@@PBDZZ 10011c20 f i D3D9Render.obj
 0001:00010c30       ?drawActorSwitch@UD3D9Render@@AAEXPAUFSceneNode@@PAVUD3D9RenderDevice@@PAVAActor@@AAV?$vector@UActorRenderData@@V?$allocator@UActorRenderData@@@std@@@std@@PAUParentCoord@1@@Z 10011c30 f   D3D9Render.obj
 0001:00010d20       ?drawFrame@UD3D9Render@@AAEXPAUFSceneNode@@PAVUD3D9RenderDevice@@AAUModelFacets@1@AAUFrameActors@1@AAV?$unordered_map@PAVUTexture@@UFTextureInfo@@U?$hash@PAVUTexture@@@std@@U?$equal_to@PAVUTexture@@@4@V?$allocator@U?$pair@QAVUTexture@@UFTextureInfo@@@std@@@4@@std@@_N@Z 10011d20 f   D3D9Render.obj
 0001:00011480       ?drawPawnExtras@UD3D9Render@@AAEXPAUFSceneNode@@PAVUD3D9RenderDevice@@PAVAPawn@@AAV?$vector@UActorRenderData@@V?$allocator@UActorRenderData@@@std@@@std@@AAUSpecialCoord@@@Z 10012480 f   D3D9Render.obj
 0001:000114f0       ?executeBufferedTileDraws@UD3D9RenderDevice@@QAEXXZ 100124f0 f i D3D9Render.obj
 0001:000115b0       ?getLevelModelFacets@UD3D9Render@@AAEXPAUFSceneNode@@AAUModelFacets@1@@Z 100125b0 f   D3D9Render.obj
 0001:00011ae0       ?insert@?$_Hash@V?$_Uset_traits@PAVAActor@@V?$_Uhash_compare@PAVAActor@@U?$hash@PAVAActor@@@std@@U?$equal_to@PAVAActor@@@3@@std@@V?$allocator@PAVAActor@@@3@$0A@@std@@@std@@QAE?AU?$pair@V?$_List_const_iterator@V?$_List_val@U?$_List_simple_types@PAVAActor@@@std@@@std@@@std@@_N@2@$$QAPAVAActor@@@Z 10012ae0 f i D3D9Render.obj
 0001:00011c30       ?insert@?$_Hash@V?$_Uset_traits@PAVAActor@@V?$_Uhash_compare@PAVAActor@@U?$hash@PAVAActor@@@std@@U?$equal_to@PAVAActor@@@3@@std@@V?$allocator@PAVAActor@@@3@$0A@@std@@@std@@QAE?AU?$pair@V?$_List_const_iterator@V?$_List_val@U?$_List_simple_types@PAVAActor@@@std@@@std@@@std@@_N@2@ABQAVAActor@@@Z 10012c30 f i D3D9Render.obj
 0001:00011d80       ?onLevelChange@UD3D9Render@@AAEXPAUFSceneNode@@@Z 10012d80 f   D3D9Render.obj
 0001:00012120       ?push_back@?$vector@PAUFSurfaceFacet@@V?$allocator@PAUFSurfaceFacet@@@std@@@std@@QAEXABQAUFSurfaceFacet@@@Z 10013120 f i D3D9Render.obj
 0001:00012150       ?push_back@?$vector@PAVAActor@@V?$allocator@PAVAActor@@@std@@@std@@QAEXABQAVAActor@@@Z 10013150 f i D3D9Render.obj
 0001:00012180       ?push_back@?$vector@PAVABrush@@V?$allocator@PAVABrush@@@std@@@std@@QAEX$$QAPAVABrush@@@Z 10013180 f i D3D9Render.obj
 0001:000121b0       ?push_back@?$vector@PAVASkyZoneInfo@@V?$allocator@PAVASkyZoneInfo@@@std@@@std@@QAEX$$QAPAVASkyZoneInfo@@@Z 100131b0 f i D3D9Render.obj
 0001:000121e0       ?put@?$basic_ostream@DU?$char_traits@D@std@@@std@@QAEAAV12@D@Z 100131e0 f i D3D9Render.obj
 0001:00012340       ?reserve@?$vector@PAUFSurfaceFacet@@V?$allocator@PAUFSurfaceFacet@@@std@@@std@@QAEXI@Z 10013340 f i D3D9Render.obj
 0001:00012430       ?reserve@?$vector@PAVAActor@@V?$allocator@PAVAActor@@@std@@@std@@QAEXI@Z 10013430 f i D3D9Render.obj
 0001:00012520       ?sputc@?$basic_streambuf@DU?$char_traits@D@std@@@std@@QAEHD@Z 10013520 f i D3D9Render.obj
 0001:00012560       ??$?0V?$allocator@U?$_List_node@U?$pair@QAVAActor@@H@std@@PAX@std@@@std@@@?$_Hash@V?$_Umap_traits@PAVAActor@@HV?$_Uhash_compare@PAVAActor@@U?$hash@PAVAActor@@@std@@U?$equal_to@PAVAActor@@@3@@std@@V?$allocator@U?$pair@QAVAActor@@H@std@@@3@$0A@@std@@@std@@IAE@ABV01@ABV?$allocator@U?$_List_node@U?$pair@QAVAActor@@H@std@@PAX@std@@@1@@Z 10013560 f i D3D9RenderDevice.obj
 0001:00012730       ??$Cast@VUTexture@@@@YAPAVUTexture@@PAVUObject@@@Z 10013730 f i D3D9RenderDevice.obj
 0001:00012760       ??$New@UFTransTexture@@@@YAPAUFTransTexture@@AAVFMemStack@@H@Z 10013760 f i D3D9RenderDevice.obj
 0001:00012780       ??$_Allocate_for_capacity@$0A@@?$basic_string@GU?$char_traits@G@std@@V?$allocator@G@2@@std@@CAPAGAAV?$allocator@G@1@AAI@Z 10013780 f i D3D9RenderDevice.obj
 0001:000127d0       ??$_Assign_counted_range@PAUFRenderVert@@@?$vector@UFRenderVert@@V?$allocator@UFRenderVert@@@std@@@std@@AAEXPAUFRenderVert@@I@Z 100137d0 f i D3D9RenderDevice.obj
 0001:00012930       ??$_Construct@$00PBG@?$basic_string@GU?$char_traits@G@std@@V?$allocator@G@2@@std@@AAEXQBGI@Z 10013930 f i D3D9RenderDevice.obj
 0001:000129d0       ??$_Construct_in_place_by_deref@PAHPAPAH@std@@YAXAAPAHAAPAPAH@Z 100139d0 f i D3D9RenderDevice.obj
 0001:000129f0       ??$_Copy_memmove@PAPAHPAPAH@std@@YAPAPAHPAPAH00@Z 100139f0 f i D3D9RenderDevice.obj
 0001:00012a10       ??$_Copy_memmove@PAPAUFPoly@@PAPAU1@@std@@YAPAPAUFPoly@@PAPAU1@00@Z 10013a10 f i D3D9RenderDevice.obj
 0001:00012a30       ??$_Copy_memmove@PAUTileFuncCall@UD3D9RenderDevice@@PAU12@@std@@YAPAUTileFuncCall@UD3D9RenderDevice@@PAU12@00@Z 10013a30 f i D3D9RenderDevice.obj
 0001:00012a60       ??$_Copy_memmove_n@PAUFRenderVert@@PAU1@@std@@YAPAUFRenderVert@@PAU1@I0@Z 10013a60 f i D3D9RenderDevice.obj
 0001:00012a80       ??$_Copy_memmove_tail@PAPAH@std@@YAPAPAHQBDQAPAHII@Z 10013a80 f i D3D9RenderDevice.obj
 0001:00012aa0       ??$_Copy_memmove_tail@PAPAUFPoly@@@std@@YAPAPAUFPoly@@QBDQAPAU1@II@Z 10013aa0 f i D3D9RenderDevice.obj
 0001:00012ac0       ??$_Copy_memmove_tail@PAUTileFuncCall@UD3D9RenderDevice@@@std@@YAPAUTileFuncCall@UD3D9RenderDevice@@QBDQAU12@II@Z 10013ac0 f i D3D9RenderDevice.obj
 0001:00012ae0       ??$_Count_vectorized@QAVAActor@@PAV1@@std@@YAIQBQAVAActor@@0QAV1@@Z 10013ae0 f i D3D9RenderDevice.obj
 0001:00012b00       ??$_Emplace@VFPlane@@@?$_Tree@V?$_Tset_traits@VFPlane@@U?$less@VFPlane@@@std@@V?$allocator@VFPlane@@@3@$0A@@std@@@std@@IAE?AU?$pair@PAU?$_Tree_node@VFPlane@@PAX@std@@_N@1@$$QAVFPlane@@@Z 10013b00 f i D3D9RenderDevice.obj
 0001:00012ce0       ??$_Emplace_back_internal@ABH@?$deque@HV?$allocator@H@std@@@std@@AAEXABH@Z 10013ce0 f i D3D9RenderDevice.obj
 0001:00012d70       ??$_Emplace_reallocate@ABQAUFPoly@@@?$vector@PAUFPoly@@V?$allocator@PAUFPoly@@@std@@@std@@AAEPAPAUFPoly@@QAPAU2@ABQAU2@@Z 10013d70 f i D3D9RenderDevice.obj
 0001:00012ef0       ??$_Emplace_reallocate@ABUFRenderVert@@@?$vector@UFRenderVert@@V?$allocator@UFRenderVert@@@std@@@std@@AAEPAUFRenderVert@@QAU2@ABU2@@Z 10013ef0 f i D3D9RenderDevice.obj
 0001:000130d0       ??$_Emplace_reallocate@UTileFuncCall@UD3D9RenderDevice@@@?$vector@UTileFuncCall@UD3D9RenderDevice@@V?$allocator@UTileFuncCall@UD3D9RenderDevice@@@std@@@std@@AAEPAUTileFuncCall@UD3D9RenderDevice@@QAU23@$$QAU23@@Z 100140d0 f i D3D9RenderDevice.obj
 0001:000132a0       ??$_Erase_tree@V?$allocator@U?$_Tree_node@IPAX@std@@@std@@@?$_Tree_val@U?$_Tree_simple_types@I@std@@@std@@QAEXAAV?$allocator@U?$_Tree_node@IPAX@std@@@1@PAU?$_Tree_node@IPAX@1@@Z 100142a0 f i D3D9RenderDevice.obj
 0001:00013310       ??$_Erase_tree@V?$allocator@U?$_Tree_node@VFPlane@@PAX@std@@@std@@@?$_Tree_val@U?$_Tree_simple_types@VFPlane@@@std@@@std@@QAEXAAV?$allocator@U?$_Tree_node@VFPlane@@PAX@std@@@1@PAU?$_Tree_node@VFPlane@@PAX@1@@Z 10014310 f i D3D9RenderDevice.obj
 0001:00013380       ??$_Find_last@PAVAActor@@@?$_Hash@V?$_Umap_traits@PAVAActor@@HV?$_Uhash_compare@PAVAActor@@U?$hash@PAVAActor@@@std@@U?$equal_to@PAVAActor@@@3@@std@@V?$allocator@U?$pair@QAVAActor@@H@std@@@3@$0A@@std@@@std@@IBE?AU?$_Hash_find_last_result@PAU?$_List_node@U?$pair@QAVAActor@@H@std@@PAX@std@@@1@ABQAVAActor@@I@Z 10014380 f i D3D9RenderDevice.obj
 0001:000133f0       ??$_Find_last@U?$pair@QAUFTextureInfo@@$$CBK@std@@@?$_Hash@V?$_Umap_traits@$$CBU?$pair@QAUFTextureInfo@@$$CBK@std@@V?$vector@PAUFPoly@@V?$allocator@PAUFPoly@@@std@@@2@V?$_Uhash_compare@$$CBU?$pair@QAUFTextureInfo@@$$CBK@std@@USurfKey_Hash@@U?$equal_to@$$CBU?$pair@QAUFTextureInfo@@$$CBK@std@@@2@@2@V?$allocator@U?$pair@$$CBU?$pair@QAUFTextureInfo@@$$CBK@std@@V?$vector@PAUFPoly@@V?$allocator@PAUFPoly@@@std@@@2@@std@@@2@$0A@@std@@@std@@IBE?AU?$_Hash_find_last_result@PAU?$_List_node@U?$pair@$$CBU?$pair@QAUFTextureInfo@@$$CBK@std@@V?$vector@PAUFPoly@@V?$allocator@PAUFPoly@@@std@@@2@@std@@PAX@std@@@1@ABU?$pair@QAUFTextureInfo@@$$CBK@1@I@Z 100143f0 f i D3D9RenderDevice.obj
 0001:00013460       ??$_Fnv1a_append_value@_K@std@@YAIIAB_K@Z 10014460 f i D3D9RenderDevice.obj
 0001:000134d0       ??$_Free_non_head@V?$allocator@U?$_List_node@U?$pair@$$CBU?$pair@QAUFTextureInfo@@$$CBK@std@@V?$vector@PAUFPoly@@V?$allocator@PAUFPoly@@@std@@@2@@std@@PAX@std@@@std@@@?$_List_node@U?$pair@$$CBU?$pair@QAUFTextureInfo@@$$CBK@std@@V?$vector@PAUFPoly@@V?$allocator@PAUFPoly@@@std@@@2@@std@@PAX@std@@SAXAAV?$allocator@U?$_List_node@U?$pair@$$CBU?$pair@QAUFTextureInfo@@$$CBK@std@@V?$vector@PAUFPoly@@V?$allocator@PAUFPoly@@@std@@@2@@std@@PAX@std@@@1@PAU01@@Z 100144d0 f i D3D9RenderDevice.obj
 0001:00013570       ??$_Hash_array_representation@G@std@@YAIQBGI@Z 10014570 f i D3D9RenderDevice.obj
 0001:000135b0       ??$_Hash_representation@_K@std@@YAIAB_K@Z 100145b0 f i D3D9RenderDevice.obj
 0001:000135d0       ??$_Try_emplace@$$CBU?$pair@QAUFTextureInfo@@$$CBK@std@@$$V@?$_Hash@V?$_Umap_traits@$$CBU?$pair@QAUFTextureInfo@@$$CBK@std@@V?$vector@PAUFPoly@@V?$allocator@PAUFPoly@@@std@@@2@V?$_Uhash_compare@$$CBU?$pair@QAUFTextureInfo@@$$CBK@std@@USurfKey_Hash@@U?$equal_to@$$CBU?$pair@QAUFTextureInfo@@$$CBK@std@@@2@@2@V?$allocator@U?$pair@$$CBU?$pair@QAUFTextureInfo@@$$CBK@std@@V?$vector@PAUFPoly@@V?$allocator@PAUFPoly@@@std@@@2@@std@@@2@$0A@@std@@@std@@IAE?AU?$pair@PAU?$_List_node@U?$pair@$$CBU?$pair@QAUFTextureInfo@@$$CBK@std@@V?$vector@PAUFPoly@@V?$allocator@PAUFPoly@@@std@@@2@@std@@PAX@std@@_N@1@$$QBU?$pair@QAUFTextureInfo@@$$CBK@1@@Z 100145d0 f i D3D9RenderDevice.obj
 0001:000137e0       ??$_Uninitialized_copy_unchecked@PAPAHPAPAH@std@@YAPAPAHPAPAHQAPAH0@Z 100147e0 f i D3D9RenderDevice.obj
 0001:000137f0       ??$_Uninitialized_value_construct_n_unchecked1@PAPAHI@std@@YAPAPAHPAPAHI@Z 100147f0 f i D3D9RenderDevice.obj
 0001:00013810       ??$_Zero_range@PAPAH@std@@YAPAPAHQAPAH0@Z 10014810 f i D3D9RenderDevice.obj
 0001:00013830       ??$emplace@ABH@?$_Hash@V?$_Uset_traits@HV?$_Uhash_compare@HU?$hash@H@std@@U?$equal_to@H@2@@std@@V?$allocator@H@2@$0A@@std@@@std@@QAE?AU?$pair@V?$_List_const_iterator@V?$_List_val@U?$_List_simple_types@H@std@@@std@@@std@@_N@1@ABH@Z 10014830 f i D3D9RenderDevice.obj
 0001:00013a10       ??$fill@PAV?$_List_unchecked_const_iterator@V?$_List_val@U?$_List_simple_types@V?$basic_string@GU?$char_traits@G@std@@V?$allocator@G@2@@std@@@std@@@std@@U_Iterator_base0@2@@std@@V12@@std@@YAXQAV?$_List_unchecked_const_iterator@V?$_List_val@U?$_List_simple_types@V?$basic_string@GU?$char_traits@G@std@@V?$allocator@G@2@@std@@@std@@@std@@U_Iterator_base0@2@@0@0ABV10@@Z 10014a10 f i D3D9RenderDevice.obj
 0001:00013a80       ??$fill@PAV?$_List_unchecked_iterator@V?$_List_val@U?$_List_simple_types@U?$pair@$$CBU?$pair@QAUFTextureInfo@@$$CBK@std@@V?$vector@PAUFPoly@@V?$allocator@PAUFPoly@@@std@@@2@@std@@@std@@@std@@@std@@V12@@std@@YAXQAV?$_List_unchecked_iterator@V?$_List_val@U?$_List_simple_types@U?$pair@$$CBU?$pair@QAUFTextureInfo@@$$CBK@std@@V?$vector@PAUFPoly@@V?$allocator@PAUFPoly@@@std@@@2@@std@@@std@@@std@@@0@0ABV10@@Z 10014a80 f i D3D9RenderDevice.obj
 0001:00013af0       ??$fill@PAV?$_List_unchecked_iterator@V?$_List_val@U?$_List_simple_types@U?$pair@QAVAActor@@H@std@@@std@@@std@@@std@@V12@@std@@YAXQAV?$_List_unchecked_iterator@V?$_List_val@U?$_List_simple_types@U?$pair@QAVAActor@@H@std@@@std@@@std@@@0@0ABV10@@Z 10014af0 f i D3D9RenderDevice.obj
 0001:00013b60       ??$insert@$0A@$0A@@?$_Tree@V?$_Tset_traits@VFPlane@@U?$less@VFPlane@@@std@@V?$allocator@VFPlane@@@3@$0A@@std@@@std@@QAE?AU?$pair@V?$_Tree_const_iterator@V?$_Tree_val@U?$_Tree_simple_types@VFPlane@@@std@@@std@@@std@@_N@1@$$QAVFPlane@@@Z 10014b60 f i D3D9RenderDevice.obj
 0001:00013b90       ??$uninitialized_copy@PAPAHPAPAH@std@@YAPAPAHQAPAH0PAPAH@Z 10014b90 f i D3D9RenderDevice.obj
 0001:00013ba0       ??$uninitialized_fill@PAV?$_List_unchecked_iterator@V?$_List_val@U?$_List_simple_types@U?$pair@$$CBU?$pair@QAUFTextureInfo@@$$CBK@std@@V?$vector@PAUFPoly@@V?$allocator@PAUFPoly@@@std@@@2@@std@@@std@@@std@@@std@@V12@@std@@YAXQAV?$_List_unchecked_iterator@V?$_List_val@U?$_List_simple_types@U?$pair@$$CBU?$pair@QAUFTextureInfo@@$$CBK@std@@V?$vector@PAUFPoly@@V?$allocator@PAUFPoly@@@std@@@2@@std@@@std@@@std@@@0@0ABV10@@Z 10014ba0 f i D3D9RenderDevice.obj
 0001:00013bc0       ??$uninitialized_fill@PAV?$_List_unchecked_iterator@V?$_List_val@U?$_List_simple_types@U?$pair@QAVAActor@@H@std@@@std@@@std@@@std@@V12@@std@@YAXQAV?$_List_unchecked_iterator@V?$_List_val@U?$_List_simple_types@U?$pair@QAVAActor@@H@std@@@std@@@std@@@0@0ABV10@@Z 10014bc0 f i D3D9RenderDevice.obj
 0001:00013be0       ??$xxh32_combine@H$$V@@YAXAAIABH@Z 10014be0 f i D3D9RenderDevice.obj
 0001:00013c20       ??$xxh32_combine@HHH@@YAXAAIABH11@Z 10014c20 f i D3D9RenderDevice.obj
 0001:00013c70       ??$xxh32_combine@M$$V@@YAXAAIABM@Z 10014c70 f i D3D9RenderDevice.obj
 0001:00013cb0       ??$xxh32_combine@MMM@@YAXAAIABM11@Z 10014cb0 f i D3D9RenderDevice.obj
 0001:00013d00       ??0?$set@VFPlane@@U?$less@VFPlane@@@std@@V?$allocator@VFPlane@@@3@@std@@QAE@XZ 10014d00 f i D3D9RenderDevice.obj
 0001:00013d70       ??0?$unordered_map@$$CBU?$pair@QAUFTextureInfo@@$$CBK@std@@V?$vector@PAUFPoly@@V?$allocator@PAUFPoly@@@std@@@2@USurfKey_Hash@@U?$equal_to@$$CBU?$pair@QAUFTextureInfo@@$$CBK@std@@@2@V?$allocator@U?$pair@$$CBU?$pair@QAUFTextureInfo@@$$CBK@std@@V?$vector@PAUFPoly@@V?$allocator@PAUFPoly@@@std@@@2@@std@@@2@@std@@QAE@XZ 10014d70 f i D3D9RenderDevice.obj
 0001:00013e90       ??0FCoords@@QAE@ABVFVector@@000@Z 10014e90 f i D3D9RenderDevice.obj
 0001:00013ee0       ??0FVector@@QAE@XZ         10014ee0 f i D3D9RenderDevice.obj
 0001:00013ef0       ??0LightSlots@UD3D9RenderDevice@@QAE@H@Z 10014ef0 f i D3D9RenderDevice.obj
 0001:00014180       ??0TileFuncCall@UD3D9RenderDevice@@QAE@XZ 10015180 f i D3D9RenderDevice.obj
 0001:000141a0       ??1?$_Alloc_construct_ptr@V?$allocator@U?$_List_node@U?$pair@$$CBU?$pair@QAUFTextureInfo@@$$CBK@std@@V?$vector@PAUFPoly@@V?$allocator@PAUFPoly@@@std@@@2@@std@@PAX@std@@@std@@@std@@QAE@XZ 100151a0 f i D3D9RenderDevice.obj
 0001:000141c0       ??1?$_Alloc_construct_ptr@V?$allocator@U?$_List_node@U?$pair@QAVAActor@@H@std@@PAX@std@@@std@@@std@@QAE@XZ 100151c0 f i D3D9RenderDevice.obj
 0001:00014210       ??1?$_Alloc_construct_ptr@V?$allocator@U?$_Tree_node@IPAX@std@@@std@@@std@@QAE@XZ 10015210 f i D3D9RenderDevice.obj
 0001:00014230       ??1?$_Alloc_construct_ptr@V?$allocator@U?$_Tree_node@VFPlane@@PAX@std@@@std@@@std@@QAE@XZ 10015230 f i D3D9RenderDevice.obj
 0001:00014280       ??1?$_Hash@V?$_Umap_traits@$$CBU?$pair@QAUFTextureInfo@@$$CBK@std@@V?$vector@PAUFPoly@@V?$allocator@PAUFPoly@@@std@@@2@V?$_Uhash_compare@$$CBU?$pair@QAUFTextureInfo@@$$CBK@std@@USurfKey_Hash@@U?$equal_to@$$CBU?$pair@QAUFTextureInfo@@$$CBK@std@@@2@@2@V?$allocator@U?$pair@$$CBU?$pair@QAUFTextureInfo@@$$CBK@std@@V?$vector@PAUFPoly@@V?$allocator@PAUFPoly@@@std@@@2@@std@@@2@$0A@@std@@@std@@QAE@XZ 10015280 f i D3D9RenderDevice.obj
 0001:00014310       ??1?$_Hash@V?$_Umap_traits@PAVAActor@@HV?$_Uhash_compare@PAVAActor@@U?$hash@PAVAActor@@@std@@U?$equal_to@PAVAActor@@@3@@std@@V?$allocator@U?$pair@QAVAActor@@H@std@@@3@$0A@@std@@@std@@QAE@XZ 10015310 f i D3D9RenderDevice.obj
 0001:000143c0       ??1?$_Hash@V?$_Uset_traits@V?$basic_string@GU?$char_traits@G@std@@V?$allocator@G@2@@std@@V?$_Uhash_compare@V?$basic_string@GU?$char_traits@G@std@@V?$allocator@G@2@@std@@U?$hash@V?$basic_string@GU?$char_traits@G@std@@V?$allocator@G@2@@std@@@2@U?$equal_to@V?$basic_string@GU?$char_traits@G@std@@V?$allocator@G@2@@std@@@2@@2@V?$allocator@V?$basic_string@GU?$char_traits@G@std@@V?$allocator@G@2@@std@@@2@$0A@@std@@@std@@QAE@XZ 100153c0 f i D3D9RenderDevice.obj
 0001:00014440       ??1?$_Hash_vec@V?$allocator@V?$_List_unchecked_const_iterator@V?$_List_val@U?$_List_simple_types@V?$basic_string@GU?$char_traits@G@std@@V?$allocator@G@2@@std@@@std@@@std@@U_Iterator_base0@2@@std@@@std@@@std@@QAE@XZ 10015440 f i D3D9RenderDevice.obj
 0001:00014470       ??1?$_Hash_vec@V?$allocator@V?$_List_unchecked_iterator@V?$_List_val@U?$_List_simple_types@U?$pair@$$CBU?$pair@QAUFTextureInfo@@$$CBK@std@@V?$vector@PAUFPoly@@V?$allocator@PAUFPoly@@@std@@@2@@std@@@std@@@std@@@std@@@std@@@std@@QAE@XZ 10015470 f i D3D9RenderDevice.obj
 0001:000144a0       ??1?$_Hash_vec@V?$allocator@V?$_List_unchecked_iterator@V?$_List_val@U?$_List_simple_types@U?$pair@QAVAActor@@H@std@@@std@@@std@@@std@@@std@@@std@@QAE@XZ 100154a0 f i D3D9RenderDevice.obj
 0001:000144d0       ??1?$_List_node_emplace_op2@V?$allocator@U?$_List_node@U?$pair@$$CBU?$pair@QAUFTextureInfo@@$$CBK@std@@V?$vector@PAUFPoly@@V?$allocator@PAUFPoly@@@std@@@2@@std@@PAX@std@@@std@@@std@@QAE@XZ 100154d0 f i D3D9RenderDevice.obj
 0001:00014570       ??1?$_List_node_emplace_op2@V?$allocator@U?$_List_node@U?$pair@QAVAActor@@H@std@@PAX@std@@@std@@@std@@QAE@XZ 10015570 f i D3D9RenderDevice.obj
 0001:000145c0       ??1?$_Tree@V?$_Tset_traits@IU?$less@I@std@@V?$allocator@I@2@$0A@@std@@@std@@QAE@XZ 100155c0 f i D3D9RenderDevice.obj
 0001:00014640       ??1?$_Tree@V?$_Tset_traits@VFPlane@@U?$less@VFPlane@@@std@@V?$allocator@VFPlane@@@3@$0A@@std@@@std@@QAE@XZ 10015640 f i D3D9RenderDevice.obj
 0001:000146c0       ??1?$_Tree_temp_node@V?$allocator@U?$_Tree_node@IPAX@std@@@std@@@std@@QAE@XZ 100156c0 f i D3D9RenderDevice.obj
 0001:00014710       ??1?$_Tree_temp_node@V?$allocator@U?$_Tree_node@VFPlane@@PAX@std@@@std@@@std@@QAE@XZ 10015710 f i D3D9RenderDevice.obj
 0001:00014760       ??1?$_Tree_temp_node_alloc@V?$allocator@U?$_Tree_node@IPAX@std@@@std@@@std@@QAE@XZ 10015760 f i D3D9RenderDevice.obj
 0001:000147b0       ??1?$_Tree_temp_node_alloc@V?$allocator@U?$_Tree_node@VFPlane@@PAX@std@@@std@@@std@@QAE@XZ 100157b0 f i D3D9RenderDevice.obj
 0001:00014800       ??1?$basic_string@GU?$char_traits@G@std@@V?$allocator@G@2@@std@@QAE@XZ 10015800 f i D3D9RenderDevice.obj
 0001:000148a0       ??1?$deque@HV?$allocator@H@std@@@std@@QAE@XZ 100158a0 f i D3D9RenderDevice.obj
 0001:00014900       ??1?$list@U?$pair@$$CBU?$pair@QAUFTextureInfo@@$$CBK@std@@V?$vector@PAUFPoly@@V?$allocator@PAUFPoly@@@std@@@2@@std@@V?$allocator@U?$pair@$$CBU?$pair@QAUFTextureInfo@@$$CBK@std@@V?$vector@PAUFPoly@@V?$allocator@PAUFPoly@@@std@@@2@@std@@@2@@std@@QAE@XZ 10015900 f i D3D9RenderDevice.obj
 0001:00014950       ??1?$list@U?$pair@QAVAActor@@H@std@@V?$allocator@U?$pair@QAVAActor@@H@std@@@2@@std@@QAE@XZ 10015950 f i D3D9RenderDevice.obj
 0001:000149c0       ??1?$list@V?$basic_string@GU?$char_traits@G@std@@V?$allocator@G@2@@std@@V?$allocator@V?$basic_string@GU?$char_traits@G@std@@V?$allocator@G@2@@std@@@2@@std@@QAE@XZ 100159c0 f i D3D9RenderDevice.obj
 0001:00014a40       ??1?$pair@$$CBU?$pair@QAUFTextureInfo@@$$CBK@std@@V?$vector@PAUFPoly@@V?$allocator@PAUFPoly@@@std@@@2@@std@@QAE@XZ 10015a40 f i D3D9RenderDevice.obj
 0001:00014ab0       ??1?$set@VFPlane@@U?$less@VFPlane@@@std@@V?$allocator@VFPlane@@@3@@std@@QAE@XZ 10015ab0 f i D3D9RenderDevice.obj
 0001:00014b00       ??1?$unordered_map@$$CBU?$pair@QAUFTextureInfo@@$$CBK@std@@V?$vector@PAUFPoly@@V?$allocator@PAUFPoly@@@std@@@2@USurfKey_Hash@@U?$equal_to@$$CBU?$pair@QAUFTextureInfo@@$$CBK@std@@@2@V?$allocator@U?$pair@$$CBU?$pair@QAUFTextureInfo@@$$CBK@std@@V?$vector@PAUFPoly@@V?$allocator@PAUFPoly@@@std@@@2@@std@@@2@@std@@QAE@XZ 10015b00 f i D3D9RenderDevice.obj
 0001:00014b50       ??1?$unordered_map@PAVAActor@@HU?$hash@PAVAActor@@@std@@U?$equal_to@PAVAActor@@@3@V?$allocator@U?$pair@QAVAActor@@H@std@@@3@@std@@QAE@XZ 10015b50 f i D3D9RenderDevice.obj
 0001:00014ba0       ??1?$unordered_set@V?$basic_string@GU?$char_traits@G@std@@V?$allocator@G@2@@std@@U?$hash@V?$basic_string@GU?$char_traits@G@std@@V?$allocator@G@2@@std@@@2@U?$equal_to@V?$basic_string@GU?$char_traits@G@std@@V?$allocator@G@2@@std@@@2@V?$allocator@V?$basic_string@GU?$char_traits@G@std@@V?$allocator@G@2@@std@@@2@@std@@QAE@XZ 10015ba0 f i D3D9RenderDevice.obj
 0001:00014c20       ??1?$vector@PAUFPoly@@V?$allocator@PAUFPoly@@@std@@@std@@QAE@XZ 10015c20 f i D3D9RenderDevice.obj
 0001:00014c50       ??1_Clear_guard@?$_Hash@V?$_Umap_traits@$$CBU?$pair@QAUFTextureInfo@@$$CBK@std@@V?$vector@PAUFPoly@@V?$allocator@PAUFPoly@@@std@@@2@V?$_Uhash_compare@$$CBU?$pair@QAUFTextureInfo@@$$CBK@std@@USurfKey_Hash@@U?$equal_to@$$CBU?$pair@QAUFTextureInfo@@$$CBK@std@@@2@@2@V?$allocator@U?$pair@$$CBU?$pair@QAUFTextureInfo@@$$CBK@std@@V?$vector@PAUFPoly@@V?$allocator@PAUFPoly@@@std@@@2@@std@@@2@$0A@@std@@@std@@QAE@XZ 10015c50 f i D3D9RenderDevice.obj
 0001:00014ca0       ??1_Clear_guard@?$_Hash@V?$_Umap_traits@PAVAActor@@HV?$_Uhash_compare@PAVAActor@@U?$hash@PAVAActor@@@std@@U?$equal_to@PAVAActor@@@3@@std@@V?$allocator@U?$pair@QAVAActor@@H@std@@@3@$0A@@std@@@std@@QAE@XZ 10015ca0 f i D3D9RenderDevice.obj
 0001:00014d70       ??1_Range_eraser@?$_Hash@V?$_Umap_traits@PAVAActor@@HV?$_Uhash_compare@PAVAActor@@U?$hash@PAVAActor@@@std@@U?$equal_to@PAVAActor@@@3@@std@@V?$allocator@U?$pair@QAVAActor@@H@std@@@3@$0A@@std@@@std@@QAE@XZ 10015d70 f i D3D9RenderDevice.obj
 0001:00014d90       ??1_Range_eraser@?$_Hash@V?$_Uset_traits@V?$basic_string@GU?$char_traits@G@std@@V?$allocator@G@2@@std@@V?$_Uhash_compare@V?$basic_string@GU?$char_traits@G@std@@V?$allocator@G@2@@std@@U?$hash@V?$basic_string@GU?$char_traits@G@std@@V?$allocator@G@2@@std@@@2@U?$equal_to@V?$basic_string@GU?$char_traits@G@std@@V?$allocator@G@2@@std@@@2@@2@V?$allocator@V?$basic_string@GU?$char_traits@G@std@@V?$allocator@G@2@@std@@@2@$0A@@std@@@std@@QAE@XZ 10015d90 f i D3D9RenderDevice.obj
 0001:00014db0       ??1_Reallocation_guard@?$vector@PAUFPoly@@V?$allocator@PAUFPoly@@@std@@@std@@QAE@XZ 10015db0 f i D3D9RenderDevice.obj
 0001:00014dd0       ??1_Reallocation_guard@?$vector@UTileFuncCall@UD3D9RenderDevice@@V?$allocator@UTileFuncCall@UD3D9RenderDevice@@@std@@@std@@QAE@XZ 10015dd0 f i D3D9RenderDevice.obj
 0001:00014df0       ??4?$unordered_set@V?$basic_string@GU?$char_traits@G@std@@V?$allocator@G@2@@std@@U?$hash@V?$basic_string@GU?$char_traits@G@std@@V?$allocator@G@2@@std@@@2@U?$equal_to@V?$basic_string@GU?$char_traits@G@std@@V?$allocator@G@2@@std@@@2@V?$allocator@V?$basic_string@GU?$char_traits@G@std@@V?$allocator@G@2@@std@@@2@@std@@QAEAAV01@$$QAV01@@Z 10015df0 f i D3D9RenderDevice.obj
 0001:00014f10       ??6?$basic_ostream@DU?$char_traits@D@std@@@std@@QAEAAV01@I@Z 10015f10 f i D3D9RenderDevice.obj
 0001:000150f0       ??9FVector@@QBE_NABV0@@Z   100160f0 f i D3D9RenderDevice.obj
 0001:00015130       ??DFCoords@@QBE?AV0@M@Z    10016130 f i D3D9RenderDevice.obj
 0001:00015180       ??E?$_Tree_unchecked_const_iterator@V?$_Tree_val@U?$_Tree_simple_types@VFPlane@@@std@@@std@@U_Iterator_base0@2@@std@@QAEAAV01@XZ 10016180 f i D3D9RenderDevice.obj
 0001:000151e0       ??_Dods_stream@@QAEXXZ     100161e0 f i D3D9RenderDevice.obj
 0001:00015240       ??_GLightSlots@UD3D9RenderDevice@@QAEPAXI@Z 10016240 f i D3D9RenderDevice.obj
 0001:00015300       ??_H@YGXPAXIIP6EPAX0@Z@Z   10016300 f i D3D9RenderDevice.obj
 0001:00015330       ?AddRenderPass@UD3D9RenderDevice@@QAIXPAUFTextureInfo@@KM@Z 10016330 f i D3D9RenderDevice.obj
 0001:00015380       ?BindTexture@UD3D9RenderDevice@@QAI_NKAAUFTexInfo@@AAUFTextureInfo@@KAAPAUFCachedTexture@@@Z 10016380 f   D3D9RenderDevice.obj
 0001:00015a40       ?BufferAdditionalClippedVerts@UD3D9RenderDevice@@QAIXPAPAUFTransTexture@@H@Z 10016a40 f   D3D9RenderDevice.obj
 0001:00015e70       ?BufferStaticComplexSurfaceGeometry@UD3D9RenderDevice@@QAIIABUFSurfaceFacet@@ABUFGLMapDot@@_N@Z 10016e70 f   D3D9RenderDevice.obj
 0001:00016300       ?BufferTriangleSurfaceGeometry@UD3D9RenderDevice@@QAIIABV?$vector@UFRenderVert@@V?$allocator@UFRenderVert@@@std@@@std@@@Z 10017300 f   D3D9RenderDevice.obj
 0001:00016350       ?CacheTextureInfo@UD3D9RenderDevice@@QAIXPAUFCachedTexture@@ABUFTextureInfo@@K@Z 10017350 f   D3D9RenderDevice.obj
 0001:00016680       ?ClearZ@UD3D9RenderDevice@@UAEXPAUFSceneNode@@@Z 10017680 f   D3D9RenderDevice.obj
 0001:00016720       ?ConfigValidate_RequiredExtensions@UD3D9RenderDevice@@QAEXXZ 10017720 f   D3D9RenderDevice.obj
 0001:00016790       ?ConvertBGRA7777_BGRA8888@UD3D9RenderDevice@@QAIXPBUFMipmapBase@@H@Z 10017790 f   D3D9RenderDevice.obj
 0001:000168c0       ?ConvertBGRA7777_BGRA8888_NoClamp@UD3D9RenderDevice@@QAIXPBUFMipmapBase@@H@Z 100178c0 f   D3D9RenderDevice.obj
 0001:000169e0       ?ConvertBGRA8_BGRA8888@UD3D9RenderDevice@@QAIXPBUFMipmapBase@@H@Z 100179e0 f   D3D9RenderDevice.obj
 0001:00016b10       ?ConvertBGRA8_BGRA8888_NoClamp@UD3D9RenderDevice@@QAIXPBUFMipmapBase@@H@Z 10017b10 f   D3D9RenderDevice.obj
 0001:00016c30       ?ConvertDXT1_DXT1@UD3D9RenderDevice@@QAIXPBUFMipmapBase@@H@Z 10017c30 f   D3D9RenderDevice.obj
 0001:00016d20       ?ConvertDXT1_DXT3@UD3D9RenderDevice@@QAIXPBUFMipmapBase@@H@Z 10017d20 f   D3D9RenderDevice.obj
 0001:00016e10       ?ConvertDXT35_DXT35@UD3D9RenderDevice@@QAIXPBUFMipmapBase@@H@Z 10017e10 f   D3D9RenderDevice.obj
 0001:00016ef0       ?ConvertP8_RGB565@UD3D9RenderDevice@@QAIXPBUFMipmapBase@@PBUFColor@@H@Z 10017ef0 f   D3D9RenderDevice.obj
 0001:00017020       ?ConvertP8_RGB565_NoStep@UD3D9RenderDevice@@QAIXPBUFMipmapBase@@PBUFColor@@H@Z 10018020 f   D3D9RenderDevice.obj
 0001:00017120       ?ConvertP8_RGBA5551@UD3D9RenderDevice@@QAIXPBUFMipmapBase@@PBUFColor@@H@Z 10018120 f   D3D9RenderDevice.obj
 0001:00017270       ?ConvertP8_RGBA5551_NoStep@UD3D9RenderDevice@@QAIXPBUFMipmapBase@@PBUFColor@@H@Z 10018270 f   D3D9RenderDevice.obj
 0001:00017380       ?ConvertP8_RGBA8888@UD3D9RenderDevice@@QAIXPBUFMipmapBase@@PBUFColor@@H@Z 10018380 f   D3D9RenderDevice.obj
 0001:000174c0       ?ConvertP8_RGBA8888_NoStep@UD3D9RenderDevice@@QAIXPBUFMipmapBase@@PBUFColor@@H@Z 100184c0 f   D3D9RenderDevice.obj
 0001:000175d0       ?ConvertRGBA8_BGRA8888@UD3D9RenderDevice@@QAIXPBUFMipmapBase@@H@Z 100185d0 f   D3D9RenderDevice.obj
 0001:00017700       ?ConvertRGBA8_BGRA8888_NoClamp@UD3D9RenderDevice@@QAIXPBUFMipmapBase@@H@Z 10018700 f   D3D9RenderDevice.obj
 0001:00017820       ?DisableSubsequentTextures@UD3D9RenderDevice@@QAIXK@Z 10018820 f i D3D9RenderDevice.obj
 0001:000178a0       ?Draw2DLine@UD3D9RenderDevice@@UAEXPAUFSceneNode@@VFPlane@@KVFVector@@2@Z 100188a0 f   D3D9RenderDevice.obj
 0001:00017b40       ?Draw2DPoint@UD3D9RenderDevice@@UAEXPAUFSceneNode@@VFPlane@@KMMMMM@Z 10018b40 f   D3D9RenderDevice.obj
 0001:00017ed0       ?Draw3DLine@UD3D9RenderDevice@@UAEXPAUFSceneNode@@VFPlane@@KVFVector@@2@Z 10018ed0 f   D3D9RenderDevice.obj
 0001:000183a0       ?DrawComplexSurface@UD3D9RenderDevice@@UAEXPAUFSceneNode@@AAUFSurfaceInfo@@AAUFSurfaceFacet@@@Z 100193a0 f   D3D9RenderDevice.obj
 0001:00018810       ?DrawGouraudPolygon@UD3D9RenderDevice@@UAEXPAUFSceneNode@@AAUFTextureInfo@@PAPAUFTransTexture@@HKPAVFSpanBuffer@@@Z 10019810 f   D3D9RenderDevice.obj
 0001:00018aa0       ?DrawGouraudPolygonOld@UD3D9RenderDevice@@QAEXPAUFSceneNode@@AAUFTextureInfo@@PAPAUFTransTexture@@HKPAVFSpanBuffer@@@Z 10019aa0 f   D3D9RenderDevice.obj
 0001:00018ca0       ?DrawTile@UD3D9RenderDevice@@UAEXPAUFSceneNode@@AAUFTextureInfo@@MMMMMMMMPAVFSpanBuffer@@MVFPlane@@3K@Z 10019ca0 f   D3D9RenderDevice.obj
 0001:00019100       ?EndBufferingExcept@UD3D9RenderDevice@@QAIXK@Z 1001a100 f i D3D9RenderDevice.obj
 0001:00019120       ?EndBufferingNoCheck@UD3D9RenderDevice@@QAEXXZ 1001a120 f   D3D9RenderDevice.obj
 0001:00019190       ?EndFlash@UD3D9RenderDevice@@UAEXXZ 1001a190 f   D3D9RenderDevice.obj
 0001:00019430       ?EndGouraudPolygonBufferingNoCheck@UD3D9RenderDevice@@QAEXXZ 1001a430 f   D3D9RenderDevice.obj
 0001:00019550       ?EndLineBufferingNoCheck@UD3D9RenderDevice@@QAEXXZ 1001a550 f   D3D9RenderDevice.obj
 0001:00019660       ?EndPointBufferingNoCheck@UD3D9RenderDevice@@QAEXXZ 1001a660 f   D3D9RenderDevice.obj
 0001:00019780       ?EndTileBufferingNoCheck@UD3D9RenderDevice@@QAEXXZ 1001a780 f   D3D9RenderDevice.obj
 0001:000198a0       ?Exec@UD3D9RenderDevice@@UAEHPBDAAVFOutputDevice@@@Z 1001a8a0 f   D3D9RenderDevice.obj
 0001:00019aa0       ?Exit@UD3D9RenderDevice@@UAEXXZ 1001aaa0 f   D3D9RenderDevice.obj
 0001:00019b20       ?ExplainResult@UD3D9RenderDevice@@QAE?AVFString@@J@Z 1001ab20 f   D3D9RenderDevice.obj
 0001:00019fb0       ?FailedInitf@UD3D9RenderDevice@@QAAHPBDZZ 1001afb0 f   D3D9RenderDevice.obj
 0001:0001a010       ?Flush@UD3D9RenderDevice@@UAEXXZ 1001b010 f   D3D9RenderDevice.obj
 0001:0001a210       ?FlushVertexBuffers@UD3D9RenderDevice@@QAEXXZ 1001b210 f i D3D9RenderDevice.obj
 0001:0001a230       ?FreePermanentResources@UD3D9RenderDevice@@QAEXXZ 1001b230 f   D3D9RenderDevice.obj
 0001:0001a4b0       ?GetStats@UD3D9RenderDevice@@UAEXPAD@Z 1001b4b0 f   D3D9RenderDevice.obj
 0001:0001a5f0       ?Init@UD3D9RenderDevice@@UAEHPAVUViewport@@HHHH@Z 1001b5f0 f   D3D9RenderDevice.obj
 0001:0001a860       ?InitFrameRateLimitTimerSafe@UD3D9RenderDevice@@QAEXXZ 1001b860 f   D3D9RenderDevice.obj
 0001:0001a880       ?InitNoTextureSafe@UD3D9RenderDevice@@QAEXXZ 1001b880 f   D3D9RenderDevice.obj
 0001:0001aa00       ?InitOrInvalidateTexEnvState@UD3D9RenderDevice@@QAEXXZ 1001ba00 f   D3D9RenderDevice.obj
 0001:0001aa40       ?InitPermanentResourcesAndRenderingState@UD3D9RenderDevice@@QAEXXZ 1001ba40 f   D3D9RenderDevice.obj
 0001:0001af90       ?Lock@UD3D9RenderDevice@@UAEHVFPlane@@00KPAEPAH@Z 1001bf90 f   D3D9RenderDevice.obj
 0001:0001b390       ?LockTexCoordBuffer@UD3D9RenderDevice@@QAIXKI@Z 1001c390 f i D3D9RenderDevice.obj
 0001:0001b5d0       ?LockVertexColorBuffer@UD3D9RenderDevice@@QAEXI@Z 1001c5d0 f i D3D9RenderDevice.obj
 0001:0001b7f0       ?ParseCommand@@YA_NPAPBDPBD@Z 1001c7f0 f i D3D9RenderDevice.obj
 0001:0001b880       ?PopHit@UD3D9RenderDevice@@UAEXHH@Z 1001c880 f   D3D9RenderDevice.obj
 0001:0001b960       ?PushHit@UD3D9RenderDevice@@UAEXPBEH@Z 1001c960 f   D3D9RenderDevice.obj
 0001:0001b9f0       ?ReadPixels@UD3D9RenderDevice@@UAEXPAUFColor@@@Z 1001c9f0 f   D3D9RenderDevice.obj
 0001:0001bd30       ?RenderPassesExec@UD3D9RenderDevice@@QAEXXZ 1001cd30 f   D3D9RenderDevice.obj
 0001:0001be30       ?RenderPassesNoCheckSetup@UD3D9RenderDevice@@QAEXXZ 1001ce30 f   D3D9RenderDevice.obj
 0001:0001c1c0       ?ResetDevice@UD3D9RenderDevice@@QAEHXZ 1001d1c0 f   D3D9RenderDevice.obj
 0001:0001c320       ?ScanForOldTextures@UD3D9RenderDevice@@QAEXXZ 1001d320 f   D3D9RenderDevice.obj
 0001:0001c500       ?SetBlend@UD3D9RenderDevice@@QAIXK_N@Z 1001d500 f i D3D9RenderDevice.obj
 0001:0001c540       ?SetBlendNoCheck@UD3D9RenderDevice@@QAIXK_N@Z 1001d540 f   D3D9RenderDevice.obj
 0001:0001c7b0       ?SetDefaultStreamState@UD3D9RenderDevice@@QAEXXZ 1001d7b0 f i D3D9RenderDevice.obj
 0001:0001c7d0       ?SetDefaultTextureState@UD3D9RenderDevice@@QAEXXZ 1001d7d0 f i D3D9RenderDevice.obj
 0001:0001c850       ?SetNoTexture@UD3D9RenderDevice@@QAIXH@Z 1001d850 f i D3D9RenderDevice.obj
 0001:0001c870       ?SetNoTextureNoCheck@UD3D9RenderDevice@@QAIXH@Z 1001d870 f   D3D9RenderDevice.obj
 0001:0001c920       ?SetRes@UD3D9RenderDevice@@UAEHHHHH@Z 1001d920 f   D3D9RenderDevice.obj
 0001:0001cfe0       ?SetSceneNode@UD3D9RenderDevice@@UAEXPAUFSceneNode@@@Z 1001dfe0 f   D3D9RenderDevice.obj
 0001:0001d5f0       ?SetTexEnvNoCheck@UD3D9RenderDevice@@QAIXKK@Z 1001e5f0 f   D3D9RenderDevice.obj
 0001:0001d710       ?SetTexFilter@UD3D9RenderDevice@@QAIXKE@Z 1001e710 f i D3D9RenderDevice.obj
 0001:0001d730       ?SetTexFilterNoCheck@UD3D9RenderDevice@@QAIXKE@Z 1001e730 f   D3D9RenderDevice.obj
 0001:0001d870       ?SetTexLODBiasState@UD3D9RenderDevice@@QAIXH@Z 1001e870 f   D3D9RenderDevice.obj
 0001:0001d8c0       ?SetTexMaxAnisotropyState@UD3D9RenderDevice@@QAIXH@Z 1001e8c0 f   D3D9RenderDevice.obj
 0001:0001d8f0       ?SetTexture@UD3D9RenderDevice@@QAIXHAAUFTextureInfo@@KM@Z 1001e8f0 f i D3D9RenderDevice.obj
 0001:0001d990       ?SetTextureNoCheck@UD3D9RenderDevice@@QAIXKAAUFTexInfo@@AAUFTextureInfo@@K@Z 1001e990 f   D3D9RenderDevice.obj
 0001:0001deb0       ?SetTextureNoPanBias@UD3D9RenderDevice@@QAIXHAAUFTextureInfo@@K@Z 1001eeb0 f i D3D9RenderDevice.obj
 0001:0001df30       ?SetVertexDeclNoCheck@UD3D9RenderDevice@@QAIXPAUIDirect3DVertexDeclaration9@@@Z 1001ef30 f   D3D9RenderDevice.obj
 0001:0001dfd0       ?ShutdownAfterError@UD3D9RenderDevice@@UAEXXZ 1001efd0 f   D3D9RenderDevice.obj
 0001:0001e030       ?ShutdownFrameRateLimitTimer@UD3D9RenderDevice@@QAEXXZ 1001f030 f   D3D9RenderDevice.obj
 0001:0001e050       ?StaticClass@UD3D9RenderDevice@@SAPAVUClass@@XZ 1001f050 f   D3D9RenderDevice.obj
 0001:0001e060       ?StaticConfigName@UD3D9RenderDevice@@SAPBDXZ 1001f060 f   D3D9RenderDevice.obj
 0001:0001e070       ?StaticConstructor@UD3D9RenderDevice@@SAXPAVUClass@@@Z 1001f070 f   D3D9RenderDevice.obj
 0001:0001e090       ?StaticConstructorReal@UD3D9RenderDevice@@QAEXXZ 1001f090 f   D3D9RenderDevice.obj
 0001:0001e500       ?Unlock@UD3D9RenderDevice@@UAEXH@Z 1001f500 f   D3D9RenderDevice.obj
 0001:0001e6e0       ?UnlockTexCoordBuffer@UD3D9RenderDevice@@QAIXK@Z 1001f6e0 f i D3D9RenderDevice.obj
 0001:0001e770       ?UnlockVertexColorBuffer@UD3D9RenderDevice@@QAEXXZ 1001f770 f i D3D9RenderDevice.obj
 0001:0001e800       ?UnsetRes@UD3D9RenderDevice@@QAEXXZ 1001f800 f   D3D9RenderDevice.obj
 0001:0001e8b0       ?XMMatrixDecompose@DirectX@@YQ_NPAT__m128@@00UXMMATRIX@1@@Z 1001f8b0 f i D3D9RenderDevice.obj
 0001:0001eda0       ?XMMatrixInverse@DirectX@@YQ?AUXMMATRIX@1@PAT__m128@@U21@@Z 1001fda0 f i D3D9RenderDevice.obj
 0001:0001f050       ?XMMatrixLookAtLH@DirectX@@YQ?AUXMMATRIX@1@T__m128@@00@Z 10020050 f i D3D9RenderDevice.obj
 0001:0001f1c0       ?XMMatrixLookToLH@DirectX@@YQ?AUXMMATRIX@1@T__m128@@00@Z 100201c0 f i D3D9RenderDevice.obj
 0001:0001f340       ?XMMatrixOrthographicOffCenterLH@DirectX@@YQ?AUXMMATRIX@1@MMMMMM@Z 10020340 f i D3D9RenderDevice.obj
 0001:0001f420       ?XMMatrixRotationRollPitchYawFromVector@DirectX@@YQ?AUXMMATRIX@1@T__m128@@@Z 10020420 f i D3D9RenderDevice.obj
 0001:0001f680       ?XMMatrixRotationY@DirectX@@YQ?AUXMMATRIX@1@M@Z 10020680 f i D3D9RenderDevice.obj
 0001:0001f6d0       ?XMMatrixRotationZ@DirectX@@YQ?AUXMMATRIX@1@M@Z 100206d0 f i D3D9RenderDevice.obj
 0001:0001f720       ?XMMatrixScalingFromVector@DirectX@@YQ?AUXMMATRIX@1@T__m128@@@Z 10020720 f i D3D9RenderDevice.obj
 0001:0001f750       ?XMScalarSinCos@DirectX@@YAXPAM0M@Z 10020750 f i D3D9RenderDevice.obj
 0001:0001f880       ?XMVectorRound@DirectX@@YQ?AT__m128@@T2@@Z 10020880 f i D3D9RenderDevice.obj
 0001:0001f890       ?_Assign_grow@?$_Hash_vec@V?$allocator@V?$_List_unchecked_iterator@V?$_List_val@U?$_List_simple_types@U?$pair@$$CBU?$pair@QAUFTextureInfo@@$$CBK@std@@V?$vector@PAUFPoly@@V?$allocator@PAUFPoly@@@std@@@2@@std@@@std@@@std@@@std@@@std@@@std@@QAEXIV?$_List_unchecked_iterator@V?$_List_val@U?$_List_simple_types@U?$pair@$$CBU?$pair@QAUFTextureInfo@@$$CBK@std@@V?$vector@PAUFPoly@@V?$allocator@PAUFPoly@@@std@@@2@@std@@@std@@@std@@@2@@Z 10020890 f i D3D9RenderDevice.obj
 0001:0001f930       ?_Assign_grow@?$_Hash_vec@V?$allocator@V?$_List_unchecked_iterator@V?$_List_val@U?$_List_simple_types@U?$pair@QAVAActor@@H@std@@@std@@@std@@@std@@@std@@@std@@QAEXIV?$_List_unchecked_iterator@V?$_List_val@U?$_List_simple_types@U?$pair@QAVAActor@@H@std@@@std@@@std@@@2@@Z 10020930 f i D3D9RenderDevice.obj
 0001:0001f9d0       ?_Forced_rehash@?$_Hash@V?$_Umap_traits@$$CBU?$pair@QAUFTextureInfo@@$$CBK@std@@V?$vector@PAUFPoly@@V?$allocator@PAUFPoly@@@std@@@2@V?$_Uhash_compare@$$CBU?$pair@QAUFTextureInfo@@$$CBK@std@@USurfKey_Hash@@U?$equal_to@$$CBU?$pair@QAUFTextureInfo@@$$CBK@std@@@2@@2@V?$allocator@U?$pair@$$CBU?$pair@QAUFTextureInfo@@$$CBK@std@@V?$vector@PAUFPoly@@V?$allocator@PAUFPoly@@@std@@@2@@std@@@2@$0A@@std@@@std@@IAEXI@Z 100209d0 f i D3D9RenderDevice.obj
 0001:0001fb90       ?_Forced_rehash@?$_Hash@V?$_Umap_traits@PAVAActor@@HV?$_Uhash_compare@PAVAActor@@U?$hash@PAVAActor@@@std@@U?$equal_to@PAVAActor@@@3@@std@@V?$allocator@U?$pair@QAVAActor@@H@std@@@3@$0A@@std@@@std@@IAEXI@Z 10020b90 f i D3D9RenderDevice.obj
 0001:0001fd20       ?_Growmap@?$deque@HV?$allocator@H@std@@@std@@AAEXI@Z 10020d20 f i D3D9RenderDevice.obj
 0001:0001fe60       ?_Insert_new_node_before@?$_Hash@V?$_Umap_traits@PAVAActor@@HV?$_Uhash_compare@PAVAActor@@U?$hash@PAVAActor@@@std@@U?$equal_to@PAVAActor@@@3@@std@@V?$allocator@U?$pair@QAVAActor@@H@std@@@3@$0A@@std@@@std@@IAEPAU?$_List_node@U?$pair@QAVAActor@@H@std@@PAX@2@IQAU32@0@Z 10020e60 f i D3D9RenderDevice.obj
 0001:0001fec0       ?_Insert_node@?$_Tree_val@U?$_Tree_simple_types@I@std@@@std@@QAEPAU?$_Tree_node@IPAX@2@U?$_Tree_id@PAU?$_Tree_node@IPAX@std@@@2@QAU32@@Z 10020ec0 f i D3D9RenderDevice.obj
 0001:000200b0       ?_Insert_node@?$_Tree_val@U?$_Tree_simple_types@VFPlane@@@std@@@std@@QAEPAU?$_Tree_node@VFPlane@@PAX@2@U?$_Tree_id@PAU?$_Tree_node@VFPlane@@PAX@std@@@2@QAU32@@Z 100210b0 f i D3D9RenderDevice.obj
 0001:000202a0       ?_Rehash_for_1@?$_Hash@V?$_Umap_traits@PAVAActor@@HV?$_Uhash_compare@PAVAActor@@U?$hash@PAVAActor@@@std@@U?$equal_to@PAVAActor@@@3@@std@@V?$allocator@U?$pair@QAVAActor@@H@std@@@3@$0A@@std@@@std@@IAEXXZ 100212a0 f i D3D9RenderDevice.obj
 0001:00020330       ?_Throw_tree_length_error@std@@YAXXZ 10021330 f i D3D9RenderDevice.obj
 0001:00020340       ?_Tidy@?$deque@HV?$allocator@H@std@@@std@@AAEXXZ 10021340 f i D3D9RenderDevice.obj
 0001:00020410       ?_Unchecked_erase@?$_Hash@V?$_Umap_traits@PAVAActor@@HV?$_Uhash_compare@PAVAActor@@U?$hash@PAVAActor@@@std@@U?$equal_to@PAVAActor@@@3@@std@@V?$allocator@U?$pair@QAVAActor@@H@std@@@3@$0A@@std@@@std@@AAEPAU?$_List_node@U?$pair@QAVAActor@@H@std@@PAX@2@PAU32@QAU32@@Z 10021410 f i D3D9RenderDevice.obj
 0001:00020580       ?_Unchecked_erase@?$_Hash@V?$_Uset_traits@V?$basic_string@GU?$char_traits@G@std@@V?$allocator@G@2@@std@@V?$_Uhash_compare@V?$basic_string@GU?$char_traits@G@std@@V?$allocator@G@2@@std@@U?$hash@V?$basic_string@GU?$char_traits@G@std@@V?$allocator@G@2@@std@@@2@U?$equal_to@V?$basic_string@GU?$char_traits@G@std@@V?$allocator@G@2@@std@@@2@@2@V?$allocator@V?$basic_string@GU?$char_traits@G@std@@V?$allocator@G@2@@std@@@2@$0A@@std@@@std@@AAEPAU?$_List_node@V?$basic_string@GU?$char_traits@G@std@@V?$allocator@G@2@@std@@PAX@2@PAU32@QAU32@@Z 10021580 f i D3D9RenderDevice.obj
 0001:00020740       ?_Xlen@?$deque@HV?$allocator@H@std@@@std@@CAXXZ 10021740 f i D3D9RenderDevice.obj
 0001:00020750       ?_Xlength@?$vector@PAUFPoly@@V?$allocator@PAUFPoly@@@std@@@std@@CAXXZ 10021750 f i D3D9RenderDevice.obj
 0001:00020760       ?_Xlength@?$vector@UTileFuncCall@UD3D9RenderDevice@@V?$allocator@UTileFuncCall@UD3D9RenderDevice@@@std@@@std@@CAXXZ 10021760 f i D3D9RenderDevice.obj
 0001:00020770       ?alloc_node@?$rbtree_allocator@V?$rbtree@KV?$rbtree_node_pool@V?$rbtree@_KUFCachedTexture@@@@@@@@@@QAEPAUnode_t@?$rbtree@KV?$rbtree_node_pool@V?$rbtree@_KUFCachedTexture@@@@@@@@XZ 10021770 f i D3D9RenderDevice.obj
 0001:000207e0       ?appError@@YAXPBDZZ        100217e0 f i D3D9RenderDevice.obj
 0001:000207f0       ?appSprintf@@YAPADPBDZZ    100217f0 f i D3D9RenderDevice.obj
 0001:00020830       ?begin@?$rbtree@KUFCachedTexture@@@@QAEPAUnode_t@1@XZ 10021830 f i D3D9RenderDevice.obj
 0001:00020850       ?begin@?$rbtree@KV?$rbtree_node_pool@V?$rbtree@_KUFCachedTexture@@@@@@@@QAEPAUnode_t@1@XZ 10021850 f i D3D9RenderDevice.obj
 0001:00020870       ?begin@?$rbtree@_KUFCachedTexture@@@@QAEPAUnode_t@1@XZ 10021870 f i D3D9RenderDevice.obj
 0001:00020890       ?bridge_initRemixApi@remixapi@@YA?AW4remixapi_ErrorCode@@PAUremixapi_Interface@@@Z 10021890 f i D3D9RenderDevice.obj
 0001:00020940       ?clear@?$rbtree@KUFCachedTexture@@@@QAIXPAV?$rbtree_allocator@V?$rbtree@KUFCachedTexture@@@@@@@Z 10021940 f i D3D9RenderDevice.obj
 0001:00020a10       ?clear@?$rbtree@KV?$rbtree_node_pool@V?$rbtree@_KUFCachedTexture@@@@@@@@QAIXPAV?$rbtree_allocator@V?$rbtree@KV?$rbtree_node_pool@V?$rbtree@_KUFCachedTexture@@@@@@@@@@@Z 10021a10 f i D3D9RenderDevice.obj
 0001:00020ae0       ?clear@?$rbtree@_KUFCachedTexture@@@@QAIXPAV?$rbtree_allocator@V?$rbtree@_KUFCachedTexture@@@@@@@Z 10021ae0 f i D3D9RenderDevice.obj
 0001:00020bb0       ?deallocate@?$allocator@PAH@std@@QAEXQAPAHI@Z 10021bb0 f i D3D9RenderDevice.obj
 0001:00020c30       ?deallocate@?$allocator@PAUFPoly@@@std@@QAEXQAPAUFPoly@@I@Z 10021c30 f i D3D9RenderDevice.obj
 0001:00020cb0       ?deallocate@?$allocator@U?$_List_node@U?$pair@$$CBU?$pair@QAUFTextureInfo@@$$CBK@std@@V?$vector@PAUFPoly@@V?$allocator@PAUFPoly@@@std@@@2@@std@@PAX@std@@@std@@QAEXQAU?$_List_node@U?$pair@$$CBU?$pair@QAUFTextureInfo@@$$CBK@std@@V?$vector@PAUFPoly@@V?$allocator@PAUFPoly@@@std@@@2@@std@@PAX@2@I@Z 10021cb0 f i D3D9RenderDevice.obj
 0001:00020d30       ?deallocate@?$allocator@U?$_Tree_node@IPAX@std@@@std@@QAEXQAU?$_Tree_node@IPAX@2@I@Z 10021d30 f i D3D9RenderDevice.obj
 0001:00020db0       ?deallocate@?$allocator@UTileFuncCall@UD3D9RenderDevice@@@std@@QAEXQAUTileFuncCall@UD3D9RenderDevice@@I@Z 10021db0 f i D3D9RenderDevice.obj
 0001:00020e30       ?deallocate@?$allocator@V?$_List_unchecked_const_iterator@V?$_List_val@U?$_List_simple_types@V?$basic_string@GU?$char_traits@G@std@@V?$allocator@G@2@@std@@@std@@@std@@U_Iterator_base0@2@@std@@@std@@QAEXQAV?$_List_unchecked_const_iterator@V?$_List_val@U?$_List_simple_types@V?$basic_string@GU?$char_traits@G@std@@V?$allocator@G@2@@std@@@std@@@std@@U_Iterator_base0@2@@2@I@Z 10021e30 f i D3D9RenderDevice.obj
 0001:00020eb0       ?deallocate@?$allocator@V?$_List_unchecked_iterator@V?$_List_val@U?$_List_simple_types@U?$pair@$$CBU?$pair@QAUFTextureInfo@@$$CBK@std@@V?$vector@PAUFPoly@@V?$allocator@PAUFPoly@@@std@@@2@@std@@@std@@@std@@@std@@@std@@QAEXQAV?$_List_unchecked_iterator@V?$_List_val@U?$_List_simple_types@U?$pair@$$CBU?$pair@QAUFTextureInfo@@$$CBK@std@@V?$vector@PAUFPoly@@V?$allocator@PAUFPoly@@@std@@@2@@std@@@std@@@std@@@2@I@Z 10021eb0 f i D3D9RenderDevice.obj
 0001:00020f30       ?deallocate@?$allocator@V?$_List_unchecked_iterator@V?$_List_val@U?$_List_simple_types@U?$pair@QAVAActor@@H@std@@@std@@@std@@@std@@@std@@QAEXQAV?$_List_unchecked_iterator@V?$_List_val@U?$_List_simple_types@U?$pair@QAVAActor@@H@std@@@std@@@std@@@2@I@Z 10021f30 f i D3D9RenderDevice.obj
 0001:00020fb0       ?drawLevelSurfaces@UD3D9RenderDevice@@QAEXPAUFSceneNode@@AAUFSurfaceInfo@@AAV?$vector@PAUFSurfaceFacet@@V?$allocator@PAUFSurfaceFacet@@@std@@@std@@@Z 10021fb0 f   D3D9RenderDevice.obj
 0001:00021200       ?endWorldDraw@UD3D9RenderDevice@@QAEXPAUFSceneNode@@@Z 10022200 f   D3D9RenderDevice.obj
 0001:000213b0       ?fillHashTexture@UD3D9RenderDevice@@QAEXUFTexConvertCtx@1@AAUFTextureInfo@@@Z 100223b0 f   D3D9RenderDevice.obj
 0001:000214d0       ?find@?$rbtree@KV?$rbtree_node_pool@V?$rbtree@_KUFCachedTexture@@@@@@@@QAIPAUnode_t@1@K@Z 100224d0 f i D3D9RenderDevice.obj
 0001:000215c0       ?getVertBufferPos@UD3D9RenderDevice@@QAEII@Z 100225c0 f i D3D9RenderDevice.obj
 0001:000216a0       ?insert@?$rbtree@KUFCachedTexture@@@@QAI_NPAUnode_t@1@@Z 100226a0 f i D3D9RenderDevice.obj
 0001:00021870       ?insert@?$rbtree@KV?$rbtree_node_pool@V?$rbtree@_KUFCachedTexture@@@@@@@@QAI_NPAUnode_t@1@@Z 10022870 f i D3D9RenderDevice.obj
 0001:00021a40       ?insert@?$rbtree@_KUFCachedTexture@@@@QAI_NPAUnode_t@1@@Z 10022a40 f i D3D9RenderDevice.obj
 0001:00021c20       ?left_rotate@?$rbtree@KUFCachedTexture@@@@AAIXPAUnode_t@1@@Z 10022c20 f i D3D9RenderDevice.obj
 0001:00021c60       ?left_rotate@?$rbtree@KV?$rbtree_node_pool@V?$rbtree@_KUFCachedTexture@@@@@@@@AAIXPAUnode_t@1@@Z 10022c60 f i D3D9RenderDevice.obj
 0001:00021ca0       ?left_rotate@?$rbtree@_KUFCachedTexture@@@@AAIXPAUnode_t@1@@Z 10022ca0 f i D3D9RenderDevice.obj
 0001:00021ce0       ?link_to_tail@CCachedTextureChain@@QAIXPAUFCachedTexture@@@Z 10022ce0 f i D3D9RenderDevice.obj
 0001:00021d00       ?needsNewBuffer@UD3D9RenderDevice@@QAE_NKIPAUFTextureInfo@@@Z 10022d00 f i D3D9RenderDevice.obj
 0001:00021d80       ?next_node@?$rbtree@KUFCachedTexture@@@@QAIPAUnode_t@1@PAU21@@Z 10022d80 f i D3D9RenderDevice.obj
 0001:00021dc0       ?next_node@?$rbtree@KV?$rbtree_node_pool@V?$rbtree@_KUFCachedTexture@@@@@@@@QAIPAUnode_t@1@PAU21@@Z 10022dc0 f i D3D9RenderDevice.obj
 0001:00021e00       ?next_node@?$rbtree@_KUFCachedTexture@@@@QAIPAUnode_t@1@PAU21@@Z 10022e00 f i D3D9RenderDevice.obj
 0001:00021e40       ?push_back@?$vector@PAUFPoly@@V?$allocator@PAUFPoly@@@std@@@std@@QAEXABQAUFPoly@@@Z 10022e40 f i D3D9RenderDevice.obj
 0001:00021e70       ?push_back@?$vector@UTileFuncCall@UD3D9RenderDevice@@V?$allocator@UTileFuncCall@UD3D9RenderDevice@@@std@@@std@@QAEX$$QAUTileFuncCall@UD3D9RenderDevice@@@Z 10022e70 f i D3D9RenderDevice.obj
 0001:00021eb0       ?remove@?$rbtree@KUFCachedTexture@@@@QAIXPAUnode_t@1@@Z 10022eb0 f i D3D9RenderDevice.obj
 0001:00022160       ?remove@?$rbtree@KV?$rbtree_node_pool@V?$rbtree@_KUFCachedTexture@@@@@@@@QAIXPAUnode_t@1@@Z 10023160 f i D3D9RenderDevice.obj
 0001:00022410       ?remove@?$rbtree@_KUFCachedTexture@@@@QAIXPAUnode_t@1@@Z 10023410 f i D3D9RenderDevice.obj
 0001:000226c0       ?renderAnchor@UD3D9RenderDevice@@QAEXPBU_D3DMATRIX@@PAVUTexture@@II@Z 100236c0 f   D3D9RenderDevice.obj
 0001:00022c60       ?renderLights@UD3D9RenderDevice@@QAEXPAUFSceneNode@@V?$vector@PAVAActor@@V?$allocator@PAVAActor@@@std@@@std@@@Z 10023c60 f   D3D9RenderDevice.obj
 0001:00022fd0       ?renderMover@UD3D9RenderDevice@@QAEXPAUFSceneNode@@PAVABrush@@@Z 10023fd0 f   D3D9RenderDevice.obj
 0001:000238f0       ?renderRTXAnchor@UD3D9RenderDevice@@QAEXABVRTXAnchor@@PAVUTexture@@@Z 100248f0 f   D3D9RenderDevice.obj
 0001:00023b80       ?renderSkyZoneAnchor@UD3D9RenderDevice@@QAEXPAVASkyZoneInfo@@PBVFVector@@@Z 10024b80 f   D3D9RenderDevice.obj
 0001:00023dd0       ?renderSprite@UD3D9RenderDevice@@QAEXPAUFSceneNode@@PAVAActor@@@Z 10024dd0 f   D3D9RenderDevice.obj
 0001:00024020       ?renderSpriteGeo@UD3D9RenderDevice@@QAEXPAUFSceneNode@@ABVFVector@@MMAAUFTextureInfo@@KVFPlane@@@Z 10025020 f   D3D9RenderDevice.obj
 0001:00024730       ?renderSurfaceBuckets@UD3D9RenderDevice@@QAEXABUActorRenderData@@N@Z 10025730 f   D3D9RenderDevice.obj
 0001:00024930       ?reserve@?$_Hash@V?$_Umap_traits@$$CBU?$pair@QAUFTextureInfo@@$$CBK@std@@V?$vector@PAUFPoly@@V?$allocator@PAUFPoly@@@std@@@2@V?$_Uhash_compare@$$CBU?$pair@QAUFTextureInfo@@$$CBK@std@@USurfKey_Hash@@U?$equal_to@$$CBU?$pair@QAUFTextureInfo@@$$CBK@std@@@2@@2@V?$allocator@U?$pair@$$CBU?$pair@QAUFTextureInfo@@$$CBK@std@@V?$vector@PAUFPoly@@V?$allocator@PAUFPoly@@@std@@@2@@std@@@2@$0A@@std@@@std@@QAEXI@Z 10025930 f i D3D9RenderDevice.obj
 0001:00024a00       ?reserve@?$_Hash@V?$_Umap_traits@PAVUTexture@@UFTextureInfo@@V?$_Uhash_compare@PAVUTexture@@U?$hash@PAVUTexture@@@std@@U?$equal_to@PAVUTexture@@@3@@std@@V?$allocator@U?$pair@QAVUTexture@@UFTextureInfo@@@std@@@4@$0A@@std@@@std@@QAEXI@Z 10025a00 f i D3D9RenderDevice.obj
 0001:00024ad0       ?right_rotate@?$rbtree@KUFCachedTexture@@@@AAIXPAUnode_t@1@@Z 10025ad0 f i D3D9RenderDevice.obj
 0001:00024b10       ?right_rotate@?$rbtree@KV?$rbtree_node_pool@V?$rbtree@_KUFCachedTexture@@@@@@@@AAIXPAUnode_t@1@@Z 10025b10 f i D3D9RenderDevice.obj
 0001:00024b50       ?right_rotate@?$rbtree@_KUFCachedTexture@@@@AAIXPAUnode_t@1@@Z 10025b50 f i D3D9RenderDevice.obj
 0001:00024b90       ?setCompatMatrix@UD3D9RenderDevice@@QAEXPAUFSceneNode@@@Z 10025b90 f   D3D9RenderDevice.obj
 0001:00024c70       ?setIdentityMatrix@UD3D9RenderDevice@@QAEXXZ 10025c70 f   D3D9RenderDevice.obj
 0001:00024cf0       ?setProjection@UD3D9RenderDevice@@QAEXMM@Z 10025cf0 f   D3D9RenderDevice.obj
 0001:00024e00       ?shouldGenHashTexture@UD3D9RenderDevice@@QAE_NABUFTextureInfo@@@Z 10025e00 f   D3D9RenderDevice.obj
 0001:00024fd0       ?slotMap@LightSlots@UD3D9RenderDevice@@QAE?BV?$unordered_map@PAVAActor@@HU?$hash@PAVAActor@@@std@@U?$equal_to@PAVAActor@@@3@V?$allocator@U?$pair@QAVAActor@@H@std@@@3@@std@@XZ 10025fd0 f i D3D9RenderDevice.obj
 0001:00025030       ?startWorldDraw@UD3D9RenderDevice@@QAEXPAUFSceneNode@@@Z 10026030 f   D3D9RenderDevice.obj
 0001:00025260       ?updateActors@LightSlots@UD3D9RenderDevice@@QAE?AV?$unordered_set@HU?$hash@H@std@@U?$equal_to@H@2@V?$allocator@H@2@@std@@ABV?$vector@PAVAActor@@V?$allocator@PAVAActor@@@std@@@4@@Z 10026260 f   D3D9RenderDevice.obj
 0001:00025880       ?updateQuadBuffer@UD3D9RenderDevice@@QAEXK@Z 10026880 f i D3D9RenderDevice.obj
 0001:00025ba0       _wmemcmp                   10026ba0 f i D3D9RenderDevice.obj
 0001:00025cf0       ??$?0AANN$0A@@?$basic_json@Vmap@std@@Vvector@2@V?$basic_string@DU?$char_traits@D@std@@V?$allocator@D@2@@2@_N_J_KNVallocator@2@Uadl_serializer@json_abi_v3_12_0@nlohmann@@V?$vector@EV?$allocator@E@std@@@2@X@json_abi_v3_12_0@nlohmann@@QAE@AAN@Z 10026cf0 f i RTXLevelProperties.obj
 0001:00025d90       ??$?0AAV?$basic_string@DU?$char_traits@D@std@@V?$allocator@D@2@@std@@V01@$0A@@?$basic_json@Vmap@std@@Vvector@2@V?$basic_string@DU?$char_traits@D@std@@V?$allocator@D@2@@2@_N_J_KNVallocator@2@Uadl_serializer@json_abi_v3_12_0@nlohmann@@V?$vector@EV?$allocator@E@std@@@2@X@json_abi_v3_12_0@nlohmann@@QAE@AAV?$basic_string@DU?$char_traits@D@std@@V?$allocator@D@2@@std@@@Z 10026d90 f i RTXLevelProperties.obj
 0001:00025e40       ??$?0AA_J_J$0A@@?$basic_json@Vmap@std@@Vvector@2@V?$basic_string@DU?$char_traits@D@std@@V?$allocator@D@2@@2@_N_J_KNVallocator@2@Uadl_serializer@json_abi_v3_12_0@nlohmann@@V?$vector@EV?$allocator@E@std@@@2@X@json_abi_v3_12_0@nlohmann@@QAE@AA_J@Z 10026e40 f i RTXLevelProperties.obj
 0001:00025ed0       ??$?0AA_K_K$0A@@?$basic_json@Vmap@std@@Vvector@2@V?$basic_string@DU?$char_traits@D@std@@V?$allocator@D@2@@2@_N_J_KNVallocator@2@Uadl_serializer@json_abi_v3_12_0@nlohmann@@V?$vector@EV?$allocator@E@std@@@2@X@json_abi_v3_12_0@nlohmann@@QAE@AA_K@Z 10026ed0 f i RTXLevelProperties.obj
 0001:00025f60       ??$?0AA_N_N$0A@@?$basic_json@Vmap@std@@Vvector@2@V?$basic_string@DU?$char_traits@D@std@@V?$allocator@D@2@@2@_N_J_KNVallocator@2@Uadl_serializer@json_abi_v3_12_0@nlohmann@@V?$vector@EV?$allocator@E@std@@@2@X@json_abi_v3_12_0@nlohmann@@QAE@AA_N@Z 10026f60 f i RTXLevelProperties.obj
 0001:00025ff0       ??$?0PAD$0A@@?$basic_string@DU?$char_traits@D@std@@V?$allocator@D@2@@std@@QAE@PAD0ABV?$allocator@D@1@@Z 10026ff0 f i RTXLevelProperties.obj
 0001:000260e0       ??$?8DU?$char_traits@D@std@@V?$allocator@D@1@@std@@YA_NABV?$basic_string@DU?$char_traits@D@std@@V?$allocator@D@2@@0@0@Z 100270e0 f i RTXLevelProperties.obj
 0001:00026110       ??$?9V?$iter_impl@V?$basic_json@Vmap@std@@Vvector@2@V?$basic_string@DU?$char_traits@D@std@@V?$allocator@D@2@@2@_N_J_KNVallocator@2@Uadl_serializer@json_abi_v3_12_0@nlohmann@@V?$vector@EV?$allocator@E@std@@@2@X@json_abi_v3_12_0@nlohmann@@@detail@json_abi_v3_12_0@nlohmann@@$0A@@?$iter_impl@V?$basic_json@Vmap@std@@Vvector@2@V?$basic_string@DU?$char_traits@D@std@@V?$allocator@D@2@@2@_N_J_KNVallocator@2@Uadl_serializer@json_abi_v3_12_0@nlohmann@@V?$vector@EV?$allocator@E@std@@@2@X@json_abi_v3_12_0@nlohmann@@@detail@json_abi_v3_12_0@nlohmann@@QBE_NABV0123@@Z 10027110 f i RTXLevelProperties.obj
 0001:000261f0       ??$?A$$CBD@?$basic_json@Vmap@std@@Vvector@2@V?$basic_string@DU?$char_traits@D@std@@V?$allocator@D@2@@2@_N_J_KNVallocator@2@Uadl_serializer@json_abi_v3_12_0@nlohmann@@V?$vector@EV?$allocator@E@std@@@2@X@json_abi_v3_12_0@nlohmann@@QAEAAV012@PBD@Z 100271f0 f i RTXLevelProperties.obj
 0001:00026320       ??$?BV?$basic_string@DU?$char_traits@D@std@@V?$allocator@D@2@@std@@$0A@@?$basic_json@Vmap@std@@Vvector@2@V?$basic_string@DU?$char_traits@D@std@@V?$allocator@D@2@@2@_N_J_KNVallocator@2@Uadl_serializer@json_abi_v3_12_0@nlohmann@@V?$vector@EV?$allocator@E@std@@@2@X@json_abi_v3_12_0@nlohmann@@QBE?AV?$basic_string@DU?$char_traits@D@std@@V?$allocator@D@2@@std@@XZ 10027320 f i RTXLevelProperties.obj
 0001:000263d0       ??$_Allocate_for_capacity@$0A@@?$basic_string@DU?$char_traits@D@std@@V?$allocator@D@2@@std@@CAPADAAV?$allocator@D@1@AAI@Z 100273d0 f i RTXLevelProperties.obj
 0001:00026410       ??$_Copy_memmove@PADPAD@std@@YAPADPAD00@Z 10027410 f i RTXLevelProperties.obj
 0001:00026430       ??$_Copy_memmove@PAEPAE@std@@YAPAEPAE00@Z 10027430 f i RTXLevelProperties.obj
 0001:00026450       ??$_Copy_memmove@PAIPAI@std@@YAPAIPAI00@Z 10027450 f i RTXLevelProperties.obj
 0001:00026470       ??$_Copy_memmove@PAPAV?$basic_json@Vmap@std@@Vvector@2@V?$basic_string@DU?$char_traits@D@std@@V?$allocator@D@2@@2@_N_J_KNVallocator@2@Uadl_serializer@json_abi_v3_12_0@nlohmann@@V?$vector@EV?$allocator@E@std@@@2@X@json_abi_v3_12_0@nlohmann@@PAPAV123@@std@@YAPAPAV?$basic_json@Vmap@std@@Vvector@2@V?$basic_string@DU?$char_traits@D@std@@V?$allocator@D@2@@2@_N_J_KNVallocator@2@Uadl_serializer@json_abi_v3_12_0@nlohmann@@V?$vector@EV?$allocator@E@std@@@2@X@json_abi_v3_12_0@nlohmann@@PAPAV123@00@Z 10027470 f i RTXLevelProperties.obj
 0001:00026490       ??$_Copy_memmove@PBDPAD@std@@YAPADPBD0PAD@Z 10027490 f i RTXLevelProperties.obj
 0001:000264b0       ??$_Copy_memmove_tail@PAD@std@@YAPADQBDQADII@Z 100274b0 f i RTXLevelProperties.obj
 0001:000264d0       ??$_Copy_memmove_tail@PAE@std@@YAPAEQBDQAEII@Z 100274d0 f i RTXLevelProperties.obj
 0001:000264f0       ??$_Copy_memmove_tail@PAI@std@@YAPAIQBDQAIII@Z 100274f0 f i RTXLevelProperties.obj
 0001:00026510       ??$_Copy_memmove_tail@PAPAV?$basic_json@Vmap@std@@Vvector@2@V?$basic_string@DU?$char_traits@D@std@@V?$allocator@D@2@@2@_N_J_KNVallocator@2@Uadl_serializer@json_abi_v3_12_0@nlohmann@@V?$vector@EV?$allocator@E@std@@@2@X@json_abi_v3_12_0@nlohmann@@@std@@YAPAPAV?$basic_json@Vmap@std@@Vvector@2@V?$basic_string@DU?$char_traits@D@std@@V?$allocator@D@2@@2@_N_J_KNVallocator@2@Uadl_serializer@json_abi_v3_12_0@nlohmann@@V?$vector@EV?$allocator@E@std@@@2@X@json_abi_v3_12_0@nlohmann@@QBDQAPAV123@II@Z 10027510 f i RTXLevelProperties.obj
 0001:00026530       ??$_Copy_nodes@$0A@@?$_Tree@V?$_Tmap_traits@V?$basic_string@DU?$char_traits@D@std@@V?$allocator@D@2@@std@@V?$basic_json@Vmap@std@@Vvector@2@V?$basic_string@DU?$char_traits@D@std@@V?$allocator@D@2@@2@_N_J_KNVallocator@2@Uadl_serializer@json_abi_v3_12_0@nlohmann@@V?$vector@EV?$allocator@E@std@@@2@X@json_abi_v3_12_0@nlohmann@@U?$less@X@2@V?$allocator@U?$pair@$$CBV?$basic_string@DU?$char_traits@D@std@@V?$allocator@D@2@@std@@V?$basic_json@Vmap@std@@Vvector@2@V?$basic_string@DU?$char_traits@D@std@@V?$allocator@D@2@@2@_N_J_KNVallocator@2@Uadl_serializer@json_abi_v3_12_0@nlohmann@@V?$vector@EV?$allocator@E@std@@@2@X@json_abi_v3_12_0@nlohmann@@@std@@@2@$0A@@std@@@std@@IAEPAU?$_Tree_node@U?$pair@$$CBV?$basic_string@DU?$char_traits@D@std@@V?$allocator@D@2@@std@@V?$basic_json@Vmap@std@@Vvector@2@V?$basic_string@DU?$char_traits@D@std@@V?$allocator@D@2@@2@_N_J_KNVallocator@2@Uadl_serializer@json_abi_v3_12_0@nlohmann@@V?$vector@EV?$allocator@E@std@@@2@X@json_abi_v3_12_0@nlohmann@@@std@@PAX@1@PAU21@0@Z 10027530 f i RTXLevelProperties.obj
 0001:00026650       ??$_Copy_vbool@V?$_Vb_iterator@U?$_Wrap_alloc@V?$allocator@I@std@@@std@@@std@@V12@@std@@YA?AV?$_Vb_iterator@U?$_Wrap_alloc@V?$allocator@I@std@@@std@@@0@V10@00@Z 10027650 f i RTXLevelProperties.obj
 0001:00026a40       ??$_Destroy_range@V?$allocator@V?$basic_string@DU?$char_traits@D@std@@V?$allocator@D@2@@std@@@std@@@std@@YAXPAV?$basic_string@DU?$char_traits@D@std@@V?$allocator@D@2@@0@QAV10@AAV?$allocator@V?$basic_string@DU?$char_traits@D@std@@V?$allocator@D@2@@std@@@0@@Z 10027a40 f i RTXLevelProperties.obj
 0001:00026a80       ??$_Emplace@V?$basic_string@DU?$char_traits@D@std@@V?$allocator@D@2@@std@@$$T@?$_Tree@V?$_Tmap_traits@V?$basic_string@DU?$char_traits@D@std@@V?$allocator@D@2@@std@@V?$basic_json@Vmap@std@@Vvector@2@V?$basic_string@DU?$char_traits@D@std@@V?$allocator@D@2@@2@_N_J_KNVallocator@2@Uadl_serializer@json_abi_v3_12_0@nlohmann@@V?$vector@EV?$allocator@E@std@@@2@X@json_abi_v3_12_0@nlohmann@@U?$less@X@2@V?$allocator@U?$pair@$$CBV?$basic_string@DU?$char_traits@D@std@@V?$allocator@D@2@@std@@V?$basic_json@Vmap@std@@Vvector@2@V?$basic_string@DU?$char_traits@D@std@@V?$allocator@D@2@@2@_N_J_KNVallocator@2@Uadl_serializer@json_abi_v3_12_0@nlohmann@@V?$vector@EV?$allocator@E@std@@@2@X@json_abi_v3_12_0@nlohmann@@@std@@@2@$0A@@std@@@std@@IAE?AU?$pair@PAU?$_Tree_node@U?$pair@$$CBV?$basic_string@DU?$char_traits@D@std@@V?$allocator@D@2@@std@@V?$basic_json@Vmap@std@@Vvector@2@V?$basic_string@DU?$char_traits@D@std@@V?$allocator@D@2@@2@_N_J_KNVallocator@2@Uadl_serializer@json_abi_v3_12_0@nlohmann@@V?$vector@EV?$allocator@E@std@@@2@X@json_abi_v3_12_0@nlohmann@@@std@@PAX@std@@_N@1@$$QAV?$basic_string@DU?$char_traits@D@std@@V?$allocator@D@2@@1@$$QA$$T@Z 10027a80 f i RTXLevelProperties.obj
 0001:00026c00       ??$_Emplace_one_at_back@V?$basic_json@Vmap@std@@Vvector@2@V?$basic_string@DU?$char_traits@D@std@@V?$allocator@D@2@@2@_N_J_KNVallocator@2@Uadl_serializer@json_abi_v3_12_0@nlohmann@@V?$vector@EV?$allocator@E@std@@@2@X@json_abi_v3_12_0@nlohmann@@@?$vector@V?$basic_json@Vmap@std@@Vvector@2@V?$basic_string@DU?$char_traits@D@std@@V?$allocator@D@2@@2@_N_J_KNVallocator@2@Uadl_serializer@json_abi_v3_12_0@nlohmann@@V?$vector@EV?$allocator@E@std@@@2@X@json_abi_v3_12_0@nlohmann@@V?$allocator@V?$basic_json@Vmap@std@@Vvector@2@V?$basic_string@DU?$char_traits@D@std@@V?$allocator@D@2@@2@_N_J_KNVallocator@2@Uadl_serializer@json_abi_v3_12_0@nlohmann@@V?$vector@EV?$allocator@E@std@@@2@X@json_abi_v3_12_0@nlohmann@@@std@@@std@@AAEAAV?$basic_json@Vmap@std@@Vvector@2@V?$basic_string@DU?$char_traits@D@std@@V?$allocator@D@2@@2@_N_J_KNVallocator@2@Uadl_serializer@json_abi_v3_12_0@nlohmann@@V?$vector@EV?$allocator@E@std@@@2@X@json_abi_v3_12_0@nlohmann@@$$QAV234@@Z 10027c00 f i RTXLevelProperties.obj
 0001:00026ca0       ??$_Emplace_reallocate@$$T@?$vector@V?$basic_json@Vmap@std@@Vvector@2@V?$basic_string@DU?$char_traits@D@std@@V?$allocator@D@2@@2@_N_J_KNVallocator@2@Uadl_serializer@json_abi_v3_12_0@nlohmann@@V?$vector@EV?$allocator@E@std@@@2@X@json_abi_v3_12_0@nlohmann@@V?$allocator@V?$basic_json@Vmap@std@@Vvector@2@V?$basic_string@DU?$char_traits@D@std@@V?$allocator@D@2@@2@_N_J_KNVallocator@2@Uadl_serializer@json_abi_v3_12_0@nlohmann@@V?$vector@EV?$allocator@E@std@@@2@X@json_abi_v3_12_0@nlohmann@@@std@@@std@@AAEPAV?$basic_json@Vmap@std@@Vvector@2@V?$basic_string@DU?$char_traits@D@std@@V?$allocator@D@2@@2@_N_J_KNVallocator@2@Uadl_serializer@json_abi_v3_12_0@nlohmann@@V?$vector@EV?$allocator@E@std@@@2@X@json_abi_v3_12_0@nlohmann@@QAV234@$$QA$$T@Z 10027ca0 f i RTXLevelProperties.obj
 0001:00026e40       ??$_Emplace_reallocate@AAN@?$vector@V?$basic_json@Vmap@std@@Vvector@2@V?$basic_string@DU?$char_traits@D@std@@V?$allocator@D@2@@2@_N_J_KNVallocator@2@Uadl_serializer@json_abi_v3_12_0@nlohmann@@V?$vector@EV?$allocator@E@std@@@2@X@json_abi_v3_12_0@nlohmann@@V?$allocator@V?$basic_json@Vmap@std@@Vvector@2@V?$basic_string@DU?$char_traits@D@std@@V?$allocator@D@2@@2@_N_J_KNVallocator@2@Uadl_serializer@json_abi_v3_12_0@nlohmann@@V?$vector@EV?$allocator@E@std@@@2@X@json_abi_v3_12_0@nlohmann@@@std@@@std@@AAEPAV?$basic_json@Vmap@std@@Vvector@2@V?$basic_string@DU?$char_traits@D@std@@V?$allocator@D@2@@2@_N_J_KNVallocator@2@Uadl_serializer@json_abi_v3_12_0@nlohmann@@V?$vector@EV?$allocator@E@std@@@2@X@json_abi_v3_12_0@nlohmann@@QAV234@AAN@Z 10027e40 f i RTXLevelProperties.obj
 0001:00027020       ??$_Emplace_reallocate@AAV?$basic_string@DU?$char_traits@D@std@@V?$allocator@D@2@@std@@@?$vector@V?$basic_json@Vmap@std@@Vvector@2@V?$basic_string@DU?$char_traits@D@std@@V?$allocator@D@2@@2@_N_J_KNVallocator@2@Uadl_serializer@json_abi_v3_12_0@nlohmann@@V?$vector@EV?$allocator@E@std@@@2@X@json_abi_v3_12_0@nlohmann@@V?$allocator@V?$basic_json@Vmap@std@@Vvector@2@V?$basic_string@DU?$char_traits@D@std@@V?$allocator@D@2@@2@_N_J_KNVallocator@2@Uadl_serializer@json_abi_v3_12_0@nlohmann@@V?$vector@EV?$allocator@E@std@@@2@X@json_abi_v3_12_0@nlohmann@@@std@@@std@@AAEPAV?$basic_json@Vmap@std@@Vvector@2@V?$basic_string@DU?$char_traits@D@std@@V?$allocator@D@2@@2@_N_J_KNVallocator@2@Uadl_serializer@json_abi_v3_12_0@nlohmann@@V?$vector@EV?$allocator@E@std@@@2@X@json_abi_v3_12_0@nlohmann@@QAV234@AAV?$basic_string@DU?$char_traits@D@std@@V?$allocator@D@2@@1@@Z 10028020 f i RTXLevelProperties.obj
 0001:000271b0       ??$_Emplace_reallocate@AA_J@?$vector@V?$basic_json@Vmap@std@@Vvector@2@V?$basic_string@DU?$char_traits@D@std@@V?$allocator@D@2@@2@_N_J_KNVallocator@2@Uadl_serializer@json_abi_v3_12_0@nlohmann@@V?$vector@EV?$allocator@E@std@@@2@X@json_abi_v3_12_0@nlohmann@@V?$allocator@V?$basic_json@Vmap@std@@Vvector@2@V?$basic_string@DU?$char_traits@D@std@@V?$allocator@D@2@@2@_N_J_KNVallocator@2@Uadl_serializer@json_abi_v3_12_0@nlohmann@@V?$vector@EV?$allocator@E@std@@@2@X@json_abi_v3_12_0@nlohmann@@@std@@@std@@AAEPAV?$basic_json@Vmap@std@@Vvector@2@V?$basic_string@DU?$char_traits@D@std@@V?$allocator@D@2@@2@_N_J_KNVallocator@2@Uadl_serializer@json_abi_v3_12_0@nlohmann@@V?$vector@EV?$allocator@E@std@@@2@X@json_abi_v3_12_0@nlohmann@@QAV234@AA_J@Z 100281b0 f i RTXLevelProperties.obj
 0001:00027390       ??$_Emplace_reallocate@AA_K@?$vector@V?$basic_json@Vmap@std@@Vvector@2@V?$basic_string@DU?$char_traits@D@std@@V?$allocator@D@2@@2@_N_J_KNVallocator@2@Uadl_serializer@json_abi_v3_12_0@nlohmann@@V?$vector@EV?$allocator@E@std@@@2@X@json_abi_v3_12_0@nlohmann@@V?$allocator@V?$basic_json@Vmap@std@@Vvector@2@V?$basic_string@DU?$char_traits@D@std@@V?$allocator@D@2@@2@_N_J_KNVallocator@2@Uadl_serializer@json_abi_v3_12_0@nlohmann@@V?$vector@EV?$allocator@E@std@@@2@X@json_abi_v3_12_0@nlohmann@@@std@@@std@@AAEPAV?$basic_json@Vmap@std@@Vvector@2@V?$basic_string@DU?$char_traits@D@std@@V?$allocator@D@2@@2@_N_J_KNVallocator@2@Uadl_serializer@json_abi_v3_12_0@nlohmann@@V?$vector@EV?$allocator@E@std@@@2@X@json_abi_v3_12_0@nlohmann@@QAV234@AA_K@Z 10028390 f i RTXLevelProperties.obj
 0001:00027570       ??$_Emplace_reallocate@AA_N@?$vector@V?$basic_json@Vmap@std@@Vvector@2@V?$basic_string@DU?$char_traits@D@std@@V?$allocator@D@2@@2@_N_J_KNVallocator@2@Uadl_serializer@json_abi_v3_12_0@nlohmann@@V?$vector@EV?$allocator@E@std@@@2@X@json_abi_v3_12_0@nlohmann@@V?$allocator@V?$basic_json@Vmap@std@@Vvector@2@V?$basic_string@DU?$char_traits@D@std@@V?$allocator@D@2@@2@_N_J_KNVallocator@2@Uadl_serializer@json_abi_v3_12_0@nlohmann@@V?$vector@EV?$allocator@E@std@@@2@X@json_abi_v3_12_0@nlohmann@@@std@@@std@@AAEPAV?$basic_json@Vmap@std@@Vvector@2@V?$basic_string@DU?$char_traits@D@std@@V?$allocator@D@2@@2@_N_J_KNVallocator@2@Uadl_serializer@json_abi_v3_12_0@nlohmann@@V?$vector@EV?$allocator@E@std@@@2@X@json_abi_v3_12_0@nlohmann@@QAV234@AA_N@Z 10028570 f i RTXLevelProperties.obj
 0001:00027750       ??$_Emplace_reallocate@ABQAV?$basic_json@Vmap@std@@Vvector@2@V?$basic_string@DU?$char_traits@D@std@@V?$allocator@D@2@@2@_N_J_KNVallocator@2@Uadl_serializer@json_abi_v3_12_0@nlohmann@@V?$vector@EV?$allocator@E@std@@@2@X@json_abi_v3_12_0@nlohmann@@@?$vector@PAV?$basic_json@Vmap@std@@Vvector@2@V?$basic_string@DU?$char_traits@D@std@@V?$allocator@D@2@@2@_N_J_KNVallocator@2@Uadl_serializer@json_abi_v3_12_0@nlohmann@@V?$vector@EV?$allocator@E@std@@@2@X@json_abi_v3_12_0@nlohmann@@V?$allocator@PAV?$basic_json@Vmap@std@@Vvector@2@V?$basic_string@DU?$char_traits@D@std@@V?$allocator@D@2@@2@_N_J_KNVallocator@2@Uadl_serializer@json_abi_v3_12_0@nlohmann@@V?$vector@EV?$allocator@E@std@@@2@X@json_abi_v3_12_0@nlohmann@@@std@@@std@@AAEPAPAV?$basic_json@Vmap@std@@Vvector@2@V?$basic_string@DU?$char_traits@D@std@@V?$allocator@D@2@@2@_N_J_KNVallocator@2@Uadl_serializer@json_abi_v3_12_0@nlohmann@@V?$vector@EV?$allocator@E@std@@@2@X@json_abi_v3_12_0@nlohmann@@QAPAV234@ABQAV234@@Z 10028750 f i RTXLevelProperties.obj
 0001:000278d0       ??$_Emplace_reallocate@D@?$vector@DV?$allocator@D@std@@@std@@AAEPADQAD$$QAD@Z 100288d0 f i RTXLevelProperties.obj
 0001:00027a20       ??$_Emplace_reallocate@PAV?$basic_json@Vmap@std@@Vvector@2@V?$basic_string@DU?$char_traits@D@std@@V?$allocator@D@2@@2@_N_J_KNVallocator@2@Uadl_serializer@json_abi_v3_12_0@nlohmann@@V?$vector@EV?$allocator@E@std@@@2@X@json_abi_v3_12_0@nlohmann@@@?$vector@PAV?$basic_json@Vmap@std@@Vvector@2@V?$basic_string@DU?$char_traits@D@std@@V?$allocator@D@2@@2@_N_J_KNVallocator@2@Uadl_serializer@json_abi_v3_12_0@nlohmann@@V?$vector@EV?$allocator@E@std@@@2@X@json_abi_v3_12_0@nlohmann@@V?$allocator@PAV?$basic_json@Vmap@std@@Vvector@2@V?$basic_string@DU?$char_traits@D@std@@V?$allocator@D@2@@2@_N_J_KNVallocator@2@Uadl_serializer@json_abi_v3_12_0@nlohmann@@V?$vector@EV?$allocator@E@std@@@2@X@json_abi_v3_12_0@nlohmann@@@std@@@std@@AAEPAPAV?$basic_json@Vmap@std@@Vvector@2@V?$basic_string@DU?$char_traits@D@std@@V?$allocator@D@2@@2@_N_J_KNVallocator@2@Uadl_serializer@json_abi_v3_12_0@nlohmann@@V?$vector@EV?$allocator@E@std@@@2@X@json_abi_v3_12_0@nlohmann@@QAPAV234@$$QAPAV234@@Z 10028a20 f i RTXLevelProperties.obj
 0001:00027ba0       ??$_Emplace_reallocate@V?$basic_json@Vmap@std@@Vvector@2@V?$basic_string@DU?$char_traits@D@std@@V?$allocator@D@2@@2@_N_J_KNVallocator@2@Uadl_serializer@json_abi_v3_12_0@nlohmann@@V?$vector@EV?$allocator@E@std@@@2@X@json_abi_v3_12_0@nlohmann@@@?$vector@V?$basic_json@Vmap@std@@Vvector@2@V?$basic_string@DU?$char_traits@D@std@@V?$allocator@D@2@@2@_N_J_KNVallocator@2@Uadl_serializer@json_abi_v3_12_0@nlohmann@@V?$vector@EV?$allocator@E@std@@@2@X@json_abi_v3_12_0@nlohmann@@V?$allocator@V?$basic_json@Vmap@std@@Vvector@2@V?$basic_string@DU?$char_traits@D@std@@V?$allocator@D@2@@2@_N_J_KNVallocator@2@Uadl_serializer@json_abi_v3_12_0@nlohmann@@V?$vector@EV?$allocator@E@std@@@2@X@json_abi_v3_12_0@nlohmann@@@std@@@std@@AAEPAV?$basic_json@Vmap@std@@Vvector@2@V?$basic_string@DU?$char_traits@D@std@@V?$allocator@D@2@@2@_N_J_KNVallocator@2@Uadl_serializer@json_abi_v3_12_0@nlohmann@@V?$vector@EV?$allocator@E@std@@@2@X@json_abi_v3_12_0@nlohmann@@QAV234@$$QAV234@@Z 10028ba0 f i RTXLevelProperties.obj
 0001:00027d50       ??$_Emplace_reallocate@V?$basic_string@DU?$char_traits@D@std@@V?$allocator@D@2@@std@@@?$vector@V?$basic_string@DU?$char_traits@D@std@@V?$allocator@D@2@@std@@V?$allocator@V?$basic_string@DU?$char_traits@D@std@@V?$allocator@D@2@@std@@@2@@std@@AAEPAV?$basic_string@DU?$char_traits@D@std@@V?$allocator@D@2@@1@QAV21@$$QAV21@@Z 10028d50 f i RTXLevelProperties.obj
 0001:00027f20       ??$_Emplace_reallocate@V?$unique_ptr@VRTXAnchor@@U?$default_delete@VRTXAnchor@@@std@@@std@@@?$vector@V?$unique_ptr@VRTXAnchor@@U?$default_delete@VRTXAnchor@@@std@@@std@@V?$allocator@V?$unique_ptr@VRTXAnchor@@U?$default_delete@VRTXAnchor@@@std@@@std@@@2@@std@@AAEPAV?$unique_ptr@VRTXAnchor@@U?$default_delete@VRTXAnchor@@@std@@@1@QAV21@$$QAV21@@Z 10028f20 f i RTXLevelProperties.obj
 0001:000280c0       ??$_Emplace_reallocate@W4value_t@detail@json_abi_v3_12_0@nlohmann@@@?$vector@V?$basic_json@Vmap@std@@Vvector@2@V?$basic_string@DU?$char_traits@D@std@@V?$allocator@D@2@@2@_N_J_KNVallocator@2@Uadl_serializer@json_abi_v3_12_0@nlohmann@@V?$vector@EV?$allocator@E@std@@@2@X@json_abi_v3_12_0@nlohmann@@V?$allocator@V?$basic_json@Vmap@std@@Vvector@2@V?$basic_string@DU?$char_traits@D@std@@V?$allocator@D@2@@2@_N_J_KNVallocator@2@Uadl_serializer@json_abi_v3_12_0@nlohmann@@V?$vector@EV?$allocator@E@std@@@2@X@json_abi_v3_12_0@nlohmann@@@std@@@std@@AAEPAV?$basic_json@Vmap@std@@Vvector@2@V?$basic_string@DU?$char_traits@D@std@@V?$allocator@D@2@@2@_N_J_KNVallocator@2@Uadl_serializer@json_abi_v3_12_0@nlohmann@@V?$vector@EV?$allocator@E@std@@@2@X@json_abi_v3_12_0@nlohmann@@QAV234@$$QAW4value_t@detail@34@@Z 100290c0 f i RTXLevelProperties.obj
 0001:00028260       ??$_Erase_tree@V?$allocator@U?$_Tree_node@U?$pair@$$CBV?$basic_string@DU?$char_traits@D@std@@V?$allocator@D@2@@std@@V?$basic_json@Vmap@std@@Vvector@2@V?$basic_string@DU?$char_traits@D@std@@V?$allocator@D@2@@2@_N_J_KNVallocator@2@Uadl_serializer@json_abi_v3_12_0@nlohmann@@V?$vector@EV?$allocator@E@std@@@2@X@json_abi_v3_12_0@nlohmann@@@std@@PAX@std@@@std@@@?$_Tree_val@U?$_Tree_simple_types@U?$pair@$$CBV?$basic_string@DU?$char_traits@D@std@@V?$allocator@D@2@@std@@V?$basic_json@Vmap@std@@Vvector@2@V?$basic_string@DU?$char_traits@D@std@@V?$allocator@D@2@@2@_N_J_KNVallocator@2@Uadl_serializer@json_abi_v3_12_0@nlohmann@@V?$vector@EV?$allocator@E@std@@@2@X@json_abi_v3_12_0@nlohmann@@@std@@@std@@@std@@QAEXAAV?$allocator@U?$_Tree_node@U?$pair@$$CBV?$basic_string@DU?$char_traits@D@std@@V?$allocator@D@2@@std@@V?$basic_json@Vmap@std@@Vvector@2@V?$basic_string@DU?$char_traits@D@std@@V?$allocator@D@2@@2@_N_J_KNVallocator@2@Uadl_serializer@json_abi_v3_12_0@nlohmann@@V?$vector@EV?$allocator@E@std@@@2@X@json_abi_v3_12_0@nlohmann@@@std@@PAX@std@@@1@PAU?$_Tree_node@U?$pair@$$CBV?$basic_string@DU?$char_traits@D@std@@V?$allocator@D@2@@std@@V?$basic_json@Vmap@std@@Vvector@2@V?$basic_string@DU?$char_traits@D@std@@V?$allocator@D@2@@2@_N_J_KNVallocator@2@Uadl_serializer@json_abi_v3_12_0@nlohmann@@V?$vector@EV?$allocator@E@std@@@2@X@json_abi_v3_12_0@nlohmann@@@std@@PAX@1@@Z 10029260 f i RTXLevelProperties.obj
 0001:00028320       ??$_Erase_tree_and_orphan@V?$allocator@U?$_Tree_node@U?$pair@$$CBV?$basic_string@DU?$char_traits@D@std@@V?$allocator@D@2@@std@@V?$basic_json@Vmap@std@@Vvector@2@V?$basic_string@DU?$char_traits@D@std@@V?$allocator@D@2@@2@_N_J_KNVallocator@2@Uadl_serializer@json_abi_v3_12_0@nlohmann@@V?$vector@EV?$allocator@E@std@@@2@X@json_abi_v3_12_0@nlohmann@@@std@@PAX@std@@@std@@@?$_Tree_val@U?$_Tree_simple_types@U?$pair@$$CBV?$basic_string@DU?$char_traits@D@std@@V?$allocator@D@2@@std@@V?$basic_json@Vmap@std@@Vvector@2@V?$basic_string@DU?$char_traits@D@std@@V?$allocator@D@2@@2@_N_J_KNVallocator@2@Uadl_serializer@json_abi_v3_12_0@nlohmann@@V?$vector@EV?$allocator@E@std@@@2@X@json_abi_v3_12_0@nlohmann@@@std@@@std@@@std@@QAEXAAV?$allocator@U?$_Tree_node@U?$pair@$$CBV?$basic_string@DU?$char_traits@D@std@@V?$allocator@D@2@@std@@V?$basic_json@Vmap@std@@Vvector@2@V?$basic_string@DU?$char_traits@D@std@@V?$allocator@D@2@@2@_N_J_KNVallocator@2@Uadl_serializer@json_abi_v3_12_0@nlohmann@@V?$vector@EV?$allocator@E@std@@@2@X@json_abi_v3_12_0@nlohmann@@@std@@PAX@std@@@1@PAU?$_Tree_node@U?$pair@$$CBV?$basic_string@DU?$char_traits@D@std@@V?$allocator@D@2@@std@@V?$basic_json@Vmap@std@@Vvector@2@V?$basic_string@DU?$char_traits@D@std@@V?$allocator@D@2@@2@_N_J_KNVallocator@2@Uadl_serializer@json_abi_v3_12_0@nlohmann@@V?$vector@EV?$allocator@E@std@@@2@X@json_abi_v3_12_0@nlohmann@@@std@@PAX@1@@Z 10029320 f i RTXLevelProperties.obj
 0001:000283e0       ??$_Fill_zero_memset@PAI@std@@YAXPAII@Z 100293e0 f i RTXLevelProperties.obj
 0001:00028400       ??$_Find_last@V?$basic_string@DU?$char_traits@D@std@@V?$allocator@D@2@@std@@@?$_Hash@V?$_Umap_traits@V?$basic_string@DU?$char_traits@D@std@@V?$allocator@D@2@@std@@V12@V?$_Uhash_compare@V?$basic_string@DU?$char_traits@D@std@@V?$allocator@D@2@@std@@U?$hash@V?$basic_string@DU?$char_traits@D@std@@V?$allocator@D@2@@std@@@2@U?$equal_to@V?$basic_string@DU?$char_traits@D@std@@V?$allocator@D@2@@std@@@2@@2@V?$allocator@U?$pair@$$CBV?$basic_string@DU?$char_traits@D@std@@V?$allocator@D@2@@std@@V12@@std@@@2@$0A@@std@@@std@@IBE?AU?$_Hash_find_last_result@PAU?$_List_node@U?$pair@$$CBV?$basic_string@DU?$char_traits@D@std@@V?$allocator@D@2@@std@@V12@@std@@PAX@std@@@1@ABV?$basic_string@DU?$char_traits@D@std@@V?$allocator@D@2@@1@I@Z 10029400 f i RTXLevelProperties.obj
 0001:00028490       ??$_Find_last@V?$basic_string@GU?$char_traits@G@std@@V?$allocator@G@2@@std@@@?$_Hash@V?$_Uset_traits@V?$basic_string@GU?$char_traits@G@std@@V?$allocator@G@2@@std@@V?$_Uhash_compare@V?$basic_string@GU?$char_traits@G@std@@V?$allocator@G@2@@std@@U?$hash@V?$basic_string@GU?$char_traits@G@std@@V?$allocator@G@2@@std@@@2@U?$equal_to@V?$basic_string@GU?$char_traits@G@std@@V?$allocator@G@2@@std@@@2@@2@V?$allocator@V?$basic_string@GU?$char_traits@G@std@@V?$allocator@G@2@@std@@@2@$0A@@std@@@std@@IBE?AU?$_Hash_find_last_result@PAU?$_List_node@V?$basic_string@GU?$char_traits@G@std@@V?$allocator@G@2@@std@@PAX@std@@@1@ABV?$basic_string@GU?$char_traits@G@std@@V?$allocator@G@2@@1@I@Z 10029490 f i RTXLevelProperties.obj
 0001:00028530       ??$_Find_last_vectorized@$$CBDD@std@@YAPBDQBD0D@Z 10029530 f i RTXLevelProperties.obj
 0001:00028550       ??$_Find_lower_bound@V?$basic_string@DU?$char_traits@D@std@@V?$allocator@D@2@@std@@@?$_Tree@V?$_Tmap_traits@V?$basic_string@DU?$char_traits@D@std@@V?$allocator@D@2@@std@@V?$basic_json@Vmap@std@@Vvector@2@V?$basic_string@DU?$char_traits@D@std@@V?$allocator@D@2@@2@_N_J_KNVallocator@2@Uadl_serializer@json_abi_v3_12_0@nlohmann@@V?$vector@EV?$allocator@E@std@@@2@X@json_abi_v3_12_0@nlohmann@@U?$less@X@2@V?$allocator@U?$pair@$$CBV?$basic_string@DU?$char_traits@D@std@@V?$allocator@D@2@@std@@V?$basic_json@Vmap@std@@Vvector@2@V?$basic_string@DU?$char_traits@D@std@@V?$allocator@D@2@@2@_N_J_KNVallocator@2@Uadl_serializer@json_abi_v3_12_0@nlohmann@@V?$vector@EV?$allocator@E@std@@@2@X@json_abi_v3_12_0@nlohmann@@@std@@@2@$0A@@std@@@std@@IBE?AU?$_Tree_find_result@PAU?$_Tree_node@U?$pair@$$CBV?$basic_string@DU?$char_traits@D@std@@V?$allocator@D@2@@std@@V?$basic_json@Vmap@std@@Vvector@2@V?$basic_string@DU?$char_traits@D@std@@V?$allocator@D@2@@2@_N_J_KNVallocator@2@Uadl_serializer@json_abi_v3_12_0@nlohmann@@V?$vector@EV?$allocator@E@std@@@2@X@json_abi_v3_12_0@nlohmann@@@std@@PAX@std@@@1@ABV?$basic_string@DU?$char_traits@D@std@@V?$allocator@D@2@@1@@Z 10029550 f i RTXLevelProperties.obj
 0001:000285f0       ??$_Find_vectorized@$$CBDD@std@@YAPBDQBD0D@Z 100295f0 f i RTXLevelProperties.obj
 0001:00028610       ??$_Fputc@D@std@@YA_NDPAU_iobuf@@@Z 10029610 f i RTXLevelProperties.obj
 0001:00028630       ??$_Free_non_head@V?$allocator@U?$_List_node@V?$basic_string@GU?$char_traits@G@std@@V?$allocator@G@2@@std@@PAX@std@@@std@@@?$_List_node@V?$basic_string@GU?$char_traits@G@std@@V?$allocator@G@2@@std@@PAX@std@@SAXAAV?$allocator@U?$_List_node@V?$basic_string@GU?$char_traits@G@std@@V?$allocator@G@2@@std@@PAX@std@@@1@PAU01@@Z 10029630 f i RTXLevelProperties.obj
 0001:000286c0       ??$_Freenode@V?$allocator@U?$_Tree_node@U?$pair@$$CBV?$basic_string@DU?$char_traits@D@std@@V?$allocator@D@2@@std@@V?$basic_json@Vmap@std@@Vvector@2@V?$basic_string@DU?$char_traits@D@std@@V?$allocator@D@2@@2@_N_J_KNVallocator@2@Uadl_serializer@json_abi_v3_12_0@nlohmann@@V?$vector@EV?$allocator@E@std@@@2@X@json_abi_v3_12_0@nlohmann@@@std@@PAX@std@@@std@@@?$_Tree_node@U?$pair@$$CBV?$basic_string@DU?$char_traits@D@std@@V?$allocator@D@2@@std@@V?$basic_json@Vmap@std@@Vvector@2@V?$basic_string@DU?$char_traits@D@std@@V?$allocator@D@2@@2@_N_J_KNVallocator@2@Uadl_serializer@json_abi_v3_12_0@nlohmann@@V?$vector@EV?$allocator@E@std@@@2@X@json_abi_v3_12_0@nlohmann@@@std@@PAX@std@@SAXAAV?$allocator@U?$_Tree_node@U?$pair@$$CBV?$basic_string@DU?$char_traits@D@std@@V?$allocator@D@2@@std@@V?$basic_json@Vmap@std@@Vvector@2@V?$basic_string@DU?$char_traits@D@std@@V?$allocator@D@2@@2@_N_J_KNVallocator@2@Uadl_serializer@json_abi_v3_12_0@nlohmann@@V?$vector@EV?$allocator@E@std@@@2@X@json_abi_v3_12_0@nlohmann@@@std@@PAX@std@@@1@PAU01@@Z 100296c0 f i RTXLevelProperties.obj
 0001:00028760       ??$_Hash_array_representation@D@std@@YAIQBDI@Z 10029760 f i RTXLevelProperties.obj
 0001:00028790       ??$_Integral_to_string@DH@std@@YA?AV?$basic_string@DU?$char_traits@D@std@@V?$allocator@D@2@@0@H@Z 10029790 f i RTXLevelProperties.obj
 0001:00028830       ??$_Integral_to_string@DI@std@@YA?AV?$basic_string@DU?$char_traits@D@std@@V?$allocator@D@2@@0@I@Z 10029830 f i RTXLevelProperties.obj
 0001:000288b0       ??$_Is_all_bits_zero@I@std@@YA_NABI@Z 100298b0 f i RTXLevelProperties.obj
 0001:000288d0       ??$_Reallocate_grow_by@V<lambda_1>@?1??replace@?$basic_string@DU?$char_traits@D@std@@V?$allocator@D@2@@std@@QAEAAV34@IIQBDI@Z@IIPBDI@?$basic_string@DU?$char_traits@D@std@@V?$allocator@D@2@@std@@AAEAAV01@IV<lambda_1>@?1??replace@01@QAEAAV01@IIQBDI@Z@IIPBDI@Z 100298d0 f i RTXLevelProperties.obj
 0001:00028a10       ??$_Resize@I@?$vector@IV?$allocator@I@std@@@std@@AAEXIABI@Z 10029a10 f i RTXLevelProperties.obj
 0001:00028ba0       ??$_Traits_compare@U?$char_traits@D@std@@@std@@YAHQBDI0I@Z 10029ba0 f i RTXLevelProperties.obj
 0001:00028c30       ??$_Traits_equal@U?$char_traits@D@std@@@std@@YA_NQBDI0I@Z 10029c30 f i RTXLevelProperties.obj
 0001:00028cb0       ??$_Try_emplace@ABV?$basic_string@DU?$char_traits@D@std@@V?$allocator@D@2@@std@@$$V@?$_Hash@V?$_Umap_traits@V?$basic_string@DU?$char_traits@D@std@@V?$allocator@D@2@@std@@V12@V?$_Uhash_compare@V?$basic_string@DU?$char_traits@D@std@@V?$allocator@D@2@@std@@U?$hash@V?$basic_string@DU?$char_traits@D@std@@V?$allocator@D@2@@std@@@2@U?$equal_to@V?$basic_string@DU?$char_traits@D@std@@V?$allocator@D@2@@std@@@2@@2@V?$allocator@U?$pair@$$CBV?$basic_string@DU?$char_traits@D@std@@V?$allocator@D@2@@std@@V12@@std@@@2@$0A@@std@@@std@@IAE?AU?$pair@PAU?$_List_node@U?$pair@$$CBV?$basic_string@DU?$char_traits@D@std@@V?$allocator@D@2@@std@@V12@@std@@PAX@std@@_N@1@ABV?$basic_string@DU?$char_traits@D@std@@V?$allocator@D@2@@1@@Z 10029cb0 f i RTXLevelProperties.obj
 0001:00028ed0       ??$_UIntegral_to_buff@DI@std@@YAPADPADI@Z 10029ed0 f i RTXLevelProperties.obj
 0001:00028f10       ??$_Uninitialized_fill_n@V?$allocator@I@std@@@std@@YAPAIPAIIABIAAV?$allocator@I@0@@Z 10029f10 f i RTXLevelProperties.obj
 0001:00028f60       ??$_Uninitialized_move@PAV?$basic_json@Vmap@std@@Vvector@2@V?$basic_string@DU?$char_traits@D@std@@V?$allocator@D@2@@2@_N_J_KNVallocator@2@Uadl_serializer@json_abi_v3_12_0@nlohmann@@V?$vector@EV?$allocator@E@std@@@2@X@json_abi_v3_12_0@nlohmann@@V?$allocator@V?$basic_json@Vmap@std@@Vvector@2@V?$basic_string@DU?$char_traits@D@std@@V?$allocator@D@2@@2@_N_J_KNVallocator@2@Uadl_serializer@json_abi_v3_12_0@nlohmann@@V?$vector@EV?$allocator@E@std@@@2@X@json_abi_v3_12_0@nlohmann@@@std@@@std@@YAPAV?$basic_json@Vmap@std@@Vvector@2@V?$basic_string@DU?$char_traits@D@std@@V?$allocator@D@2@@2@_N_J_KNVallocator@2@Uadl_serializer@json_abi_v3_12_0@nlohmann@@V?$vector@EV?$allocator@E@std@@@2@X@json_abi_v3_12_0@nlohmann@@QAV123@0PAV123@AAV?$allocator@V?$basic_json@Vmap@std@@Vvector@2@V?$basic_string@DU?$char_traits@D@std@@V?$allocator@D@2@@2@_N_J_KNVallocator@2@Uadl_serializer@json_abi_v3_12_0@nlohmann@@V?$vector@EV?$allocator@E@std@@@2@X@json_abi_v3_12_0@nlohmann@@@0@@Z 10029f60 f i RTXLevelProperties.obj
 0001:00029010       ??$_Uninitialized_move@PAV?$basic_string@DU?$char_traits@D@std@@V?$allocator@D@2@@std@@V?$allocator@V?$basic_string@DU?$char_traits@D@std@@V?$allocator@D@2@@std@@@2@@std@@YAPAV?$basic_string@DU?$char_traits@D@std@@V?$allocator@D@2@@0@QAV10@0PAV10@AAV?$allocator@V?$basic_string@DU?$char_traits@D@std@@V?$allocator@D@2@@std@@@0@@Z 1002a010 f i RTXLevelProperties.obj
 0001:000290d0       ??$_Uninitialized_move@PAV?$unique_ptr@VRTXAnchor@@U?$default_delete@VRTXAnchor@@@std@@@std@@V?$allocator@V?$unique_ptr@VRTXAnchor@@U?$default_delete@VRTXAnchor@@@std@@@std@@@2@@std@@YAPAV?$unique_ptr@VRTXAnchor@@U?$default_delete@VRTXAnchor@@@std@@@0@QAV10@0PAV10@AAV?$allocator@V?$unique_ptr@VRTXAnchor@@U?$default_delete@VRTXAnchor@@@std@@@std@@@0@@Z 1002a0d0 f i RTXLevelProperties.obj
 0001:00029160       ??$at@AAY04$$CBD$0A@@?$basic_json@Vmap@std@@Vvector@2@V?$basic_string@DU?$char_traits@D@std@@V?$allocator@D@2@@2@_N_J_KNVallocator@2@Uadl_serializer@json_abi_v3_12_0@nlohmann@@V?$vector@EV?$allocator@E@std@@@2@X@json_abi_v3_12_0@nlohmann@@QAEAAV012@AAY04$$CBD@Z 1002a160 f i RTXLevelProperties.obj
 0001:000292f0       ??$at@AAY05$$CBD$0A@@?$basic_json@Vmap@std@@Vvector@2@V?$basic_string@DU?$char_traits@D@std@@V?$allocator@D@2@@2@_N_J_KNVallocator@2@Uadl_serializer@json_abi_v3_12_0@nlohmann@@V?$vector@EV?$allocator@E@std@@@2@X@json_abi_v3_12_0@nlohmann@@QAEAAV012@AAY05$$CBD@Z 1002a2f0 f i RTXLevelProperties.obj
 0001:000293f0       ??$at@AAY07$$CBD$0A@@?$basic_json@Vmap@std@@Vvector@2@V?$basic_string@DU?$char_traits@D@std@@V?$allocator@D@2@@2@_N_J_KNVallocator@2@Uadl_serializer@json_abi_v3_12_0@nlohmann@@V?$vector@EV?$allocator@E@std@@@2@X@json_abi_v3_12_0@nlohmann@@QAEAAV012@AAY07$$CBD@Z 1002a3f0 f i RTXLevelProperties.obj
 0001:00029580       ??$at@AAY08$$CBD$0A@@?$basic_json@Vmap@std@@Vvector@2@V?$basic_string@DU?$char_traits@D@std@@V?$allocator@D@2@@2@_N_J_KNVallocator@2@Uadl_serializer@json_abi_v3_12_0@nlohmann@@V?$vector@EV?$allocator@E@std@@@2@X@json_abi_v3_12_0@nlohmann@@QAEAAV012@AAY08$$CBD@Z 1002a580 f i RTXLevelProperties.obj
 0001:00029680       ??$at@AAY09$$CBD$0A@@?$basic_json@Vmap@std@@Vvector@2@V?$basic_string@DU?$char_traits@D@std@@V?$allocator@D@2@@2@_N_J_KNVallocator@2@Uadl_serializer@json_abi_v3_12_0@nlohmann@@V?$vector@EV?$allocator@E@std@@@2@X@json_abi_v3_12_0@nlohmann@@QAEAAV012@AAY09$$CBD@Z 1002a680 f i RTXLevelProperties.obj
 0001:00029780       ??$at@AAY0O@$$CBD$0A@@?$basic_json@Vmap@std@@Vvector@2@V?$basic_string@DU?$char_traits@D@std@@V?$allocator@D@2@@2@_N_J_KNVallocator@2@Uadl_serializer@json_abi_v3_12_0@nlohmann@@V?$vector@EV?$allocator@E@std@@@2@X@json_abi_v3_12_0@nlohmann@@QAEAAV012@AAY0O@$$CBD@Z 1002a780 f i RTXLevelProperties.obj
 0001:00029880       ??$compute_boundaries@N@dtoa_impl@detail@json_abi_v3_12_0@nlohmann@@YA?AUboundaries@0123@N@Z 1002a880 f i RTXLevelProperties.obj
 0001:000299b0       ??$concat@V?$basic_string@DU?$char_traits@D@std@@V?$allocator@D@2@@std@@AAY05$$CBDV12@AAY0M@$$CBD@detail@json_abi_v3_12_0@nlohmann@@YA?AV?$basic_string@DU?$char_traits@D@std@@V?$allocator@D@2@@std@@AAY05$$CBD$$QAV34@AAY0M@$$CBD@Z 1002a9b0 f i RTXLevelProperties.obj
 0001:00029aa0       ??$concat@V?$basic_string@DU?$char_traits@D@std@@V?$allocator@D@2@@std@@AAY0BB@$$CBDABV12@DV12@AAY02$$CBD@detail@json_abi_v3_12_0@nlohmann@@YA?AV?$basic_string@DU?$char_traits@D@std@@V?$allocator@D@2@@std@@AAY0BB@$$CBDABV34@$$QAD$$QAV34@AAY02$$CBD@Z 1002aaa0 f i RTXLevelProperties.obj
 0001:00029cc0       ??$concat@V?$basic_string@DU?$char_traits@D@std@@V?$allocator@D@2@@std@@AAY0BG@$$CBDPBD@detail@json_abi_v3_12_0@nlohmann@@YA?AV?$basic_string@DU?$char_traits@D@std@@V?$allocator@D@2@@std@@AAY0BG@$$CBD$$QAPBD@Z 1002acc0 f i RTXLevelProperties.obj
 0001:00029db0       ??$concat@V?$basic_string@DU?$char_traits@D@std@@V?$allocator@D@2@@std@@AAY0BH@$$CBDV12@@detail@json_abi_v3_12_0@nlohmann@@YA?AV?$basic_string@DU?$char_traits@D@std@@V?$allocator@D@2@@std@@AAY0BH@$$CBD$$QAV34@@Z 1002adb0 f i RTXLevelProperties.obj
 0001:00029e80       ??$concat@V?$basic_string@DU?$char_traits@D@std@@V?$allocator@D@2@@std@@AAY0BI@$$CBDV12@@detail@json_abi_v3_12_0@nlohmann@@YA?AV?$basic_string@DU?$char_traits@D@std@@V?$allocator@D@2@@std@@AAY0BI@$$CBD$$QAV34@@Z 1002ae80 f i RTXLevelProperties.obj
 0001:00029f50       ??$concat@V?$basic_string@DU?$char_traits@D@std@@V?$allocator@D@2@@std@@AAY0BJ@$$CBDPBD@detail@json_abi_v3_12_0@nlohmann@@YA?AV?$basic_string@DU?$char_traits@D@std@@V?$allocator@D@2@@std@@AAY0BJ@$$CBD$$QAPBD@Z 1002af50 f i RTXLevelProperties.obj
 0001:0002a040       ??$concat@V?$basic_string@DU?$char_traits@D@std@@V?$allocator@D@2@@std@@AAY0BK@$$CBDV12@D@detail@json_abi_v3_12_0@nlohmann@@YA?AV?$basic_string@DU?$char_traits@D@std@@V?$allocator@D@2@@std@@AAY0BK@$$CBD$$QAV34@$$QAD@Z 1002b040 f i RTXLevelProperties.obj
 0001:0002a230       ??$concat@V?$basic_string@DU?$char_traits@D@std@@V?$allocator@D@2@@std@@AAY0BN@$$CBDPBD@detail@json_abi_v3_12_0@nlohmann@@YA?AV?$basic_string@DU?$char_traits@D@std@@V?$allocator@D@2@@std@@AAY0BN@$$CBD$$QAPBD@Z 1002b230 f i RTXLevelProperties.obj
 0001:0002a320       ??$concat@V?$basic_string@DU?$char_traits@D@std@@V?$allocator@D@2@@std@@AAY0BN@$$CBDV12@AAY04$$CBDV12@@detail@json_abi_v3_12_0@nlohmann@@YA?AV?$basic_string@DU?$char_traits@D@std@@V?$allocator@D@2@@std@@AAY0BN@$$CBD$$QAV34@AAY04$$CBD1@Z 1002b320 f i RTXLevelProperties.obj
 0001:0002a440       ??$concat@V?$basic_string@DU?$char_traits@D@std@@V?$allocator@D@2@@std@@AAY0BO@$$CBDPBD@detail@json_abi_v3_12_0@nlohmann@@YA?AV?$basic_string@DU?$char_traits@D@std@@V?$allocator@D@2@@std@@AAY0BO@$$CBD$$QAPBD@Z 1002b440 f i RTXLevelProperties.obj
 0001:0002a530       ??$concat@V?$basic_string@DU?$char_traits@D@std@@V?$allocator@D@2@@std@@AAY0CH@$$CBDV12@@detail@json_abi_v3_12_0@nlohmann@@YA?AV?$basic_string@DU?$char_traits@D@std@@V?$allocator@D@2@@std@@AAY0CH@$$CBD$$QAV34@@Z 1002b530 f i RTXLevelProperties.obj
 0001:0002a600       ??$concat@V?$basic_string@DU?$char_traits@D@std@@V?$allocator@D@2@@std@@AAY0DD@$$CBDPBD@detail@json_abi_v3_12_0@nlohmann@@YA?AV?$basic_string@DU?$char_traits@D@std@@V?$allocator@D@2@@std@@AAY0DD@$$CBD$$QAPBD@Z 1002b600 f i RTXLevelProperties.obj
 0001:0002a6f0       ??$concat@V?$basic_string@DU?$char_traits@D@std@@V?$allocator@D@2@@std@@AAY0N@$$CBDV12@AAY0BB@$$CBD@detail@json_abi_v3_12_0@nlohmann@@YA?AV?$basic_string@DU?$char_traits@D@std@@V?$allocator@D@2@@std@@AAY0N@$$CBD$$QAV34@AAY0BB@$$CBD@Z 1002b6f0 f i RTXLevelProperties.obj
 0001:0002a7e0       ??$concat@V?$basic_string@DU?$char_traits@D@std@@V?$allocator@D@2@@std@@AAY0P@$$CBDABV12@D@detail@json_abi_v3_12_0@nlohmann@@YA?AV?$basic_string@DU?$char_traits@D@std@@V?$allocator@D@2@@std@@AAY0P@$$CBDABV34@$$QAD@Z 1002b7e0 f i RTXLevelProperties.obj
 0001:0002a9d0       ??$concat@V?$basic_string@DU?$char_traits@D@std@@V?$allocator@D@2@@std@@PBDAAY0P@$$CBDV12@D@detail@json_abi_v3_12_0@nlohmann@@YA?AV?$basic_string@DU?$char_traits@D@std@@V?$allocator@D@2@@std@@$$QAPBDAAY0P@$$CBD$$QAV34@$$QAD@Z 1002b9d0 f i RTXLevelProperties.obj
 0001:0002abf0       ??$concat@V?$basic_string@DU?$char_traits@D@std@@V?$allocator@D@2@@std@@V12@AAY0M@$$CBDV12@AAY02$$CBDV12@ABV12@@detail@json_abi_v3_12_0@nlohmann@@YA?AV?$basic_string@DU?$char_traits@D@std@@V?$allocator@D@2@@std@@$$QAV34@AAY0M@$$CBD0AAY02$$CBD0ABV34@@Z 1002bbf0 f i RTXLevelProperties.obj
 0001:0002ad50       ??$concat@V?$basic_string@DU?$char_traits@D@std@@V?$allocator@D@2@@std@@V12@V12@ABV12@@detail@json_abi_v3_12_0@nlohmann@@YA?AV?$basic_string@DU?$char_traits@D@std@@V?$allocator@D@2@@std@@$$QAV34@0ABV34@@Z 1002bd50 f i RTXLevelProperties.obj
 0001:0002ae20       ??$create@$$T$0A@@other_error@detail@json_abi_v3_12_0@nlohmann@@SA?AV0123@HABV?$basic_string@DU?$char_traits@D@std@@V?$allocator@D@2@@std@@$$T@Z 1002be20 f i RTXLevelProperties.obj
 0001:0002b040       ??$create@$$T$0A@@out_of_range@detail@json_abi_v3_12_0@nlohmann@@SA?AV0123@HABV?$basic_string@DU?$char_traits@D@std@@V?$allocator@D@2@@std@@$$T@Z 1002c040 f i RTXLevelProperties.obj
 0001:0002b260       ??$create@$$T$0A@@parse_error@detail@json_abi_v3_12_0@nlohmann@@SA?AV0123@HABUposition_t@123@ABV?$basic_string@DU?$char_traits@D@std@@V?$allocator@D@2@@std@@$$T@Z 1002c260 f i RTXLevelProperties.obj
 0001:0002b6b0       ??$create@$$T$0A@@type_error@detail@json_abi_v3_12_0@nlohmann@@SA?AV0123@HABV?$basic_string@DU?$char_traits@D@std@@V?$allocator@D@2@@std@@$$T@Z 1002c6b0 f i RTXLevelProperties.obj
 0001:0002b8d0       ??$create@PAV?$basic_json@Vmap@std@@Vvector@2@V?$basic_string@DU?$char_traits@D@std@@V?$allocator@D@2@@2@_N_J_KNVallocator@2@Uadl_serializer@json_abi_v3_12_0@nlohmann@@V?$vector@EV?$allocator@E@std@@@2@X@json_abi_v3_12_0@nlohmann@@$0A@@invalid_iterator@detail@json_abi_v3_12_0@nlohmann@@SA?AV0123@HABV?$basic_string@DU?$char_traits@D@std@@V?$allocator@D@2@@std@@PAV?$basic_json@Vmap@std@@Vvector@2@V?$basic_string@DU?$char_traits@D@std@@V?$allocator@D@2@@2@_N_J_KNVallocator@2@Uadl_serializer@json_abi_v3_12_0@nlohmann@@V?$vector@EV?$allocator@E@std@@@2@X@23@@Z 1002c8d0 f i RTXLevelProperties.obj
 0001:0002bb00       ??$create@PAV?$basic_json@Vmap@std@@Vvector@2@V?$basic_string@DU?$char_traits@D@std@@V?$allocator@D@2@@2@_N_J_KNVallocator@2@Uadl_serializer@json_abi_v3_12_0@nlohmann@@V?$vector@EV?$allocator@E@std@@@2@X@json_abi_v3_12_0@nlohmann@@$0A@@out_of_range@detail@json_abi_v3_12_0@nlohmann@@SA?AV0123@HABV?$basic_string@DU?$char_traits@D@std@@V?$allocator@D@2@@std@@PAV?$basic_json@Vmap@std@@Vvector@2@V?$basic_string@DU?$char_traits@D@std@@V?$allocator@D@2@@2@_N_J_KNVallocator@2@Uadl_serializer@json_abi_v3_12_0@nlohmann@@V?$vector@EV?$allocator@E@std@@@2@X@23@@Z 1002cb00 f i RTXLevelProperties.obj
 0001:0002bd30       ??$create@PAV?$basic_json@Vmap@std@@Vvector@2@V?$basic_string@DU?$char_traits@D@std@@V?$allocator@D@2@@2@_N_J_KNVallocator@2@Uadl_serializer@json_abi_v3_12_0@nlohmann@@V?$vector@EV?$allocator@E@std@@@2@X@json_abi_v3_12_0@nlohmann@@$0A@@type_error@detail@json_abi_v3_12_0@nlohmann@@SA?AV0123@HABV?$basic_string@DU?$char_traits@D@std@@V?$allocator@D@2@@std@@PAV?$basic_json@Vmap@std@@Vvector@2@V?$basic_string@DU?$char_traits@D@std@@V?$allocator@D@2@@2@_N_J_KNVallocator@2@Uadl_serializer@json_abi_v3_12_0@nlohmann@@V?$vector@EV?$allocator@E@std@@@2@X@23@@Z 1002cd30 f i RTXLevelProperties.obj
 0001:0002bf60       ??$create@PBV?$basic_json@Vmap@std@@Vvector@2@V?$basic_string@DU?$char_traits@D@std@@V?$allocator@D@2@@2@_N_J_KNVallocator@2@Uadl_serializer@json_abi_v3_12_0@nlohmann@@V?$vector@EV?$allocator@E@std@@@2@X@json_abi_v3_12_0@nlohmann@@$0A@@out_of_range@detail@json_abi_v3_12_0@nlohmann@@SA?AV0123@HABV?$basic_string@DU?$char_traits@D@std@@V?$allocator@D@2@@std@@PBV?$basic_json@Vmap@std@@Vvector@2@V?$basic_string@DU?$char_traits@D@std@@V?$allocator@D@2@@2@_N_J_KNVallocator@2@Uadl_serializer@json_abi_v3_12_0@nlohmann@@V?$vector@EV?$allocator@E@std@@@2@X@23@@Z 1002cf60 f i RTXLevelProperties.obj
 0001:0002c190       ??$create@PBV?$basic_json@Vmap@std@@Vvector@2@V?$basic_string@DU?$char_traits@D@std@@V?$allocator@D@2@@2@_N_J_KNVallocator@2@Uadl_serializer@json_abi_v3_12_0@nlohmann@@V?$vector@EV?$allocator@E@std@@@2@X@json_abi_v3_12_0@nlohmann@@$0A@@type_error@detail@json_abi_v3_12_0@nlohmann@@SA?AV0123@HABV?$basic_string@DU?$char_traits@D@std@@V?$allocator@D@2@@std@@PBV?$basic_json@Vmap@std@@Vvector@2@V?$basic_string@DU?$char_traits@D@std@@V?$allocator@D@2@@2@_N_J_KNVallocator@2@Uadl_serializer@json_abi_v3_12_0@nlohmann@@V?$vector@EV?$allocator@E@std@@@2@X@23@@Z 1002d190 f i RTXLevelProperties.obj
 0001:0002c3c0       ??$create@V?$map@V?$basic_string@DU?$char_traits@D@std@@V?$allocator@D@2@@std@@V?$basic_json@Vmap@std@@Vvector@2@V?$basic_string@DU?$char_traits@D@std@@V?$allocator@D@2@@2@_N_J_KNVallocator@2@Uadl_serializer@json_abi_v3_12_0@nlohmann@@V?$vector@EV?$allocator@E@std@@@2@X@json_abi_v3_12_0@nlohmann@@U?$less@X@2@V?$allocator@U?$pair@$$CBV?$basic_string@DU?$char_traits@D@std@@V?$allocator@D@2@@std@@V?$basic_json@Vmap@std@@Vvector@2@V?$basic_string@DU?$char_traits@D@std@@V?$allocator@D@2@@2@_N_J_KNVallocator@2@Uadl_serializer@json_abi_v3_12_0@nlohmann@@V?$vector@EV?$allocator@E@std@@@2@X@json_abi_v3_12_0@nlohmann@@@std@@@2@@std@@$$V@?$basic_json@Vmap@std@@Vvector@2@V?$basic_string@DU?$char_traits@D@std@@V?$allocator@D@2@@2@_N_J_KNVallocator@2@Uadl_serializer@json_abi_v3_12_0@nlohmann@@V?$vector@EV?$allocator@E@std@@@2@X@json_abi_v3_12_0@nlohmann@@CAPAV?$map@V?$basic_string@DU?$char_traits@D@std@@V?$allocator@D@2@@std@@V?$basic_json@Vmap@std@@Vvector@2@V?$basic_string@DU?$char_traits@D@std@@V?$allocator@D@2@@2@_N_J_KNVallocator@2@Uadl_serializer@json_abi_v3_12_0@nlohmann@@V?$vector@EV?$allocator@E@std@@@2@X@json_abi_v3_12_0@nlohmann@@U?$less@X@2@V?$allocator@U?$pair@$$CBV?$basic_string@DU?$char_traits@D@std@@V?$allocator@D@2@@std@@V?$basic_json@Vmap@std@@Vvector@2@V?$basic_string@DU?$char_traits@D@std@@V?$allocator@D@2@@2@_N_J_KNVallocator@2@Uadl_serializer@json_abi_v3_12_0@nlohmann@@V?$vector@EV?$allocator@E@std@@@2@X@json_abi_v3_12_0@nlohmann@@@std@@@2@@std@@XZ 1002d3c0 f i RTXLevelProperties.obj
 0001:0002c450       ??$destroy@U?$pair@$$CBV?$basic_string@DU?$char_traits@D@std@@V?$allocator@D@2@@std@@V?$basic_json@Vmap@std@@Vvector@2@V?$basic_string@DU?$char_traits@D@std@@V?$allocator@D@2@@2@_N_J_KNVallocator@2@Uadl_serializer@json_abi_v3_12_0@nlohmann@@V?$vector@EV?$allocator@E@std@@@2@X@json_abi_v3_12_0@nlohmann@@@std@@@?$_Default_allocator_traits@V?$allocator@U?$_Tree_node@U?$pair@$$CBV?$basic_string@DU?$char_traits@D@std@@V?$allocator@D@2@@std@@V?$basic_json@Vmap@std@@Vvector@2@V?$basic_string@DU?$char_traits@D@std@@V?$allocator@D@2@@2@_N_J_KNVallocator@2@Uadl_serializer@json_abi_v3_12_0@nlohmann@@V?$vector@EV?$allocator@E@std@@@2@X@json_abi_v3_12_0@nlohmann@@@std@@PAX@std@@@std@@@std@@SAXAAV?$allocator@U?$_Tree_node@U?$pair@$$CBV?$basic_string@DU?$char_traits@D@std@@V?$allocator@D@2@@std@@V?$basic_json@Vmap@std@@Vvector@2@V?$basic_string@DU?$char_traits@D@std@@V?$allocator@D@2@@2@_N_J_KNVallocator@2@Uadl_serializer@json_abi_v3_12_0@nlohmann@@V?$vector@EV?$allocator@E@std@@@2@X@json_abi_v3_12_0@nlohmann@@@std@@PAX@std@@@1@QAU?$pair@$$CBV?$basic_string@DU?$char_traits@D@std@@V?$allocator@D@2@@std@@V?$basic_json@Vmap@std@@Vvector@2@V?$basic_string@DU?$char_traits@D@std@@V?$allocator@D@2@@2@_N_J_KNVallocator@2@Uadl_serializer@json_abi_v3_12_0@nlohmann@@V?$vector@EV?$allocator@E@std@@@2@X@json_abi_v3_12_0@nlohmann@@@1@@Z 1002d450 f i RTXLevelProperties.obj
 0001:0002c4d0       ??$destroy@V?$basic_string@DU?$char_traits@D@std@@V?$allocator@D@2@@std@@@?$_Default_allocator_traits@V?$allocator@V?$basic_string@DU?$char_traits@D@std@@V?$allocator@D@2@@std@@@std@@@std@@SAXAAV?$allocator@V?$basic_string@DU?$char_traits@D@std@@V?$allocator@D@2@@std@@@1@QAV?$basic_string@DU?$char_traits@D@std@@V?$allocator@D@2@@1@@Z 1002d4d0 f i RTXLevelProperties.obj
 0001:0002c500       ??$dump_integer@E$0A@@?$serializer@V?$basic_json@Vmap@std@@Vvector@2@V?$basic_string@DU?$char_traits@D@std@@V?$allocator@D@2@@2@_N_J_KNVallocator@2@Uadl_serializer@json_abi_v3_12_0@nlohmann@@V?$vector@EV?$allocator@E@std@@@2@X@json_abi_v3_12_0@nlohmann@@@detail@json_abi_v3_12_0@nlohmann@@AAEXE@Z 1002d500 f i RTXLevelProperties.obj
 0001:0002c660       ??$dump_integer@_K$0A@@?$serializer@V?$basic_json@Vmap@std@@Vvector@2@V?$basic_string@DU?$char_traits@D@std@@V?$allocator@D@2@@2@_N_J_KNVallocator@2@Uadl_serializer@json_abi_v3_12_0@nlohmann@@V?$vector@EV?$allocator@E@std@@@2@X@json_abi_v3_12_0@nlohmann@@@detail@json_abi_v3_12_0@nlohmann@@AAEX_K@Z 1002d660 f i RTXLevelProperties.obj
 0001:0002c7c0       ??$emplace@V?$basic_string@GU?$char_traits@G@std@@V?$allocator@G@2@@std@@@?$_Hash@V?$_Uset_traits@V?$basic_string@GU?$char_traits@G@std@@V?$allocator@G@2@@std@@V?$_Uhash_compare@V?$basic_string@GU?$char_traits@G@std@@V?$allocator@G@2@@std@@U?$hash@V?$basic_string@GU?$char_traits@G@std@@V?$allocator@G@2@@std@@@2@U?$equal_to@V?$basic_string@GU?$char_traits@G@std@@V?$allocator@G@2@@std@@@2@@2@V?$allocator@V?$basic_string@GU?$char_traits@G@std@@V?$allocator@G@2@@std@@@2@$0A@@std@@@std@@QAE?AU?$pair@V?$_List_const_iterator@V?$_List_val@U?$_List_simple_types@V?$basic_string@GU?$char_traits@G@std@@V?$allocator@G@2@@std@@@std@@@std@@@std@@_N@1@$$QAV?$basic_string@GU?$char_traits@G@std@@V?$allocator@G@2@@1@@Z 1002d7c0 f i RTXLevelProperties.obj
 0001:0002c9f0       ??$emplace_back@$$T@?$vector@V?$basic_json@Vmap@std@@Vvector@2@V?$basic_string@DU?$char_traits@D@std@@V?$allocator@D@2@@2@_N_J_KNVallocator@2@Uadl_serializer@json_abi_v3_12_0@nlohmann@@V?$vector@EV?$allocator@E@std@@@2@X@json_abi_v3_12_0@nlohmann@@V?$allocator@V?$basic_json@Vmap@std@@Vvector@2@V?$basic_string@DU?$char_traits@D@std@@V?$allocator@D@2@@2@_N_J_KNVallocator@2@Uadl_serializer@json_abi_v3_12_0@nlohmann@@V?$vector@EV?$allocator@E@std@@@2@X@json_abi_v3_12_0@nlohmann@@@std@@@std@@QAEAAV?$basic_json@Vmap@std@@Vvector@2@V?$basic_string@DU?$char_traits@D@std@@V?$allocator@D@2@@2@_N_J_KNVallocator@2@Uadl_serializer@json_abi_v3_12_0@nlohmann@@V?$vector@EV?$allocator@E@std@@@2@X@json_abi_v3_12_0@nlohmann@@$$QA$$T@Z 1002d9f0 f i RTXLevelProperties.obj
 0001:0002ca70       ??$emplace_back@AAN@?$vector@V?$basic_json@Vmap@std@@Vvector@2@V?$basic_string@DU?$char_traits@D@std@@V?$allocator@D@2@@2@_N_J_KNVallocator@2@Uadl_serializer@json_abi_v3_12_0@nlohmann@@V?$vector@EV?$allocator@E@std@@@2@X@json_abi_v3_12_0@nlohmann@@V?$allocator@V?$basic_json@Vmap@std@@Vvector@2@V?$basic_string@DU?$char_traits@D@std@@V?$allocator@D@2@@2@_N_J_KNVallocator@2@Uadl_serializer@json_abi_v3_12_0@nlohmann@@V?$vector@EV?$allocator@E@std@@@2@X@json_abi_v3_12_0@nlohmann@@@std@@@std@@QAEAAV?$basic_json@Vmap@std@@Vvector@2@V?$basic_string@DU?$char_traits@D@std@@V?$allocator@D@2@@2@_N_J_KNVallocator@2@Uadl_serializer@json_abi_v3_12_0@nlohmann@@V?$vector@EV?$allocator@E@std@@@2@X@json_abi_v3_12_0@nlohmann@@AAN@Z 1002da70 f i RTXLevelProperties.obj
 0001:0002cb30       ??$emplace_back@AA_J@?$vector@V?$basic_json@Vmap@std@@Vvector@2@V?$basic_string@DU?$char_traits@D@std@@V?$allocator@D@2@@2@_N_J_KNVallocator@2@Uadl_serializer@json_abi_v3_12_0@nlohmann@@V?$vector@EV?$allocator@E@std@@@2@X@json_abi_v3_12_0@nlohmann@@V?$allocator@V?$basic_json@Vmap@std@@Vvector@2@V?$basic_string@DU?$char_traits@D@std@@V?$allocator@D@2@@2@_N_J_KNVallocator@2@Uadl_serializer@json_abi_v3_12_0@nlohmann@@V?$vector@EV?$allocator@E@std@@@2@X@json_abi_v3_12_0@nlohmann@@@std@@@std@@QAEAAV?$basic_json@Vmap@std@@Vvector@2@V?$basic_string@DU?$char_traits@D@std@@V?$allocator@D@2@@2@_N_J_KNVallocator@2@Uadl_serializer@json_abi_v3_12_0@nlohmann@@V?$vector@EV?$allocator@E@std@@@2@X@json_abi_v3_12_0@nlohmann@@AA_J@Z 1002db30 f i RTXLevelProperties.obj
 0001:0002cbf0       ??$emplace_back@AA_K@?$vector@V?$basic_json@Vmap@std@@Vvector@2@V?$basic_string@DU?$char_traits@D@std@@V?$allocator@D@2@@2@_N_J_KNVallocator@2@Uadl_serializer@json_abi_v3_12_0@nlohmann@@V?$vector@EV?$allocator@E@std@@@2@X@json_abi_v3_12_0@nlohmann@@V?$allocator@V?$basic_json@Vmap@std@@Vvector@2@V?$basic_string@DU?$char_traits@D@std@@V?$allocator@D@2@@2@_N_J_KNVallocator@2@Uadl_serializer@json_abi_v3_12_0@nlohmann@@V?$vector@EV?$allocator@E@std@@@2@X@json_abi_v3_12_0@nlohmann@@@std@@@std@@QAEAAV?$basic_json@Vmap@std@@Vvector@2@V?$basic_string@DU?$char_traits@D@std@@V?$allocator@D@2@@2@_N_J_KNVallocator@2@Uadl_serializer@json_abi_v3_12_0@nlohmann@@V?$vector@EV?$allocator@E@std@@@2@X@json_abi_v3_12_0@nlohmann@@AA_K@Z 1002dbf0 f i RTXLevelProperties.obj
 0001:0002ccb0       ??$erase@V?$iter_impl@V?$basic_json@Vmap@std@@Vvector@2@V?$basic_string@DU?$char_traits@D@std@@V?$allocator@D@2@@2@_N_J_KNVallocator@2@Uadl_serializer@json_abi_v3_12_0@nlohmann@@V?$vector@EV?$allocator@E@std@@@2@X@json_abi_v3_12_0@nlohmann@@@detail@json_abi_v3_12_0@nlohmann@@$0A@@?$basic_json@Vmap@std@@Vvector@2@V?$basic_string@DU?$char_traits@D@std@@V?$allocator@D@2@@2@_N_J_KNVallocator@2@Uadl_serializer@json_abi_v3_12_0@nlohmann@@V?$vector@EV?$allocator@E@std@@@2@X@json_abi_v3_12_0@nlohmann@@QAE?AV?$iter_impl@V?$basic_json@Vmap@std@@Vvector@2@V?$basic_string@DU?$char_traits@D@std@@V?$allocator@D@2@@2@_N_J_KNVallocator@2@Uadl_serializer@json_abi_v3_12_0@nlohmann@@V?$vector@EV?$allocator@E@std@@@2@X@json_abi_v3_12_0@nlohmann@@@detail@12@V3412@@Z 1002dcb0 f i RTXLevelProperties.obj
 0001:0002cf50       ??$fill@PAV?$_List_unchecked_iterator@V?$_List_val@U?$_List_simple_types@U?$pair@$$CBV?$basic_string@DU?$char_traits@D@std@@V?$allocator@D@2@@std@@V12@@std@@@std@@@std@@@std@@V12@@std@@YAXQAV?$_List_unchecked_iterator@V?$_List_val@U?$_List_simple_types@U?$pair@$$CBV?$basic_string@DU?$char_traits@D@std@@V?$allocator@D@2@@std@@V12@@std@@@std@@@std@@@0@0ABV10@@Z 1002df50 f i RTXLevelProperties.obj
 0001:0002cfc0       ??$fill_n@V?$_Vb_iterator@U?$_Wrap_alloc@V?$allocator@I@std@@@std@@@std@@I_N@std@@YA?AV?$_Vb_iterator@U?$_Wrap_alloc@V?$allocator@I@std@@@std@@@0@V10@IAB_N@Z 1002dfc0 f i RTXLevelProperties.obj
 0001:0002d0f0       ??$find@$$BY05DU?$less@X@std@@$0A@@?$_Tree@V?$_Tmap_traits@V?$basic_string@DU?$char_traits@D@std@@V?$allocator@D@2@@std@@V?$basic_json@Vmap@std@@Vvector@2@V?$basic_string@DU?$char_traits@D@std@@V?$allocator@D@2@@2@_N_J_KNVallocator@2@Uadl_serializer@json_abi_v3_12_0@nlohmann@@V?$vector@EV?$allocator@E@std@@@2@X@json_abi_v3_12_0@nlohmann@@U?$less@X@2@V?$allocator@U?$pair@$$CBV?$basic_string@DU?$char_traits@D@std@@V?$allocator@D@2@@std@@V?$basic_json@Vmap@std@@Vvector@2@V?$basic_string@DU?$char_traits@D@std@@V?$allocator@D@2@@2@_N_J_KNVallocator@2@Uadl_serializer@json_abi_v3_12_0@nlohmann@@V?$vector@EV?$allocator@E@std@@@2@X@json_abi_v3_12_0@nlohmann@@@std@@@2@$0A@@std@@@std@@QAE?AV?$_Tree_iterator@V?$_Tree_val@U?$_Tree_simple_types@U?$pair@$$CBV?$basic_string@DU?$char_traits@D@std@@V?$allocator@D@2@@std@@V?$basic_json@Vmap@std@@Vvector@2@V?$basic_string@DU?$char_traits@D@std@@V?$allocator@D@2@@2@_N_J_KNVallocator@2@Uadl_serializer@json_abi_v3_12_0@nlohmann@@V?$vector@EV?$allocator@E@std@@@2@X@json_abi_v3_12_0@nlohmann@@@std@@@std@@@std@@@1@AAY05$$CBD@Z 1002e0f0 f i RTXLevelProperties.obj
 0001:0002d1d0       ??$find@$$BY08DU?$less@X@std@@$0A@@?$_Tree@V?$_Tmap_traits@V?$basic_string@DU?$char_traits@D@std@@V?$allocator@D@2@@std@@V?$basic_json@Vmap@std@@Vvector@2@V?$basic_string@DU?$char_traits@D@std@@V?$allocator@D@2@@2@_N_J_KNVallocator@2@Uadl_serializer@json_abi_v3_12_0@nlohmann@@V?$vector@EV?$allocator@E@std@@@2@X@json_abi_v3_12_0@nlohmann@@U?$less@X@2@V?$allocator@U?$pair@$$CBV?$basic_string@DU?$char_traits@D@std@@V?$allocator@D@2@@std@@V?$basic_json@Vmap@std@@Vvector@2@V?$basic_string@DU?$char_traits@D@std@@V?$allocator@D@2@@2@_N_J_KNVallocator@2@Uadl_serializer@json_abi_v3_12_0@nlohmann@@V?$vector@EV?$allocator@E@std@@@2@X@json_abi_v3_12_0@nlohmann@@@std@@@2@$0A@@std@@@std@@QAE?AV?$_Tree_iterator@V?$_Tree_val@U?$_Tree_simple_types@U?$pair@$$CBV?$basic_string@DU?$char_traits@D@std@@V?$allocator@D@2@@std@@V?$basic_json@Vmap@std@@Vvector@2@V?$basic_string@DU?$char_traits@D@std@@V?$allocator@D@2@@2@_N_J_KNVallocator@2@Uadl_serializer@json_abi_v3_12_0@nlohmann@@V?$vector@EV?$allocator@E@std@@@2@X@json_abi_v3_12_0@nlohmann@@@std@@@std@@@std@@@1@AAY08$$CBD@Z 1002e1d0 f i RTXLevelProperties.obj
 0001:0002d2b0       ??$find@$$BY09DU?$less@X@std@@$0A@@?$_Tree@V?$_Tmap_traits@V?$basic_string@DU?$char_traits@D@std@@V?$allocator@D@2@@std@@V?$basic_json@Vmap@std@@Vvector@2@V?$basic_string@DU?$char_traits@D@std@@V?$allocator@D@2@@2@_N_J_KNVallocator@2@Uadl_serializer@json_abi_v3_12_0@nlohmann@@V?$vector@EV?$allocator@E@std@@@2@X@json_abi_v3_12_0@nlohmann@@U?$less@X@2@V?$allocator@U?$pair@$$CBV?$basic_string@DU?$char_traits@D@std@@V?$allocator@D@2@@std@@V?$basic_json@Vmap@std@@Vvector@2@V?$basic_string@DU?$char_traits@D@std@@V?$allocator@D@2@@2@_N_J_KNVallocator@2@Uadl_serializer@json_abi_v3_12_0@nlohmann@@V?$vector@EV?$allocator@E@std@@@2@X@json_abi_v3_12_0@nlohmann@@@std@@@2@$0A@@std@@@std@@QAE?AV?$_Tree_iterator@V?$_Tree_val@U?$_Tree_simple_types@U?$pair@$$CBV?$basic_string@DU?$char_traits@D@std@@V?$allocator@D@2@@std@@V?$basic_json@Vmap@std@@Vvector@2@V?$basic_string@DU?$char_traits@D@std@@V?$allocator@D@2@@2@_N_J_KNVallocator@2@Uadl_serializer@json_abi_v3_12_0@nlohmann@@V?$vector@EV?$allocator@E@std@@@2@X@json_abi_v3_12_0@nlohmann@@@std@@@std@@@std@@@1@AAY09$$CBD@Z 1002e2b0 f i RTXLevelProperties.obj
 0001:0002d390       ??$find@$$BY0O@DU?$less@X@std@@$0A@@?$_Tree@V?$_Tmap_traits@V?$basic_string@DU?$char_traits@D@std@@V?$allocator@D@2@@std@@V?$basic_json@Vmap@std@@Vvector@2@V?$basic_string@DU?$char_traits@D@std@@V?$allocator@D@2@@2@_N_J_KNVallocator@2@Uadl_serializer@json_abi_v3_12_0@nlohmann@@V?$vector@EV?$allocator@E@std@@@2@X@json_abi_v3_12_0@nlohmann@@U?$less@X@2@V?$allocator@U?$pair@$$CBV?$basic_string@DU?$char_traits@D@std@@V?$allocator@D@2@@std@@V?$basic_json@Vmap@std@@Vvector@2@V?$basic_string@DU?$char_traits@D@std@@V?$allocator@D@2@@2@_N_J_KNVallocator@2@Uadl_serializer@json_abi_v3_12_0@nlohmann@@V?$vector@EV?$allocator@E@std@@@2@X@json_abi_v3_12_0@nlohmann@@@std@@@2@$0A@@std@@@std@@QAE?AV?$_Tree_iterator@V?$_Tree_val@U?$_Tree_simple_types@U?$pair@$$CBV?$basic_string@DU?$char_traits@D@std@@V?$allocator@D@2@@std@@V?$basic_json@Vmap@std@@Vvector@2@V?$basic_string@DU?$char_traits@D@std@@V?$allocator@D@2@@2@_N_J_KNVallocator@2@Uadl_serializer@json_abi_v3_12_0@nlohmann@@V?$vector@EV?$allocator@E@std@@@2@X@json_abi_v3_12_0@nlohmann@@@std@@@std@@@std@@@1@AAY0O@$$CBD@Z 1002e390 f i RTXLevelProperties.obj
 0001:0002d470       ??$from_json@ABV?$basic_json@Vmap@std@@Vvector@2@V?$basic_string@DU?$char_traits@D@std@@V?$allocator@D@2@@2@_N_J_KNVallocator@2@Uadl_serializer@json_abi_v3_12_0@nlohmann@@V?$vector@EV?$allocator@E@std@@@2@X@json_abi_v3_12_0@nlohmann@@V?$basic_string@DU?$char_traits@D@std@@V?$allocator@D@2@@std@@@?$adl_serializer@V?$basic_string@DU?$char_traits@D@std@@V?$allocator@D@2@@std@@X@json_abi_v3_12_0@nlohmann@@SAXABV?$basic_json@Vmap@std@@Vvector@2@V?$basic_string@DU?$char_traits@D@std@@V?$allocator@D@2@@2@_N_J_KNVallocator@2@Uadl_serializer@json_abi_v3_12_0@nlohmann@@V?$vector@EV?$allocator@E@std@@@2@X@12@AAV?$basic_string@DU?$char_traits@D@std@@V?$allocator@D@2@@std@@@Z 1002e470 f i RTXLevelProperties.obj
 0001:0002d520       ??$get@$00V?$iter_impl@V?$basic_json@Vmap@std@@Vvector@2@V?$basic_string@DU?$char_traits@D@std@@V?$allocator@D@2@@2@_N_J_KNVallocator@2@Uadl_serializer@json_abi_v3_12_0@nlohmann@@V?$vector@EV?$allocator@E@std@@@2@X@json_abi_v3_12_0@nlohmann@@@detail@json_abi_v3_12_0@nlohmann@@$0A@@detail@json_abi_v3_12_0@nlohmann@@YAAAV?$basic_json@Vmap@std@@Vvector@2@V?$basic_string@DU?$char_traits@D@std@@V?$allocator@D@2@@2@_N_J_KNVallocator@2@Uadl_serializer@json_abi_v3_12_0@nlohmann@@V?$vector@EV?$allocator@E@std@@@2@X@12@ABV?$iteration_proxy_value@V?$iter_impl@V?$basic_json@Vmap@std@@Vvector@2@V?$basic_string@DU?$char_traits@D@std@@V?$allocator@D@2@@2@_N_J_KNVallocator@2@Uadl_serializer@json_abi_v3_12_0@nlohmann@@V?$vector@EV?$allocator@E@std@@@2@X@json_abi_v3_12_0@nlohmann@@@detail@json_abi_v3_12_0@nlohmann@@@012@@Z 1002e520 f i RTXLevelProperties.obj
 0001:0002d530       ??$get@$0A@V?$iter_impl@V?$basic_json@Vmap@std@@Vvector@2@V?$basic_string@DU?$char_traits@D@std@@V?$allocator@D@2@@2@_N_J_KNVallocator@2@Uadl_serializer@json_abi_v3_12_0@nlohmann@@V?$vector@EV?$allocator@E@std@@@2@X@json_abi_v3_12_0@nlohmann@@@detail@json_abi_v3_12_0@nlohmann@@$0A@@detail@json_abi_v3_12_0@nlohmann@@YAABV?$basic_string@DU?$char_traits@D@std@@V?$allocator@D@2@@std@@ABV?$iteration_proxy_value@V?$iter_impl@V?$basic_json@Vmap@std@@Vvector@2@V?$basic_string@DU?$char_traits@D@std@@V?$allocator@D@2@@2@_N_J_KNVallocator@2@Uadl_serializer@json_abi_v3_12_0@nlohmann@@V?$vector@EV?$allocator@E@std@@@2@X@json_abi_v3_12_0@nlohmann@@@detail@json_abi_v3_12_0@nlohmann@@@012@@Z 1002e530 f i RTXLevelProperties.obj
 0001:0002d620       ??$get_to@M$0A@@?$basic_json@Vmap@std@@Vvector@2@V?$basic_string@DU?$char_traits@D@std@@V?$allocator@D@2@@2@_N_J_KNVallocator@2@Uadl_serializer@json_abi_v3_12_0@nlohmann@@V?$vector@EV?$allocator@E@std@@@2@X@json_abi_v3_12_0@nlohmann@@QBEAAMAAM@Z 1002e620 f i RTXLevelProperties.obj
 0001:0002d750       ??$get_to@_N$0A@@?$basic_json@Vmap@std@@Vvector@2@V?$basic_string@DU?$char_traits@D@std@@V?$allocator@D@2@@2@_N_J_KNVallocator@2@Uadl_serializer@json_abi_v3_12_0@nlohmann@@V?$vector@EV?$allocator@E@std@@@2@X@json_abi_v3_12_0@nlohmann@@QBEAA_NAA_N@Z 1002e750 f i RTXLevelProperties.obj
 0001:0002d7f0       ??$grisu2@N@dtoa_impl@detail@json_abi_v3_12_0@nlohmann@@YAXPADAAH1N@Z 1002e7f0 f i RTXLevelProperties.obj
 0001:0002d970       ??$handle_value@$$T@?$json_sax_dom_callback_parser@V?$basic_json@Vmap@std@@Vvector@2@V?$basic_string@DU?$char_traits@D@std@@V?$allocator@D@2@@2@_N_J_KNVallocator@2@Uadl_serializer@json_abi_v3_12_0@nlohmann@@V?$vector@EV?$allocator@E@std@@@2@X@json_abi_v3_12_0@nlohmann@@Vinput_stream_adapter@detail@23@@detail@json_abi_v3_12_0@nlohmann@@AAE?AU?$pair@_NPAV?$basic_json@Vmap@std@@Vvector@2@V?$basic_string@DU?$char_traits@D@std@@V?$allocator@D@2@@2@_N_J_KNVallocator@2@Uadl_serializer@json_abi_v3_12_0@nlohmann@@V?$vector@EV?$allocator@E@std@@@2@X@json_abi_v3_12_0@nlohmann@@@std@@$$QA$$T_N@Z 1002e970 f i RTXLevelProperties.obj
 0001:0002dbf0       ??$handle_value@AAN@?$json_sax_dom_callback_parser@V?$basic_json@Vmap@std@@Vvector@2@V?$basic_string@DU?$char_traits@D@std@@V?$allocator@D@2@@2@_N_J_KNVallocator@2@Uadl_serializer@json_abi_v3_12_0@nlohmann@@V?$vector@EV?$allocator@E@std@@@2@X@json_abi_v3_12_0@nlohmann@@Vinput_stream_adapter@detail@23@@detail@json_abi_v3_12_0@nlohmann@@AAE?AU?$pair@_NPAV?$basic_json@Vmap@std@@Vvector@2@V?$basic_string@DU?$char_traits@D@std@@V?$allocator@D@2@@2@_N_J_KNVallocator@2@Uadl_serializer@json_abi_v3_12_0@nlohmann@@V?$vector@EV?$allocator@E@std@@@2@X@json_abi_v3_12_0@nlohmann@@@std@@AAN_N@Z 1002ebf0 f i RTXLevelProperties.obj
 0001:0002deb0       ??$handle_value@AAV?$basic_string@DU?$char_traits@D@std@@V?$allocator@D@2@@std@@@?$json_sax_dom_callback_parser@V?$basic_json@Vmap@std@@Vvector@2@V?$basic_string@DU?$char_traits@D@std@@V?$allocator@D@2@@2@_N_J_KNVallocator@2@Uadl_serializer@json_abi_v3_12_0@nlohmann@@V?$vector@EV?$allocator@E@std@@@2@X@json_abi_v3_12_0@nlohmann@@Vinput_stream_adapter@detail@23@@detail@json_abi_v3_12_0@nlohmann@@AAE?AU?$pair@_NPAV?$basic_json@Vmap@std@@Vvector@2@V?$basic_string@DU?$char_traits@D@std@@V?$allocator@D@2@@2@_N_J_KNVallocator@2@Uadl_serializer@json_abi_v3_12_0@nlohmann@@V?$vector@EV?$allocator@E@std@@@2@X@json_abi_v3_12_0@nlohmann@@@std@@AAV?$basic_string@DU?$char_traits@D@std@@V?$allocator@D@2@@5@_N@Z 1002eeb0 f i RTXLevelProperties.obj
 0001:0002e130       ??$handle_value@AA_J@?$json_sax_dom_callback_parser@V?$basic_json@Vmap@std@@Vvector@2@V?$basic_string@DU?$char_traits@D@std@@V?$allocator@D@2@@2@_N_J_KNVallocator@2@Uadl_serializer@json_abi_v3_12_0@nlohmann@@V?$vector@EV?$allocator@E@std@@@2@X@json_abi_v3_12_0@nlohmann@@Vinput_stream_adapter@detail@23@@detail@json_abi_v3_12_0@nlohmann@@AAE?AU?$pair@_NPAV?$basic_json@Vmap@std@@Vvector@2@V?$basic_string@DU?$char_traits@D@std@@V?$allocator@D@2@@2@_N_J_KNVallocator@2@Uadl_serializer@json_abi_v3_12_0@nlohmann@@V?$vector@EV?$allocator@E@std@@@2@X@json_abi_v3_12_0@nlohmann@@@std@@AA_J_N@Z 1002f130 f i RTXLevelProperties.obj
 0001:0002e3e0       ??$handle_value@AA_K@?$json_sax_dom_callback_parser@V?$basic_json@Vmap@std@@Vvector@2@V?$basic_string@DU?$char_traits@D@std@@V?$allocator@D@2@@2@_N_J_KNVallocator@2@Uadl_serializer@json_abi_v3_12_0@nlohmann@@V?$vector@EV?$allocator@E@std@@@2@X@json_abi_v3_12_0@nlohmann@@Vinput_stream_adapter@detail@23@@detail@json_abi_v3_12_0@nlohmann@@AAE?AU?$pair@_NPAV?$basic_json@Vmap@std@@Vvector@2@V?$basic_string@DU?$char_traits@D@std@@V?$allocator@D@2@@2@_N_J_KNVallocator@2@Uadl_serializer@json_abi_v3_12_0@nlohmann@@V?$vector@EV?$allocator@E@std@@@2@X@json_abi_v3_12_0@nlohmann@@@std@@AA_K_N@Z 1002f3e0 f i RTXLevelProperties.obj
 0001:0002e690       ??$handle_value@AA_N@?$json_sax_dom_callback_parser@V?$basic_json@Vmap@std@@Vvector@2@V?$basic_string@DU?$char_traits@D@std@@V?$allocator@D@2@@2@_N_J_KNVallocator@2@Uadl_serializer@json_abi_v3_12_0@nlohmann@@V?$vector@EV?$allocator@E@std@@@2@X@json_abi_v3_12_0@nlohmann@@Vinput_stream_adapter@detail@23@@detail@json_abi_v3_12_0@nlohmann@@AAE?AU?$pair@_NPAV?$basic_json@Vmap@std@@Vvector@2@V?$basic_string@DU?$char_traits@D@std@@V?$allocator@D@2@@2@_N_J_KNVallocator@2@Uadl_serializer@json_abi_v3_12_0@nlohmann@@V?$vector@EV?$allocator@E@std@@@2@X@json_abi_v3_12_0@nlohmann@@@std@@AA_N_N@Z 1002f690 f i RTXLevelProperties.obj
 0001:0002e940       ??$handle_value@W4value_t@detail@json_abi_v3_12_0@nlohmann@@@?$json_sax_dom_callback_parser@V?$basic_json@Vmap@std@@Vvector@2@V?$basic_string@DU?$char_traits@D@std@@V?$allocator@D@2@@2@_N_J_KNVallocator@2@Uadl_serializer@json_abi_v3_12_0@nlohmann@@V?$vector@EV?$allocator@E@std@@@2@X@json_abi_v3_12_0@nlohmann@@Vinput_stream_adapter@detail@23@@detail@json_abi_v3_12_0@nlohmann@@AAE?AU?$pair@_NPAV?$basic_json@Vmap@std@@Vvector@2@V?$basic_string@DU?$char_traits@D@std@@V?$allocator@D@2@@2@_N_J_KNVallocator@2@Uadl_serializer@json_abi_v3_12_0@nlohmann@@V?$vector@EV?$allocator@E@std@@@2@X@json_abi_v3_12_0@nlohmann@@@std@@$$QAW4value_t@123@_N@Z 1002f940 f i RTXLevelProperties.obj
 0001:0002ebc0       ??$handle_value@W4value_t@detail@json_abi_v3_12_0@nlohmann@@@?$json_sax_dom_parser@V?$basic_json@Vmap@std@@Vvector@2@V?$basic_string@DU?$char_traits@D@std@@V?$allocator@D@2@@2@_N_J_KNVallocator@2@Uadl_serializer@json_abi_v3_12_0@nlohmann@@V?$vector@EV?$allocator@E@std@@@2@X@json_abi_v3_12_0@nlohmann@@Vinput_stream_adapter@detail@23@@detail@json_abi_v3_12_0@nlohmann@@AAEPAV?$basic_json@Vmap@std@@Vvector@2@V?$basic_string@DU?$char_traits@D@std@@V?$allocator@D@2@@2@_N_J_KNVallocator@2@Uadl_serializer@json_abi_v3_12_0@nlohmann@@V?$vector@EV?$allocator@E@std@@@2@X@23@$$QAW4value_t@123@@Z 1002fbc0 f i RTXLevelProperties.obj
 0001:0002ed20       ??$int_to_string@V?$basic_string@DU?$char_traits@D@std@@V?$allocator@D@2@@std@@@detail@json_abi_v3_12_0@nlohmann@@YAXAAV?$basic_string@DU?$char_traits@D@std@@V?$allocator@D@2@@std@@I@Z 1002fd20 f i RTXLevelProperties.obj
 0001:0002ee40       ??$parse@AAV?$basic_ifstream@DU?$char_traits@D@std@@@std@@@?$basic_json@Vmap@std@@Vvector@2@V?$basic_string@DU?$char_traits@D@std@@V?$allocator@D@2@@2@_N_J_KNVallocator@2@Uadl_serializer@json_abi_v3_12_0@nlohmann@@V?$vector@EV?$allocator@E@std@@@2@X@json_abi_v3_12_0@nlohmann@@SA?AV012@AAV?$basic_ifstream@DU?$char_traits@D@std@@@std@@V?$function@$$A6A_NHW4parse_event_t@detail@json_abi_v3_12_0@nlohmann@@AAV?$basic_json@Vmap@std@@Vvector@2@V?$basic_string@DU?$char_traits@D@std@@V?$allocator@D@2@@2@_N_J_KNVallocator@2@Uadl_serializer@json_abi_v3_12_0@nlohmann@@V?$vector@EV?$allocator@E@std@@@2@X@34@@Z@4@_N2@Z 1002fe40 f i RTXLevelProperties.obj
 0001:0002f0b0       ??$parse_error@V0detail@json_abi_v3_12_0@nlohmann@@@?$json_sax_dom_callback_parser@V?$basic_json@Vmap@std@@Vvector@2@V?$basic_string@DU?$char_traits@D@std@@V?$allocator@D@2@@2@_N_J_KNVallocator@2@Uadl_serializer@json_abi_v3_12_0@nlohmann@@V?$vector@EV?$allocator@E@std@@@2@X@json_abi_v3_12_0@nlohmann@@Vinput_stream_adapter@detail@23@@detail@json_abi_v3_12_0@nlohmann@@QAE_NIABV?$basic_string@DU?$char_traits@D@std@@V?$allocator@D@2@@std@@ABVparse_error@123@@Z 100300b0 f i RTXLevelProperties.obj
 0001:0002f0f0       ??$parse_error@V0detail@json_abi_v3_12_0@nlohmann@@@?$json_sax_dom_parser@V?$basic_json@Vmap@std@@Vvector@2@V?$basic_string@DU?$char_traits@D@std@@V?$allocator@D@2@@2@_N_J_KNVallocator@2@Uadl_serializer@json_abi_v3_12_0@nlohmann@@V?$vector@EV?$allocator@E@std@@@2@X@json_abi_v3_12_0@nlohmann@@Vinput_stream_adapter@detail@23@@detail@json_abi_v3_12_0@nlohmann@@QAE_NIABV?$basic_string@DU?$char_traits@D@std@@V?$allocator@D@2@@std@@ABVparse_error@123@@Z 100300f0 f i RTXLevelProperties.obj
 0001:0002f130       ??$parse_error@Vout_of_range@detail@json_abi_v3_12_0@nlohmann@@@?$json_sax_dom_callback_parser@V?$basic_json@Vmap@std@@Vvector@2@V?$basic_string@DU?$char_traits@D@std@@V?$allocator@D@2@@2@_N_J_KNVallocator@2@Uadl_serializer@json_abi_v3_12_0@nlohmann@@V?$vector@EV?$allocator@E@std@@@2@X@json_abi_v3_12_0@nlohmann@@Vinput_stream_adapter@detail@23@@detail@json_abi_v3_12_0@nlohmann@@QAE_NIABV?$basic_string@DU?$char_traits@D@std@@V?$allocator@D@2@@std@@ABVout_of_range@123@@Z 10030130 f i RTXLevelProperties.obj
 0001:0002f170       ??$parse_error@Vout_of_range@detail@json_abi_v3_12_0@nlohmann@@@?$json_sax_dom_parser@V?$basic_json@Vmap@std@@Vvector@2@V?$basic_string@DU?$char_traits@D@std@@V?$allocator@D@2@@2@_N_J_KNVallocator@2@Uadl_serializer@json_abi_v3_12_0@nlohmann@@V?$vector@EV?$allocator@E@std@@@2@X@json_abi_v3_12_0@nlohmann@@Vinput_stream_adapter@detail@23@@detail@json_abi_v3_12_0@nlohmann@@QAE_NIABV?$basic_string@DU?$char_traits@D@std@@V?$allocator@D@2@@std@@ABVout_of_range@123@@Z 10030170 f i RTXLevelProperties.obj
 0001:0002f1b0       ??$reinterpret_bits@_KN@dtoa_impl@detail@json_abi_v3_12_0@nlohmann@@YA_KN@Z 100301b0 f i RTXLevelProperties.obj
 0001:0002f1c0       ??$sax_parse_internal@V?$json_sax_dom_callback_parser@V?$basic_json@Vmap@std@@Vvector@2@V?$basic_string@DU?$char_traits@D@std@@V?$allocator@D@2@@2@_N_J_KNVallocator@2@Uadl_serializer@json_abi_v3_12_0@nlohmann@@V?$vector@EV?$allocator@E@std@@@2@X@json_abi_v3_12_0@nlohmann@@Vinput_stream_adapter@detail@23@@detail@json_abi_v3_12_0@nlohmann@@@?$parser@V?$basic_json@Vmap@std@@Vvector@2@V?$basic_string@DU?$char_traits@D@std@@V?$allocator@D@2@@2@_N_J_KNVallocator@2@Uadl_serializer@json_abi_v3_12_0@nlohmann@@V?$vector@EV?$allocator@E@std@@@2@X@json_abi_v3_12_0@nlohmann@@Vinput_stream_adapter@detail@23@@detail@json_abi_v3_12_0@nlohmann@@AAE_NPAV?$json_sax_dom_callback_parser@V?$basic_json@Vmap@std@@Vvector@2@V?$basic_string@DU?$char_traits@D@std@@V?$allocator@D@2@@2@_N_J_KNVallocator@2@Uadl_serializer@json_abi_v3_12_0@nlohmann@@V?$vector@EV?$allocator@E@std@@@2@X@json_abi_v3_12_0@nlohmann@@Vinput_stream_adapter@detail@23@@123@@Z 100301c0 f i RTXLevelProperties.obj
 0001:0002fea0       ??$sax_parse_internal@V?$json_sax_dom_parser@V?$basic_json@Vmap@std@@Vvector@2@V?$basic_string@DU?$char_traits@D@std@@V?$allocator@D@2@@2@_N_J_KNVallocator@2@Uadl_serializer@json_abi_v3_12_0@nlohmann@@V?$vector@EV?$allocator@E@std@@@2@X@json_abi_v3_12_0@nlohmann@@Vinput_stream_adapter@detail@23@@detail@json_abi_v3_12_0@nlohmann@@@?$parser@V?$basic_json@Vmap@std@@Vvector@2@V?$basic_string@DU?$char_traits@D@std@@V?$allocator@D@2@@2@_N_J_KNVallocator@2@Uadl_serializer@json_abi_v3_12_0@nlohmann@@V?$vector@EV?$allocator@E@std@@@2@X@json_abi_v3_12_0@nlohmann@@Vinput_stream_adapter@detail@23@@detail@json_abi_v3_12_0@nlohmann@@AAE_NPAV?$json_sax_dom_parser@V?$basic_json@Vmap@std@@Vvector@2@V?$basic_string@DU?$char_traits@D@std@@V?$allocator@D@2@@2@_N_J_KNVallocator@2@Uadl_serializer@json_abi_v3_12_0@nlohmann@@V?$vector@EV?$allocator@E@std@@@2@X@json_abi_v3_12_0@nlohmann@@Vinput_stream_adapter@detail@23@@123@@Z 10030ea0 f i RTXLevelProperties.obj
 0001:00030b20       ??$to_chars@N@detail@json_abi_v3_12_0@nlohmann@@YAPADPADPBDN@Z 10031b20 f i RTXLevelProperties.obj
 0001:00030bb0       ??$uninitialized_fill@PAV?$_List_unchecked_const_iterator@V?$_List_val@U?$_List_simple_types@V?$basic_string@GU?$char_traits@G@std@@V?$allocator@G@2@@std@@@std@@@std@@U_Iterator_base0@2@@std@@V12@@std@@YAXQAV?$_List_unchecked_const_iterator@V?$_List_val@U?$_List_simple_types@V?$basic_string@GU?$char_traits@G@std@@V?$allocator@G@2@@std@@@std@@@std@@U_Iterator_base0@2@@0@0ABV10@@Z 10031bb0 f i RTXLevelProperties.obj
 0001:00030bd0       ??$use_facet@V?$codecvt@DDU_Mbstatet@@@std@@@std@@YAABV?$codecvt@DDU_Mbstatet@@@0@ABVlocale@0@@Z 10031bd0 f i RTXLevelProperties.obj
 0001:00030da0       ??0?$basic_ifstream@DU?$char_traits@D@std@@@std@@QAE@PBDHH@Z 10031da0 f i RTXLevelProperties.obj
 0001:00031060       ??0?$basic_json@Vmap@std@@Vvector@2@V?$basic_string@DU?$char_traits@D@std@@V?$allocator@D@2@@2@_N_J_KNVallocator@2@Uadl_serializer@json_abi_v3_12_0@nlohmann@@V?$vector@EV?$allocator@E@std@@@2@X@json_abi_v3_12_0@nlohmann@@QAE@$$QAV012@@Z 10032060 f i RTXLevelProperties.obj
 0001:000310d0       ??0?$basic_json@Vmap@std@@Vvector@2@V?$basic_string@DU?$char_traits@D@std@@V?$allocator@D@2@@2@_N_J_KNVallocator@2@Uadl_serializer@json_abi_v3_12_0@nlohmann@@V?$vector@EV?$allocator@E@std@@@2@X@json_abi_v3_12_0@nlohmann@@QAE@ABV012@@Z 100320d0 f i RTXLevelProperties.obj
 0001:00031480       ??0?$basic_json@Vmap@std@@Vvector@2@V?$basic_string@DU?$char_traits@D@std@@V?$allocator@D@2@@2@_N_J_KNVallocator@2@Uadl_serializer@json_abi_v3_12_0@nlohmann@@V?$vector@EV?$allocator@E@std@@@2@X@json_abi_v3_12_0@nlohmann@@QAE@W4value_t@detail@12@@Z 10032480 f i RTXLevelProperties.obj
 0001:00031680       ??0?$basic_string@DU?$char_traits@D@std@@V?$allocator@D@2@@std@@QAE@$$QAV01@@Z 10032680 f i RTXLevelProperties.obj
 0001:000316d0       ??0?$basic_string@DU?$char_traits@D@std@@V?$allocator@D@2@@std@@QAE@QBD@Z 100326d0 f i RTXLevelProperties.obj
 0001:00031710       ??0?$basic_string@GU?$char_traits@G@std@@V?$allocator@G@2@@std@@QAE@$$QAV01@@Z 10032710 f i RTXLevelProperties.obj
 0001:00031760       ??0?$basic_string@GU?$char_traits@G@std@@V?$allocator@G@2@@std@@QAE@IG@Z 10032760 f i RTXLevelProperties.obj
 0001:00031860       ??0?$json_sax_dom_callback_parser@V?$basic_json@Vmap@std@@Vvector@2@V?$basic_string@DU?$char_traits@D@std@@V?$allocator@D@2@@2@_N_J_KNVallocator@2@Uadl_serializer@json_abi_v3_12_0@nlohmann@@V?$vector@EV?$allocator@E@std@@@2@X@json_abi_v3_12_0@nlohmann@@Vinput_stream_adapter@detail@23@@detail@json_abi_v3_12_0@nlohmann@@QAE@AAV?$basic_json@Vmap@std@@Vvector@2@V?$basic_string@DU?$char_traits@D@std@@V?$allocator@D@2@@2@_N_J_KNVallocator@2@Uadl_serializer@json_abi_v3_12_0@nlohmann@@V?$vector@EV?$allocator@E@std@@@2@X@23@V?$function@$$A6A_NHW4parse_event_t@detail@json_abi_v3_12_0@nlohmann@@AAV?$basic_json@Vmap@std@@Vvector@2@V?$basic_string@DU?$char_traits@D@std@@V?$allocator@D@2@@2@_N_J_KNVallocator@2@Uadl_serializer@json_abi_v3_12_0@nlohmann@@V?$vector@EV?$allocator@E@std@@@2@X@34@@Z@std@@_NPAV?$lexer@V?$basic_json@Vmap@std@@Vvector@2@V?$basic_string@DU?$char_traits@D@std@@V?$allocator@D@2@@2@_N_J_KNVallocator@2@Uadl_serializer@json_abi_v3_12_0@nlohmann@@V?$vector@EV?$allocator@E@std@@@2@X@json_abi_v3_12_0@nlohmann@@Vinput_stream_adapter@detail@23@@123@@Z 10032860 f i RTXLevelProperties.obj
 0001:00031be0       ??0?$parser@V?$basic_json@Vmap@std@@Vvector@2@V?$basic_string@DU?$char_traits@D@std@@V?$allocator@D@2@@2@_N_J_KNVallocator@2@Uadl_serializer@json_abi_v3_12_0@nlohmann@@V?$vector@EV?$allocator@E@std@@@2@X@json_abi_v3_12_0@nlohmann@@Vinput_stream_adapter@detail@23@@detail@json_abi_v3_12_0@nlohmann@@QAE@$$QAVinput_stream_adapter@123@V?$function@$$A6A_NHW4parse_event_t@detail@json_abi_v3_12_0@nlohmann@@AAV?$basic_json@Vmap@std@@Vvector@2@V?$basic_string@DU?$char_traits@D@std@@V?$allocator@D@2@@2@_N_J_KNVallocator@2@Uadl_serializer@json_abi_v3_12_0@nlohmann@@V?$vector@EV?$allocator@E@std@@@2@X@34@@Z@std@@_N2@Z 10032be0 f i RTXLevelProperties.obj
 0001:00031d90       ??0RTXAnchor@@QAE@V?$basic_string@DU?$char_traits@D@std@@V?$allocator@D@2@@std@@VFVector@@111_N@Z 10032d90 f   RTXLevelProperties.obj
 0001:00031f30       ??0RTXAnchorLinear@@QAE@V?$basic_string@DU?$char_traits@D@std@@V?$allocator@D@2@@std@@VFVector@@111_N1M@Z 10032f30 f i RTXLevelProperties.obj
 0001:00032100       ??0exception@detail@json_abi_v3_12_0@nlohmann@@IAE@HPBD@Z 10033100 f i RTXLevelProperties.obj
 0001:000321a0       ??0exception@detail@json_abi_v3_12_0@nlohmann@@QAE@ABV0123@@Z 100331a0 f i RTXLevelProperties.obj
 0001:00032250       ??0invalid_iterator@detail@json_abi_v3_12_0@nlohmann@@QAE@ABV0123@@Z 10033250 f i RTXLevelProperties.obj
 0001:000322b0       ??0json_value@?$basic_json@Vmap@std@@Vvector@2@V?$basic_string@DU?$char_traits@D@std@@V?$allocator@D@2@@2@_N_J_KNVallocator@2@Uadl_serializer@json_abi_v3_12_0@nlohmann@@V?$vector@EV?$allocator@E@std@@@2@X@json_abi_v3_12_0@nlohmann@@QAE@ABV?$basic_string@DU?$char_traits@D@std@@V?$allocator@D@2@@std@@@Z 100332b0 f i RTXLevelProperties.obj
 0001:00032330       ??0other_error@detail@json_abi_v3_12_0@nlohmann@@QAE@ABV0123@@Z 10033330 f i RTXLevelProperties.obj
 0001:00032390       ??0out_of_range@detail@json_abi_v3_12_0@nlohmann@@QAE@ABV0123@@Z 10033390 f i RTXLevelProperties.obj
 0001:000323f0       ??0parse_error@detail@json_abi_v3_12_0@nlohmann@@QAE@ABV0123@@Z 100333f0 f i RTXLevelProperties.obj
 0001:00032460       ??0runtime_error@std@@QAE@PBD@Z 10033460 f i RTXLevelProperties.obj
 0001:000324e0       ??0type_error@detail@json_abi_v3_12_0@nlohmann@@QAE@ABV0123@@Z 100334e0 f i RTXLevelProperties.obj
 0001:00032540       ??1?$_Alloc_construct_ptr@V?$allocator@U?$_List_node@U?$pair@$$CBV?$basic_string@DU?$char_traits@D@std@@V?$allocator@D@2@@std@@V12@@std@@PAX@std@@@std@@@std@@QAE@XZ 10033540 f i RTXLevelProperties.obj
 0001:00032560       ??1?$_Alloc_construct_ptr@V?$allocator@U?$_List_node@V?$basic_string@GU?$char_traits@G@std@@V?$allocator@G@2@@std@@PAX@std@@@std@@@std@@QAE@XZ 10033560 f i RTXLevelProperties.obj
 0001:000325b0       ??1?$_Alloc_construct_ptr@V?$allocator@U?$_Tree_node@U?$pair@$$CBV?$basic_string@DU?$char_traits@D@std@@V?$allocator@D@2@@std@@V?$basic_json@Vmap@std@@Vvector@2@V?$basic_string@DU?$char_traits@D@std@@V?$allocator@D@2@@2@_N_J_KNVallocator@2@Uadl_serializer@json_abi_v3_12_0@nlohmann@@V?$vector@EV?$allocator@E@std@@@2@X@json_abi_v3_12_0@nlohmann@@@std@@PAX@std@@@std@@@std@@QAE@XZ 100335b0 f i RTXLevelProperties.obj
 0001:00032600       ??1?$_Erase_tree_and_orphan_guard@V?$allocator@U?$_Tree_node@U?$pair@$$CBV?$basic_string@DU?$char_traits@D@std@@V?$allocator@D@2@@std@@V?$basic_json@Vmap@std@@Vvector@2@V?$basic_string@DU?$char_traits@D@std@@V?$allocator@D@2@@2@_N_J_KNVallocator@2@Uadl_serializer@json_abi_v3_12_0@nlohmann@@V?$vector@EV?$allocator@E@std@@@2@X@json_abi_v3_12_0@nlohmann@@@std@@PAX@std@@@std@@@?$_Tree_val@U?$_Tree_simple_types@U?$pair@$$CBV?$basic_string@DU?$char_traits@D@std@@V?$allocator@D@2@@std@@V?$basic_json@Vmap@std@@Vvector@2@V?$basic_string@DU?$char_traits@D@std@@V?$allocator@D@2@@2@_N_J_KNVallocator@2@Uadl_serializer@json_abi_v3_12_0@nlohmann@@V?$vector@EV?$allocator@E@std@@@2@X@json_abi_v3_12_0@nlohmann@@@std@@@std@@@std@@QAE@XZ 10033600 f i RTXLevelProperties.obj
 0001:00032620       ??1?$_Func_class@_NHW4parse_event_t@detail@json_abi_v3_12_0@nlohmann@@AAV?$basic_json@Vmap@std@@Vvector@2@V?$basic_string@DU?$char_traits@D@std@@V?$allocator@D@2@@2@_N_J_KNVallocator@2@Uadl_serializer@json_abi_v3_12_0@nlohmann@@V?$vector@EV?$allocator@E@std@@@2@X@34@@std@@QAE@XZ 10033620 f i RTXLevelProperties.obj
 0001:00032650       ??1?$_List_node_emplace_op2@V?$allocator@U?$_List_node@U?$pair@$$CBV?$basic_string@DU?$char_traits@D@std@@V?$allocator@D@2@@std@@V12@@std@@PAX@std@@@std@@@std@@QAE@XZ 10033650 f i RTXLevelProperties.obj
 0001:000326c0       ??1?$_List_node_emplace_op2@V?$allocator@U?$_List_node@V?$basic_string@GU?$char_traits@G@std@@V?$allocator@G@2@@std@@PAX@std@@@std@@@std@@QAE@XZ 100336c0 f i RTXLevelProperties.obj
 0001:00032750       ??1?$_Ref_count_obj2@V?$output_string_adapter@DV?$basic_string@DU?$char_traits@D@std@@V?$allocator@D@2@@std@@@detail@json_abi_v3_12_0@nlohmann@@@std@@UAE@XZ 10033750 f i RTXLevelProperties.obj
 0001:00032760       ??1?$_Tidy_guard@V?$vector@EV?$allocator@E@std@@@std@@@std@@QAE@XZ 10033760 f i RTXLevelProperties.obj
 0001:00032770       ??1?$_Tidy_guard@V?$vector@V?$basic_json@Vmap@std@@Vvector@2@V?$basic_string@DU?$char_traits@D@std@@V?$allocator@D@2@@2@_N_J_KNVallocator@2@Uadl_serializer@json_abi_v3_12_0@nlohmann@@V?$vector@EV?$allocator@E@std@@@2@X@json_abi_v3_12_0@nlohmann@@V?$allocator@V?$basic_json@Vmap@std@@Vvector@2@V?$basic_string@DU?$char_traits@D@std@@V?$allocator@D@2@@2@_N_J_KNVallocator@2@Uadl_serializer@json_abi_v3_12_0@nlohmann@@V?$vector@EV?$allocator@E@std@@@2@X@json_abi_v3_12_0@nlohmann@@@std@@@std@@@std@@QAE@XZ 10033770 f i RTXLevelProperties.obj
 0001:00032780       ??1?$_Tree@V?$_Tmap_traits@V?$basic_string@DU?$char_traits@D@std@@V?$allocator@D@2@@std@@V?$basic_json@Vmap@std@@Vvector@2@V?$basic_string@DU?$char_traits@D@std@@V?$allocator@D@2@@2@_N_J_KNVallocator@2@Uadl_serializer@json_abi_v3_12_0@nlohmann@@V?$vector@EV?$allocator@E@std@@@2@X@json_abi_v3_12_0@nlohmann@@U?$less@X@2@V?$allocator@U?$pair@$$CBV?$basic_string@DU?$char_traits@D@std@@V?$allocator@D@2@@std@@V?$basic_json@Vmap@std@@Vvector@2@V?$basic_string@DU?$char_traits@D@std@@V?$allocator@D@2@@2@_N_J_KNVallocator@2@Uadl_serializer@json_abi_v3_12_0@nlohmann@@V?$vector@EV?$allocator@E@std@@@2@X@json_abi_v3_12_0@nlohmann@@@std@@@2@$0A@@std@@@std@@QAE@XZ 10033780 f i RTXLevelProperties.obj
 0001:000327e0       ??1?$_Tree_head_scoped_ptr@V?$allocator@U?$_Tree_node@U?$pair@$$CBV?$basic_string@DU?$char_traits@D@std@@V?$allocator@D@2@@std@@V?$basic_json@Vmap@std@@Vvector@2@V?$basic_string@DU?$char_traits@D@std@@V?$allocator@D@2@@2@_N_J_KNVallocator@2@Uadl_serializer@json_abi_v3_12_0@nlohmann@@V?$vector@EV?$allocator@E@std@@@2@X@json_abi_v3_12_0@nlohmann@@@std@@PAX@std@@@std@@V?$_Tree_val@U?$_Tree_simple_types@U?$pair@$$CBV?$basic_string@DU?$char_traits@D@std@@V?$allocator@D@2@@std@@V?$basic_json@Vmap@std@@Vvector@2@V?$basic_string@DU?$char_traits@D@std@@V?$allocator@D@2@@2@_N_J_KNVallocator@2@Uadl_serializer@json_abi_v3_12_0@nlohmann@@V?$vector@EV?$allocator@E@std@@@2@X@json_abi_v3_12_0@nlohmann@@@std@@@std@@@2@@std@@QAE@XZ 100337e0 f i RTXLevelProperties.obj
 0001:00032840       ??1?$_Tree_temp_node@V?$allocator@U?$_Tree_node@U?$pair@$$CBV?$basic_string@DU?$char_traits@D@std@@V?$allocator@D@2@@std@@V?$basic_json@Vmap@std@@Vvector@2@V?$basic_string@DU?$char_traits@D@std@@V?$allocator@D@2@@2@_N_J_KNVallocator@2@Uadl_serializer@json_abi_v3_12_0@nlohmann@@V?$vector@EV?$allocator@E@std@@@2@X@json_abi_v3_12_0@nlohmann@@@std@@PAX@std@@@std@@@std@@QAE@XZ 10033840 f i RTXLevelProperties.obj
 0001:000328b0       ??1?$_Tree_temp_node_alloc@V?$allocator@U?$_Tree_node@U?$pair@$$CBV?$basic_string@DU?$char_traits@D@std@@V?$allocator@D@2@@std@@V?$basic_json@Vmap@std@@Vvector@2@V?$basic_string@DU?$char_traits@D@std@@V?$allocator@D@2@@2@_N_J_KNVallocator@2@Uadl_serializer@json_abi_v3_12_0@nlohmann@@V?$vector@EV?$allocator@E@std@@@2@X@json_abi_v3_12_0@nlohmann@@@std@@PAX@std@@@std@@@std@@QAE@XZ 100338b0 f i RTXLevelProperties.obj
 0001:00032900       ??1?$_Uninitialized_backout_al@V?$allocator@V?$basic_json@Vmap@std@@Vvector@2@V?$basic_string@DU?$char_traits@D@std@@V?$allocator@D@2@@2@_N_J_KNVallocator@2@Uadl_serializer@json_abi_v3_12_0@nlohmann@@V?$vector@EV?$allocator@E@std@@@2@X@json_abi_v3_12_0@nlohmann@@@std@@@std@@QAE@XZ 10033900 f i RTXLevelProperties.obj
 0001:00032960       ??1?$_Uninitialized_backout_al@V?$allocator@V?$basic_string@DU?$char_traits@D@std@@V?$allocator@D@2@@std@@@std@@@std@@QAE@XZ 10033960 f i RTXLevelProperties.obj
 0001:00032980       ??1?$_Uninitialized_backout_al@V?$allocator@V?$unique_ptr@VRTXAnchor@@U?$default_delete@VRTXAnchor@@@std@@@std@@@std@@@std@@QAE@XZ 10033980 f i RTXLevelProperties.obj
 0001:000329a0       ??1?$_Vb_val@V?$allocator@_N@std@@@std@@QAE@XZ 100339a0 f i RTXLevelProperties.obj
 0001:00032a10       ??1?$basic_filebuf@DU?$char_traits@D@std@@@std@@UAE@XZ 10033a10 f i RTXLevelProperties.obj
 0001:00032b80       ??1?$basic_ifstream@DU?$char_traits@D@std@@@std@@UAE@XZ 10033b80 f i RTXLevelProperties.obj
 0001:00032c10       ??1?$basic_istream@DU?$char_traits@D@std@@@std@@UAE@XZ 10033c10 f i RTXLevelProperties.obj
 0001:00032c30       ??1?$basic_json@Vmap@std@@Vvector@2@V?$basic_string@DU?$char_traits@D@std@@V?$allocator@D@2@@2@_N_J_KNVallocator@2@Uadl_serializer@json_abi_v3_12_0@nlohmann@@V?$vector@EV?$allocator@E@std@@@2@X@json_abi_v3_12_0@nlohmann@@QAE@XZ 10033c30 f i RTXLevelProperties.obj
 0001:00032c80       ??1?$codecvt@DDU_Mbstatet@@@std@@MAE@XZ 10033c80 f i RTXLevelProperties.obj
 0001:00032cf0       ??1?$function@$$A6A_NHW4parse_event_t@detail@json_abi_v3_12_0@nlohmann@@AAV?$basic_json@Vmap@std@@Vvector@2@V?$basic_string@DU?$char_traits@D@std@@V?$allocator@D@2@@2@_N_J_KNVallocator@2@Uadl_serializer@json_abi_v3_12_0@nlohmann@@V?$vector@EV?$allocator@E@std@@@2@X@34@@Z@std@@QAE@XZ 10033cf0 f i RTXLevelProperties.obj
 0001:00032d50       ??1?$iteration_proxy_value@V?$iter_impl@V?$basic_json@Vmap@std@@Vvector@2@V?$basic_string@DU?$char_traits@D@std@@V?$allocator@D@2@@2@_N_J_KNVallocator@2@Uadl_serializer@json_abi_v3_12_0@nlohmann@@V?$vector@EV?$allocator@E@std@@@2@X@json_abi_v3_12_0@nlohmann@@@detail@json_abi_v3_12_0@nlohmann@@@detail@json_abi_v3_12_0@nlohmann@@QAE@XZ 10033d50 f i RTXLevelProperties.obj
 0001:00032df0       ??1?$json_sax_dom_callback_parser@V?$basic_json@Vmap@std@@Vvector@2@V?$basic_string@DU?$char_traits@D@std@@V?$allocator@D@2@@2@_N_J_KNVallocator@2@Uadl_serializer@json_abi_v3_12_0@nlohmann@@V?$vector@EV?$allocator@E@std@@@2@X@json_abi_v3_12_0@nlohmann@@Vinput_stream_adapter@detail@23@@detail@json_abi_v3_12_0@nlohmann@@QAE@XZ 10033df0 f i RTXLevelProperties.obj
 0001:00032f20       ??1?$json_sax_dom_parser@V?$basic_json@Vmap@std@@Vvector@2@V?$basic_string@DU?$char_traits@D@std@@V?$allocator@D@2@@2@_N_J_KNVallocator@2@Uadl_serializer@json_abi_v3_12_0@nlohmann@@V?$vector@EV?$allocator@E@std@@@2@X@json_abi_v3_12_0@nlohmann@@Vinput_stream_adapter@detail@23@@detail@json_abi_v3_12_0@nlohmann@@QAE@XZ 10033f20 f i RTXLevelProperties.obj
 0001:00032f90       ??1?$lexer@V?$basic_json@Vmap@std@@Vvector@2@V?$basic_string@DU?$char_traits@D@std@@V?$allocator@D@2@@2@_N_J_KNVallocator@2@Uadl_serializer@json_abi_v3_12_0@nlohmann@@V?$vector@EV?$allocator@E@std@@@2@X@json_abi_v3_12_0@nlohmann@@Vinput_stream_adapter@detail@23@@detail@json_abi_v3_12_0@nlohmann@@QAE@XZ 10033f90 f i RTXLevelProperties.obj
 0001:00033040       ??1?$output_adapter@DV?$basic_string@DU?$char_traits@D@std@@V?$allocator@D@2@@std@@@detail@json_abi_v3_12_0@nlohmann@@QAE@XZ 10034040 f i RTXLevelProperties.obj
 0001:000330b0       ??1?$output_adapter_protocol@D@detail@json_abi_v3_12_0@nlohmann@@UAE@XZ 100340b0 f i RTXLevelProperties.obj
 0001:000330c0       ??1?$pair@$$CBV?$basic_string@DU?$char_traits@D@std@@V?$allocator@D@2@@std@@V12@@std@@QAE@XZ 100340c0 f i RTXLevelProperties.obj
 0001:00033160       ??1?$pair@$$CBV?$basic_string@DU?$char_traits@D@std@@V?$allocator@D@2@@std@@V?$basic_json@Vmap@std@@Vvector@2@V?$basic_string@DU?$char_traits@D@std@@V?$allocator@D@2@@2@_N_J_KNVallocator@2@Uadl_serializer@json_abi_v3_12_0@nlohmann@@V?$vector@EV?$allocator@E@std@@@2@X@json_abi_v3_12_0@nlohmann@@@std@@QAE@XZ 10034160 f i RTXLevelProperties.obj
 0001:000331f0       ??1?$parser@V?$basic_json@Vmap@std@@Vvector@2@V?$basic_string@DU?$char_traits@D@std@@V?$allocator@D@2@@2@_N_J_KNVallocator@2@Uadl_serializer@json_abi_v3_12_0@nlohmann@@V?$vector@EV?$allocator@E@std@@@2@X@json_abi_v3_12_0@nlohmann@@Vinput_stream_adapter@detail@23@@detail@json_abi_v3_12_0@nlohmann@@QAE@XZ 100341f0 f i RTXLevelProperties.obj
 0001:00033270       ??1?$serializer@V?$basic_json@Vmap@std@@Vvector@2@V?$basic_string@DU?$char_traits@D@std@@V?$allocator@D@2@@2@_N_J_KNVallocator@2@Uadl_serializer@json_abi_v3_12_0@nlohmann@@V?$vector@EV?$allocator@E@std@@@2@X@json_abi_v3_12_0@nlohmann@@@detail@json_abi_v3_12_0@nlohmann@@QAE@XZ 10034270 f i RTXLevelProperties.obj
 0001:00033310       ??1?$shared_ptr@U?$output_adapter_protocol@D@detail@json_abi_v3_12_0@nlohmann@@@std@@QAE@XZ 10034310 f i RTXLevelProperties.obj
 0001:00033340       ??1?$shared_ptr@V?$output_string_adapter@DV?$basic_string@DU?$char_traits@D@std@@V?$allocator@D@2@@std@@@detail@json_abi_v3_12_0@nlohmann@@@std@@QAE@XZ 10034340 f i RTXLevelProperties.obj
 0001:00033370       ??1?$unique_ptr@V?$basic_string@DU?$char_traits@D@std@@V?$allocator@D@2@@std@@V<lambda_1>@?1???$create@V?$basic_string@DU?$char_traits@D@std@@V?$allocator@D@2@@std@@AAY00$$CBD@?$basic_json@Vmap@std@@Vvector@2@V?$basic_string@DU?$char_traits@D@std@@V?$allocator@D@2@@2@_N_J_KNVallocator@2@Uadl_serializer@json_abi_v3_12_0@nlohmann@@V?$vector@EV?$allocator@E@std@@@2@X@json_abi_v3_12_0@nlohmann@@CAPAV12@AAY00$$CBD@Z@@std@@QAE@XZ 10034370 f i RTXLevelProperties.obj
 0001:000333c0       ??1?$unique_ptr@V?$basic_string@DU?$char_traits@D@std@@V?$allocator@D@2@@std@@V<lambda_1>@?1???$create@V?$basic_string@DU?$char_traits@D@std@@V?$allocator@D@2@@std@@ABV12@@?$basic_json@Vmap@std@@Vvector@2@V?$basic_string@DU?$char_traits@D@std@@V?$allocator@D@2@@2@_N_J_KNVallocator@2@Uadl_serializer@json_abi_v3_12_0@nlohmann@@V?$vector@EV?$allocator@E@std@@@2@X@json_abi_v3_12_0@nlohmann@@CAPAV12@ABV12@@Z@@std@@QAE@XZ 100343c0 f i RTXLevelProperties.obj
 0001:00033410       ??1?$unique_ptr@V?$byte_container_with_subtype@V?$vector@EV?$allocator@E@std@@@std@@@json_abi_v3_12_0@nlohmann@@V<lambda_1>@?1???$create@V?$byte_container_with_subtype@V?$vector@EV?$allocator@E@std@@@std@@@json_abi_v3_12_0@nlohmann@@$$V@?$basic_json@Vmap@std@@Vvector@2@V?$basic_string@DU?$char_traits@D@std@@V?$allocator@D@2@@2@_N_J_KNVallocator@2@Uadl_serializer@json_abi_v3_12_0@nlohmann@@V?$vector@EV?$allocator@E@std@@@2@X@23@CAPAV123@XZ@@std@@QAE@XZ 10034410 f i RTXLevelProperties.obj
 0001:00033460       ??1?$unique_ptr@V?$byte_container_with_subtype@V?$vector@EV?$allocator@E@std@@@std@@@json_abi_v3_12_0@nlohmann@@V<lambda_1>@?1???$create@V?$byte_container_with_subtype@V?$vector@EV?$allocator@E@std@@@std@@@json_abi_v3_12_0@nlohmann@@ABV123@@?$basic_json@Vmap@std@@Vvector@2@V?$basic_string@DU?$char_traits@D@std@@V?$allocator@D@2@@2@_N_J_KNVallocator@2@Uadl_serializer@json_abi_v3_12_0@nlohmann@@V?$vector@EV?$allocator@E@std@@@2@X@23@CAPAV123@ABV123@@Z@@std@@QAE@XZ 10034460 f i RTXLevelProperties.obj
 0001:000334b0       ??1?$unique_ptr@V?$map@V?$basic_string@DU?$char_traits@D@std@@V?$allocator@D@2@@std@@V?$basic_json@Vmap@std@@Vvector@2@V?$basic_string@DU?$char_traits@D@std@@V?$allocator@D@2@@2@_N_J_KNVallocator@2@Uadl_serializer@json_abi_v3_12_0@nlohmann@@V?$vector@EV?$allocator@E@std@@@2@X@json_abi_v3_12_0@nlohmann@@U?$less@X@2@V?$allocator@U?$pair@$$CBV?$basic_string@DU?$char_traits@D@std@@V?$allocator@D@2@@std@@V?$basic_json@Vmap@std@@Vvector@2@V?$basic_string@DU?$char_traits@D@std@@V?$allocator@D@2@@2@_N_J_KNVallocator@2@Uadl_serializer@json_abi_v3_12_0@nlohmann@@V?$vector@EV?$allocator@E@std@@@2@X@json_abi_v3_12_0@nlohmann@@@std@@@2@@std@@V<lambda_1>@?1???$create@V?$map@V?$basic_string@DU?$char_traits@D@std@@V?$allocator@D@2@@std@@V?$basic_json@Vmap@std@@Vvector@2@V?$basic_string@DU?$char_traits@D@std@@V?$allocator@D@2@@2@_N_J_KNVallocator@2@Uadl_serializer@json_abi_v3_12_0@nlohmann@@V?$vector@EV?$allocator@E@std@@@2@X@json_abi_v3_12_0@nlohmann@@U?$less@X@2@V?$allocator@U?$pair@$$CBV?$basic_string@DU?$char_traits@D@std@@V?$allocator@D@2@@std@@V?$basic_json@Vmap@std@@Vvector@2@V?$basic_string@DU?$char_traits@D@std@@V?$allocator@D@2@@2@_N_J_KNVallocator@2@Uadl_serializer@json_abi_v3_12_0@nlohmann@@V?$vector@EV?$allocator@E@std@@@2@X@json_abi_v3_12_0@nlohmann@@@std@@@2@@std@@$$V@?$basic_json@Vmap@std@@Vvector@2@V?$basic_string@DU?$char_traits@D@std@@V?$allocator@D@2@@2@_N_J_KNVallocator@2@Uadl_serializer@json_abi_v3_12_0@nlohmann@@V?$vector@EV?$allocator@E@std@@@2@X@json_abi_v3_12_0@nlohmann@@CAPAV12@XZ@@std@@QAE@XZ 100344b0 f i RTXLevelProperties.obj
 0001:00033500       ??1?$unique_ptr@V?$map@V?$basic_string@DU?$char_traits@D@std@@V?$allocator@D@2@@std@@V?$basic_json@Vmap@std@@Vvector@2@V?$basic_string@DU?$char_traits@D@std@@V?$allocator@D@2@@2@_N_J_KNVallocator@2@Uadl_serializer@json_abi_v3_12_0@nlohmann@@V?$vector@EV?$allocator@E@std@@@2@X@json_abi_v3_12_0@nlohmann@@U?$less@X@2@V?$allocator@U?$pair@$$CBV?$basic_string@DU?$char_traits@D@std@@V?$allocator@D@2@@std@@V?$basic_json@Vmap@std@@Vvector@2@V?$basic_string@DU?$char_traits@D@std@@V?$allocator@D@2@@2@_N_J_KNVallocator@2@Uadl_serializer@json_abi_v3_12_0@nlohmann@@V?$vector@EV?$allocator@E@std@@@2@X@json_abi_v3_12_0@nlohmann@@@std@@@2@@std@@V<lambda_1>@?1???$create@V?$map@V?$basic_string@DU?$char_traits@D@std@@V?$allocator@D@2@@std@@V?$basic_json@Vmap@std@@Vvector@2@V?$basic_string@DU?$char_traits@D@std@@V?$allocator@D@2@@2@_N_J_KNVallocator@2@Uadl_serializer@json_abi_v3_12_0@nlohmann@@V?$vector@EV?$allocator@E@std@@@2@X@json_abi_v3_12_0@nlohmann@@U?$less@X@2@V?$allocator@U?$pair@$$CBV?$basic_string@DU?$char_traits@D@std@@V?$allocator@D@2@@std@@V?$basic_json@Vmap@std@@Vvector@2@V?$basic_string@DU?$char_traits@D@std@@V?$allocator@D@2@@2@_N_J_KNVallocator@2@Uadl_serializer@json_abi_v3_12_0@nlohmann@@V?$vector@EV?$allocator@E@std@@@2@X@json_abi_v3_12_0@nlohmann@@@std@@@2@@std@@ABV12@@?$basic_json@Vmap@std@@Vvector@2@V?$basic_string@DU?$char_traits@D@std@@V?$allocator@D@2@@2@_N_J_KNVallocator@2@Uadl_serializer@json_abi_v3_12_0@nlohmann@@V?$vector@EV?$allocator@E@std@@@2@X@json_abi_v3_12_0@nlohmann@@CAPAV12@ABV12@@Z@@std@@QAE@XZ 10034500 f i RTXLevelProperties.obj
 0001:00033550       ??1?$unique_ptr@V?$vector@V?$basic_json@Vmap@std@@Vvector@2@V?$basic_string@DU?$char_traits@D@std@@V?$allocator@D@2@@2@_N_J_KNVallocator@2@Uadl_serializer@json_abi_v3_12_0@nlohmann@@V?$vector@EV?$allocator@E@std@@@2@X@json_abi_v3_12_0@nlohmann@@V?$allocator@V?$basic_json@Vmap@std@@Vvector@2@V?$basic_string@DU?$char_traits@D@std@@V?$allocator@D@2@@2@_N_J_KNVallocator@2@Uadl_serializer@json_abi_v3_12_0@nlohmann@@V?$vector@EV?$allocator@E@std@@@2@X@json_abi_v3_12_0@nlohmann@@@std@@@std@@V<lambda_1>@?1???$create@V?$vector@V?$basic_json@Vmap@std@@Vvector@2@V?$basic_string@DU?$char_traits@D@std@@V?$allocator@D@2@@2@_N_J_KNVallocator@2@Uadl_serializer@json_abi_v3_12_0@nlohmann@@V?$vector@EV?$allocator@E@std@@@2@X@json_abi_v3_12_0@nlohmann@@V?$allocator@V?$basic_json@Vmap@std@@Vvector@2@V?$basic_string@DU?$char_traits@D@std@@V?$allocator@D@2@@2@_N_J_KNVallocator@2@Uadl_serializer@json_abi_v3_12_0@nlohmann@@V?$vector@EV?$allocator@E@std@@@2@X@json_abi_v3_12_0@nlohmann@@@std@@@std@@$$V@?$basic_json@Vmap@std@@Vvector@2@V?$basic_string@DU?$char_traits@D@std@@V?$allocator@D@2@@2@_N_J_KNVallocator@2@Uadl_serializer@json_abi_v3_12_0@nlohmann@@V?$vector@EV?$allocator@E@std@@@2@X@json_abi_v3_12_0@nlohmann@@CAPAV12@XZ@@std@@QAE@XZ 10034550 f i RTXLevelProperties.obj
 0001:000335a0       ??1?$unique_ptr@V?$vector@V?$basic_json@Vmap@std@@Vvector@2@V?$basic_string@DU?$char_traits@D@std@@V?$allocator@D@2@@2@_N_J_KNVallocator@2@Uadl_serializer@json_abi_v3_12_0@nlohmann@@V?$vector@EV?$allocator@E@std@@@2@X@json_abi_v3_12_0@nlohmann@@V?$allocator@V?$basic_json@Vmap@std@@Vvector@2@V?$basic_string@DU?$char_traits@D@std@@V?$allocator@D@2@@2@_N_J_KNVallocator@2@Uadl_serializer@json_abi_v3_12_0@nlohmann@@V?$vector@EV?$allocator@E@std@@@2@X@json_abi_v3_12_0@nlohmann@@@std@@@std@@V<lambda_1>@?1???$create@V?$vector@V?$basic_json@Vmap@std@@Vvector@2@V?$basic_string@DU?$char_traits@D@std@@V?$allocator@D@2@@2@_N_J_KNVallocator@2@Uadl_serializer@json_abi_v3_12_0@nlohmann@@V?$vector@EV?$allocator@E@std@@@2@X@json_abi_v3_12_0@nlohmann@@V?$allocator@V?$basic_json@Vmap@std@@Vvector@2@V?$basic_string@DU?$char_traits@D@std@@V?$allocator@D@2@@2@_N_J_KNVallocator@2@Uadl_serializer@json_abi_v3_12_0@nlohmann@@V?$vector@EV?$allocator@E@std@@@2@X@json_abi_v3_12_0@nlohmann@@@std@@@std@@ABV12@@?$basic_json@Vmap@std@@Vvector@2@V?$basic_string@DU?$char_traits@D@std@@V?$allocator@D@2@@2@_N_J_KNVallocator@2@Uadl_serializer@json_abi_v3_12_0@nlohmann@@V?$vector@EV?$allocator@E@std@@@2@X@json_abi_v3_12_0@nlohmann@@CAPAV12@ABV12@@Z@@std@@QAE@XZ 100345a0 f i RTXLevelProperties.obj
 0001:000335f0       ??1?$unique_ptr@VRTXAnchor@@U?$default_delete@VRTXAnchor@@@std@@@std@@QAE@XZ 100345f0 f i RTXLevelProperties.obj
 0001:00033670       ??1?$unique_ptr@VRTXAnchorLinear@@U?$default_delete@VRTXAnchorLinear@@@std@@@std@@QAE@XZ 10034670 f i RTXLevelProperties.obj
 0001:000336f0       ??1?$unique_ptr@VRTXAnchorPingPong@@U?$default_delete@VRTXAnchorPingPong@@@std@@@std@@QAE@XZ 100346f0 f i RTXLevelProperties.obj
 0001:00033770       ??1?$vector@DV?$allocator@D@std@@@std@@QAE@XZ 10034770 f i RTXLevelProperties.obj
 0001:000337a0       ??1?$vector@EV?$allocator@E@std@@@std@@QAE@XZ 100347a0 f i RTXLevelProperties.obj
 0001:000337b0       ??1?$vector@IV?$allocator@I@std@@@std@@QAE@XZ 100347b0 f i RTXLevelProperties.obj
 0001:000337e0       ??1?$vector@PAV?$basic_json@Vmap@std@@Vvector@2@V?$basic_string@DU?$char_traits@D@std@@V?$allocator@D@2@@2@_N_J_KNVallocator@2@Uadl_serializer@json_abi_v3_12_0@nlohmann@@V?$vector@EV?$allocator@E@std@@@2@X@json_abi_v3_12_0@nlohmann@@V?$allocator@PAV?$basic_json@Vmap@std@@Vvector@2@V?$basic_string@DU?$char_traits@D@std@@V?$allocator@D@2@@2@_N_J_KNVallocator@2@Uadl_serializer@json_abi_v3_12_0@nlohmann@@V?$vector@EV?$allocator@E@std@@@2@X@json_abi_v3_12_0@nlohmann@@@std@@@std@@QAE@XZ 100347e0 f i RTXLevelProperties.obj
 0001:00033810       ??1?$vector@V?$basic_json@Vmap@std@@Vvector@2@V?$basic_string@DU?$char_traits@D@std@@V?$allocator@D@2@@2@_N_J_KNVallocator@2@Uadl_serializer@json_abi_v3_12_0@nlohmann@@V?$vector@EV?$allocator@E@std@@@2@X@json_abi_v3_12_0@nlohmann@@V?$allocator@V?$basic_json@Vmap@std@@Vvector@2@V?$basic_string@DU?$char_traits@D@std@@V?$allocator@D@2@@2@_N_J_KNVallocator@2@Uadl_serializer@json_abi_v3_12_0@nlohmann@@V?$vector@EV?$allocator@E@std@@@2@X@json_abi_v3_12_0@nlohmann@@@std@@@std@@QAE@XZ 10034810 f i RTXLevelProperties.obj
 0001:00033820       ??1?$vector@V?$basic_string@DU?$char_traits@D@std@@V?$allocator@D@2@@std@@V?$allocator@V?$basic_string@DU?$char_traits@D@std@@V?$allocator@D@2@@std@@@2@@std@@QAE@XZ 10034820 f i RTXLevelProperties.obj
 0001:00033870       ??1?$vector@_NV?$allocator@_N@std@@@std@@QAE@XZ 10034870 f i RTXLevelProperties.obj
 0001:000338e0       ??1RTXAnchor@@QAE@XZ       100348e0 f i RTXLevelProperties.obj
 0001:00033950       ??1RTXAnchorLinear@@QAE@XZ 10034950 f i RTXLevelProperties.obj
 0001:000339c0       ??1_Clear_guard@?$_Hash@V?$_Umap_traits@V?$basic_string@DU?$char_traits@D@std@@V?$allocator@D@2@@std@@V12@V?$_Uhash_compare@V?$basic_string@DU?$char_traits@D@std@@V?$allocator@D@2@@std@@U?$hash@V?$basic_string@DU?$char_traits@D@std@@V?$allocator@D@2@@std@@@2@U?$equal_to@V?$basic_string@DU?$char_traits@D@std@@V?$allocator@D@2@@std@@@2@@2@V?$allocator@U?$pair@$$CBV?$basic_string@DU?$char_traits@D@std@@V?$allocator@D@2@@std@@V12@@std@@@2@$0A@@std@@@std@@QAE@XZ 100349c0 f i RTXLevelProperties.obj
 0001:00033aa0       ??1_Clear_guard@?$_Hash@V?$_Uset_traits@V?$basic_string@GU?$char_traits@G@std@@V?$allocator@G@2@@std@@V?$_Uhash_compare@V?$basic_string@GU?$char_traits@G@std@@V?$allocator@G@2@@std@@U?$hash@V?$basic_string@GU?$char_traits@G@std@@V?$allocator@G@2@@std@@@2@U?$equal_to@V?$basic_string@GU?$char_traits@G@std@@V?$allocator@G@2@@std@@@2@@2@V?$allocator@V?$basic_string@GU?$char_traits@G@std@@V?$allocator@G@2@@std@@@2@$0A@@std@@@std@@QAE@XZ 10034aa0 f i RTXLevelProperties.obj
 0001:00033b10       ??1_Range_eraser@?$_Hash@V?$_Umap_traits@V?$basic_string@DU?$char_traits@D@std@@V?$allocator@D@2@@std@@V12@V?$_Uhash_compare@V?$basic_string@DU?$char_traits@D@std@@V?$allocator@D@2@@std@@U?$hash@V?$basic_string@DU?$char_traits@D@std@@V?$allocator@D@2@@std@@@2@U?$equal_to@V?$basic_string@DU?$char_traits@D@std@@V?$allocator@D@2@@std@@@2@@2@V?$allocator@U?$pair@$$CBV?$basic_string@DU?$char_traits@D@std@@V?$allocator@D@2@@std@@V12@@std@@@2@$0A@@std@@@std@@QAE@XZ 10034b10 f i RTXLevelProperties.obj
 0001:00033b30       ??1_Reallocation_guard@?$vector@DV?$allocator@D@std@@@std@@QAE@XZ 10034b30 f i RTXLevelProperties.obj
 0001:00033b50       ??1_Reallocation_guard@?$vector@IV?$allocator@I@std@@@std@@QAE@XZ 10034b50 f i RTXLevelProperties.obj
 0001:00033b70       ??1_Reallocation_guard@?$vector@PAV?$basic_json@Vmap@std@@Vvector@2@V?$basic_string@DU?$char_traits@D@std@@V?$allocator@D@2@@2@_N_J_KNVallocator@2@Uadl_serializer@json_abi_v3_12_0@nlohmann@@V?$vector@EV?$allocator@E@std@@@2@X@json_abi_v3_12_0@nlohmann@@V?$allocator@PAV?$basic_json@Vmap@std@@Vvector@2@V?$basic_string@DU?$char_traits@D@std@@V?$allocator@D@2@@2@_N_J_KNVallocator@2@Uadl_serializer@json_abi_v3_12_0@nlohmann@@V?$vector@EV?$allocator@E@std@@@2@X@json_abi_v3_12_0@nlohmann@@@std@@@std@@QAE@XZ 10034b70 f i RTXLevelProperties.obj
 0001:00033b90       ??1_Reallocation_guard@?$vector@V?$basic_json@Vmap@std@@Vvector@2@V?$basic_string@DU?$char_traits@D@std@@V?$allocator@D@2@@2@_N_J_KNVallocator@2@Uadl_serializer@json_abi_v3_12_0@nlohmann@@V?$vector@EV?$allocator@E@std@@@2@X@json_abi_v3_12_0@nlohmann@@V?$allocator@V?$basic_json@Vmap@std@@Vvector@2@V?$basic_string@DU?$char_traits@D@std@@V?$allocator@D@2@@2@_N_J_KNVallocator@2@Uadl_serializer@json_abi_v3_12_0@nlohmann@@V?$vector@EV?$allocator@E@std@@@2@X@json_abi_v3_12_0@nlohmann@@@std@@@std@@QAE@XZ 10034b90 f i RTXLevelProperties.obj
 0001:00033c10       ??1_Reallocation_guard@?$vector@V?$basic_string@DU?$char_traits@D@std@@V?$allocator@D@2@@std@@V?$allocator@V?$basic_string@DU?$char_traits@D@std@@V?$allocator@D@2@@std@@@2@@std@@QAE@XZ 10034c10 f i RTXLevelProperties.obj
 0001:00033c40       ??1_Reallocation_guard@?$vector@V?$unique_ptr@VRTXAnchor@@U?$default_delete@VRTXAnchor@@@std@@@std@@V?$allocator@V?$unique_ptr@VRTXAnchor@@U?$default_delete@VRTXAnchor@@@std@@@std@@@2@@std@@QAE@XZ 10034c40 f i RTXLevelProperties.obj
 0001:00033c70       ??1_Ref_count_base@std@@UAE@XZ 10034c70 f i RTXLevelProperties.obj
 0001:00033c80       ??1_Simple_reallocation_guard@?$vector@V?$basic_json@Vmap@std@@Vvector@2@V?$basic_string@DU?$char_traits@D@std@@V?$allocator@D@2@@2@_N_J_KNVallocator@2@Uadl_serializer@json_abi_v3_12_0@nlohmann@@V?$vector@EV?$allocator@E@std@@@2@X@json_abi_v3_12_0@nlohmann@@V?$allocator@V?$basic_json@Vmap@std@@Vvector@2@V?$basic_string@DU?$char_traits@D@std@@V?$allocator@D@2@@2@_N_J_KNVallocator@2@Uadl_serializer@json_abi_v3_12_0@nlohmann@@V?$vector@EV?$allocator@E@std@@@2@X@json_abi_v3_12_0@nlohmann@@@std@@@std@@QAE@XZ 10034c80 f i RTXLevelProperties.obj
 0001:00033ca0       ??1codecvt_base@std@@UAE@XZ 10034ca0 f i RTXLevelProperties.obj
 0001:00033d00       ??1data@?$basic_json@Vmap@std@@Vvector@2@V?$basic_string@DU?$char_traits@D@std@@V?$allocator@D@2@@2@_N_J_KNVallocator@2@Uadl_serializer@json_abi_v3_12_0@nlohmann@@V?$vector@EV?$allocator@E@std@@@2@X@json_abi_v3_12_0@nlohmann@@QAE@XZ 10034d00 f i RTXLevelProperties.obj
 0001:00033d50       ??1exception@detail@json_abi_v3_12_0@nlohmann@@UAE@XZ 10034d50 f i RTXLevelProperties.obj
 0001:00033dd0       ??1input_stream_adapter@detail@json_abi_v3_12_0@nlohmann@@QAE@XZ 10034dd0 f i RTXLevelProperties.obj
 0001:00033e70       ??1invalid_iterator@detail@json_abi_v3_12_0@nlohmann@@UAE@XZ 10034e70 f i RTXLevelProperties.obj
 0001:00033ef0       ??1other_error@detail@json_abi_v3_12_0@nlohmann@@UAE@XZ 10034ef0 f i RTXLevelProperties.obj
 0001:00033f70       ??1out_of_range@detail@json_abi_v3_12_0@nlohmann@@UAE@XZ 10034f70 f i RTXLevelProperties.obj
 0001:00033ff0       ??1parse_error@detail@json_abi_v3_12_0@nlohmann@@UAE@XZ 10034ff0 f i RTXLevelProperties.obj
 0001:00034070       ??1type_error@detail@json_abi_v3_12_0@nlohmann@@UAE@XZ 10035070 f i RTXLevelProperties.obj
 0001:000340f0       ??4?$basic_json@Vmap@std@@Vvector@2@V?$basic_string@DU?$char_traits@D@std@@V?$allocator@D@2@@2@_N_J_KNVallocator@2@Uadl_serializer@json_abi_v3_12_0@nlohmann@@V?$vector@EV?$allocator@E@std@@@2@X@json_abi_v3_12_0@nlohmann@@QAEAAV012@V012@@Z 100350f0 f i RTXLevelProperties.obj
 0001:00034170       ??A?$map@V?$basic_string@DU?$char_traits@D@std@@V?$allocator@D@2@@std@@V?$basic_json@Vmap@std@@Vvector@2@V?$basic_string@DU?$char_traits@D@std@@V?$allocator@D@2@@2@_N_J_KNVallocator@2@Uadl_serializer@json_abi_v3_12_0@nlohmann@@V?$vector@EV?$allocator@E@std@@@2@X@json_abi_v3_12_0@nlohmann@@U?$less@X@2@V?$allocator@U?$pair@$$CBV?$basic_string@DU?$char_traits@D@std@@V?$allocator@D@2@@std@@V?$basic_json@Vmap@std@@Vvector@2@V?$basic_string@DU?$char_traits@D@std@@V?$allocator@D@2@@2@_N_J_KNVallocator@2@Uadl_serializer@json_abi_v3_12_0@nlohmann@@V?$vector@EV?$allocator@E@std@@@2@X@json_abi_v3_12_0@nlohmann@@@std@@@2@@std@@QAEAAV?$basic_json@Vmap@std@@Vvector@2@V?$basic_string@DU?$char_traits@D@std@@V?$allocator@D@2@@2@_N_J_KNVallocator@2@Uadl_serializer@json_abi_v3_12_0@nlohmann@@V?$vector@EV?$allocator@E@std@@@2@X@json_abi_v3_12_0@nlohmann@@ABV?$basic_string@DU?$char_traits@D@std@@V?$allocator@D@2@@1@@Z 10035170 f i RTXLevelProperties.obj
 0001:000342a0       ??B?$output_adapter@DV?$basic_string@DU?$char_traits@D@std@@V?$allocator@D@2@@std@@@detail@json_abi_v3_12_0@nlohmann@@QAE?AV?$shared_ptr@U?$output_adapter_protocol@D@detail@json_abi_v3_12_0@nlohmann@@@std@@XZ 100352a0 f i RTXLevelProperties.obj
 0001:00034310       ??C?$iter_impl@V?$basic_json@Vmap@std@@Vvector@2@V?$basic_string@DU?$char_traits@D@std@@V?$allocator@D@2@@2@_N_J_KNVallocator@2@Uadl_serializer@json_abi_v3_12_0@nlohmann@@V?$vector@EV?$allocator@E@std@@@2@X@json_abi_v3_12_0@nlohmann@@@detail@json_abi_v3_12_0@nlohmann@@QBEPAV?$basic_json@Vmap@std@@Vvector@2@V?$basic_string@DU?$char_traits@D@std@@V?$allocator@D@2@@2@_N_J_KNVallocator@2@Uadl_serializer@json_abi_v3_12_0@nlohmann@@V?$vector@EV?$allocator@E@std@@@2@X@23@XZ 10035310 f i RTXLevelProperties.obj
 0001:000343d0       ??D?$iter_impl@V?$basic_json@Vmap@std@@Vvector@2@V?$basic_string@DU?$char_traits@D@std@@V?$allocator@D@2@@2@_N_J_KNVallocator@2@Uadl_serializer@json_abi_v3_12_0@nlohmann@@V?$vector@EV?$allocator@E@std@@@2@X@json_abi_v3_12_0@nlohmann@@@detail@json_abi_v3_12_0@nlohmann@@QBEAAV?$basic_json@Vmap@std@@Vvector@2@V?$basic_string@DU?$char_traits@D@std@@V?$allocator@D@2@@2@_N_J_KNVallocator@2@Uadl_serializer@json_abi_v3_12_0@nlohmann@@V?$vector@EV?$allocator@E@std@@@2@X@23@XZ 100353d0 f i RTXLevelProperties.obj
 0001:000344b0       ??E?$_Tree_unchecked_const_iterator@V?$_Tree_val@U?$_Tree_simple_types@U?$pair@$$CBV?$basic_string@DU?$char_traits@D@std@@V?$allocator@D@2@@std@@V?$basic_json@Vmap@std@@Vvector@2@V?$basic_string@DU?$char_traits@D@std@@V?$allocator@D@2@@2@_N_J_KNVallocator@2@Uadl_serializer@json_abi_v3_12_0@nlohmann@@V?$vector@EV?$allocator@E@std@@@2@X@json_abi_v3_12_0@nlohmann@@@std@@@std@@@std@@U_Iterator_base0@2@@std@@QAEAAV01@XZ 100354b0 f i RTXLevelProperties.obj
 0001:00034510       ??E?$iter_impl@V?$basic_json@Vmap@std@@Vvector@2@V?$basic_string@DU?$char_traits@D@std@@V?$allocator@D@2@@2@_N_J_KNVallocator@2@Uadl_serializer@json_abi_v3_12_0@nlohmann@@V?$vector@EV?$allocator@E@std@@@2@X@json_abi_v3_12_0@nlohmann@@@detail@json_abi_v3_12_0@nlohmann@@QAEAAV0123@XZ 10035510 f i RTXLevelProperties.obj
 0001:00034580       ??Y?$_Vb_const_iterator@U?$_Wrap_alloc@V?$allocator@I@std@@@std@@@std@@QAEAAV01@H@Z 10035580 f i RTXLevelProperties.obj
 0001:000345e0       ??_D?$basic_ifstream@DU?$char_traits@D@std@@@std@@QAEXXZ 100355e0 f i RTXLevelProperties.obj
 0001:00034687       ??_E?$basic_ifstream@DU?$char_traits@D@std@@@std@@$4PPPPPPPM@A@AEPAXI@Z 10035687 f i RTXLevelProperties.obj
 0001:0003468f       ??_E?$basic_istream@DU?$char_traits@D@std@@@std@@$4PPPPPPPM@A@AEPAXI@Z 1003568f f i RTXLevelProperties.obj
 0001:000346a0       ??_E?$_Ref_count_obj2@V?$output_string_adapter@DV?$basic_string@DU?$char_traits@D@std@@V?$allocator@D@2@@std@@@detail@json_abi_v3_12_0@nlohmann@@@std@@UAEPAXI@Z 100356a0 f i RTXLevelProperties.obj
 0001:000346a0       ??_G?$_Ref_count_obj2@V?$output_string_adapter@DV?$basic_string@DU?$char_traits@D@std@@V?$allocator@D@2@@std@@@detail@json_abi_v3_12_0@nlohmann@@@std@@UAEPAXI@Z 100356a0 f i RTXLevelProperties.obj
 0001:000346d0       ??_E?$basic_filebuf@DU?$char_traits@D@std@@@std@@UAEPAXI@Z 100356d0 f i RTXLevelProperties.obj
 0001:000346d0       ??_G?$basic_filebuf@DU?$char_traits@D@std@@@std@@UAEPAXI@Z 100356d0 f i RTXLevelProperties.obj
 0001:00034700       ??_E?$basic_ifstream@DU?$char_traits@D@std@@@std@@UAEPAXI@Z 10035700 f i RTXLevelProperties.obj
 0001:00034700       ??_G?$basic_ifstream@DU?$char_traits@D@std@@@std@@UAEPAXI@Z 10035700 f i RTXLevelProperties.obj
 0001:00034730       ??_E?$basic_istream@DU?$char_traits@D@std@@@std@@UAEPAXI@Z 10035730 f i RTXLevelProperties.obj
 0001:00034730       ??_G?$basic_istream@DU?$char_traits@D@std@@@std@@UAEPAXI@Z 10035730 f i RTXLevelProperties.obj
 0001:000347c0       ??_E?$codecvt@DDU_Mbstatet@@@std@@MAEPAXI@Z 100357c0 f i RTXLevelProperties.obj
 0001:000347c0       ??_G?$codecvt@DDU_Mbstatet@@@std@@MAEPAXI@Z 100357c0 f i RTXLevelProperties.obj
 0001:00034840       ??_E?$output_adapter_protocol@D@detail@json_abi_v3_12_0@nlohmann@@UAEPAXI@Z 10035840 f i RTXLevelProperties.obj
 0001:00034840       ??_G?$output_adapter_protocol@D@detail@json_abi_v3_12_0@nlohmann@@UAEPAXI@Z 10035840 f i RTXLevelProperties.obj
 0001:00034860       ??_E?$output_string_adapter@DV?$basic_string@DU?$char_traits@D@std@@V?$allocator@D@2@@std@@@detail@json_abi_v3_12_0@nlohmann@@UAEPAXI@Z 10035860 f i RTXLevelProperties.obj
 0001:00034860       ??_G?$output_string_adapter@DV?$basic_string@DU?$char_traits@D@std@@V?$allocator@D@2@@std@@@detail@json_abi_v3_12_0@nlohmann@@UAEPAXI@Z 10035860 f i RTXLevelProperties.obj
 0001:00034880       ??_Ecodecvt_base@std@@UAEPAXI@Z 10035880 f i RTXLevelProperties.obj
 0001:00034880       ??_Gcodecvt_base@std@@UAEPAXI@Z 10035880 f i RTXLevelProperties.obj
 0001:000348f0       ??_Eexception@detail@json_abi_v3_12_0@nlohmann@@UAEPAXI@Z 100358f0 f i RTXLevelProperties.obj
 0001:000348f0       ??_Gexception@detail@json_abi_v3_12_0@nlohmann@@UAEPAXI@Z 100358f0 f i RTXLevelProperties.obj
 0001:00034980       ??_Einvalid_iterator@detail@json_abi_v3_12_0@nlohmann@@UAEPAXI@Z 10035980 f i RTXLevelProperties.obj
 0001:00034980       ??_Ginvalid_iterator@detail@json_abi_v3_12_0@nlohmann@@UAEPAXI@Z 10035980 f i RTXLevelProperties.obj
 0001:00034a10       ??_Eother_error@detail@json_abi_v3_12_0@nlohmann@@UAEPAXI@Z 10035a10 f i RTXLevelProperties.obj
 0001:00034a10       ??_Gother_error@detail@json_abi_v3_12_0@nlohmann@@UAEPAXI@Z 10035a10 f i RTXLevelProperties.obj
 0001:00034aa0       ??_Eout_of_range@detail@json_abi_v3_12_0@nlohmann@@UAEPAXI@Z 10035aa0 f i RTXLevelProperties.obj
 0001:00034aa0       ??_Gout_of_range@detail@json_abi_v3_12_0@nlohmann@@UAEPAXI@Z 10035aa0 f i RTXLevelProperties.obj
 0001:00034b30       ??_Eparse_error@detail@json_abi_v3_12_0@nlohmann@@UAEPAXI@Z 10035b30 f i RTXLevelProperties.obj
 0001:00034b30       ??_Gparse_error@detail@json_abi_v3_12_0@nlohmann@@UAEPAXI@Z 10035b30 f i RTXLevelProperties.obj
 0001:00034bc0       ??_Etype_error@detail@json_abi_v3_12_0@nlohmann@@UAEPAXI@Z 10035bc0 f i RTXLevelProperties.obj
 0001:00034bc0       ??_Gtype_error@detail@json_abi_v3_12_0@nlohmann@@UAEPAXI@Z 10035bc0 f i RTXLevelProperties.obj
 0001:00034c50       ?Tick@RTXAnchor@@UAEXM@Z   10035c50 f   RTXLevelProperties.obj
 0001:00034d50       ?Tick@RTXAnchorLinear@@UAEXM@Z 10035d50 f   RTXLevelProperties.obj
 0001:00034df0       ?Tick@RTXAnchorPingPong@@UAEXM@Z 10035df0 f   RTXLevelProperties.obj
 0001:00034e60       ?_Assign_grow@?$_Hash_vec@V?$allocator@V?$_List_unchecked_const_iterator@V?$_List_val@U?$_List_simple_types@V?$basic_string@GU?$char_traits@G@std@@V?$allocator@G@2@@std@@@std@@@std@@U_Iterator_base0@2@@std@@@std@@@std@@QAEXIV?$_List_unchecked_const_iterator@V?$_List_val@U?$_List_simple_types@V?$basic_string@GU?$char_traits@G@std@@V?$allocator@G@2@@std@@@std@@@std@@U_Iterator_base0@2@@2@@Z 10035e60 f i RTXLevelProperties.obj
 0001:00034f00       ?_Change_array@?$vector@V?$basic_json@Vmap@std@@Vvector@2@V?$basic_string@DU?$char_traits@D@std@@V?$allocator@D@2@@2@_N_J_KNVallocator@2@Uadl_serializer@json_abi_v3_12_0@nlohmann@@V?$vector@EV?$allocator@E@std@@@2@X@json_abi_v3_12_0@nlohmann@@V?$allocator@V?$basic_json@Vmap@std@@Vvector@2@V?$basic_string@DU?$char_traits@D@std@@V?$allocator@D@2@@2@_N_J_KNVallocator@2@Uadl_serializer@json_abi_v3_12_0@nlohmann@@V?$vector@EV?$allocator@E@std@@@2@X@json_abi_v3_12_0@nlohmann@@@std@@@std@@AAEXQAV?$basic_json@Vmap@std@@Vvector@2@V?$basic_string@DU?$char_traits@D@std@@V?$allocator@D@2@@2@_N_J_KNVallocator@2@Uadl_serializer@json_abi_v3_12_0@nlohmann@@V?$vector@EV?$allocator@E@std@@@2@X@json_abi_v3_12_0@nlohmann@@II@Z 10035f00 f i RTXLevelProperties.obj
 0001:00034fb0       ?_Change_array@?$vector@V?$basic_string@DU?$char_traits@D@std@@V?$allocator@D@2@@std@@V?$allocator@V?$basic_string@DU?$char_traits@D@std@@V?$allocator@D@2@@std@@@2@@std@@AAEXQAV?$basic_string@DU?$char_traits@D@std@@V?$allocator@D@2@@2@II@Z 10035fb0 f i RTXLevelProperties.obj
 0001:00035010       ?_Deallocate_for_capacity@?$basic_string@GU?$char_traits@G@std@@V?$allocator@G@2@@std@@CAXAAV?$allocator@G@2@QAGI@Z 10036010 f i RTXLevelProperties.obj
 0001:00035090       ?_Delete_this@?$_Ref_count_obj2@V?$output_string_adapter@DV?$basic_string@DU?$char_traits@D@std@@V?$allocator@D@2@@std@@@detail@json_abi_v3_12_0@nlohmann@@@std@@EAEXXZ 10036090 f i RTXLevelProperties.obj
 0001:000350a0       ?_Destroy@?$_Ref_count_obj2@V?$output_string_adapter@DV?$basic_string@DU?$char_traits@D@std@@V?$allocator@D@2@@std@@@detail@json_abi_v3_12_0@nlohmann@@@std@@EAEXXZ 100360a0 f i RTXLevelProperties.obj
 0001:000350b0       ?_Endwrite@?$basic_filebuf@DU?$char_traits@D@std@@@std@@IAE_NXZ 100360b0 f i RTXLevelProperties.obj
 0001:00035180       ?_Extract@?$_Tree_val@U?$_Tree_simple_types@U?$pair@$$CBV?$basic_string@DU?$char_traits@D@std@@V?$allocator@D@2@@std@@V?$basic_json@Vmap@std@@Vvector@2@V?$basic_string@DU?$char_traits@D@std@@V?$allocator@D@2@@2@_N_J_KNVallocator@2@Uadl_serializer@json_abi_v3_12_0@nlohmann@@V?$vector@EV?$allocator@E@std@@@2@X@json_abi_v3_12_0@nlohmann@@@std@@@std@@@std@@QAEPAU?$_Tree_node@U?$pair@$$CBV?$basic_string@DU?$char_traits@D@std@@V?$allocator@D@2@@std@@V?$basic_json@Vmap@std@@Vvector@2@V?$basic_string@DU?$char_traits@D@std@@V?$allocator@D@2@@2@_N_J_KNVallocator@2@Uadl_serializer@json_abi_v3_12_0@nlohmann@@V?$vector@EV?$allocator@E@std@@@2@X@json_abi_v3_12_0@nlohmann@@@std@@PAX@2@V?$_Tree_unchecked_const_iterator@V?$_Tree_val@U?$_Tree_simple_types@U?$pair@$$CBV?$basic_string@DU?$char_traits@D@std@@V?$allocator@D@2@@std@@V?$basic_json@Vmap@std@@Vvector@2@V?$basic_string@DU?$char_traits@D@std@@V?$allocator@D@2@@2@_N_J_KNVallocator@2@Uadl_serializer@json_abi_v3_12_0@nlohmann@@V?$vector@EV?$allocator@E@std@@@2@X@json_abi_v3_12_0@nlohmann@@@std@@@std@@@std@@U_Iterator_base0@2@@2@@Z 10036180 f i RTXLevelProperties.obj
 0001:000354a0       ?_Forced_rehash@?$_Hash@V?$_Umap_traits@V?$basic_string@DU?$char_traits@D@std@@V?$allocator@D@2@@std@@V12@V?$_Uhash_compare@V?$basic_string@DU?$char_traits@D@std@@V?$allocator@D@2@@std@@U?$hash@V?$basic_string@DU?$char_traits@D@std@@V?$allocator@D@2@@std@@@2@U?$equal_to@V?$basic_string@DU?$char_traits@D@std@@V?$allocator@D@2@@std@@@2@@2@V?$allocator@U?$pair@$$CBV?$basic_string@DU?$char_traits@D@std@@V?$allocator@D@2@@std@@V12@@std@@@2@$0A@@std@@@std@@IAEXI@Z 100364a0 f i RTXLevelProperties.obj
 0001:00035770       ?_Forced_rehash@?$_Hash@V?$_Uset_traits@V?$basic_string@GU?$char_traits@G@std@@V?$allocator@G@2@@std@@V?$_Uhash_compare@V?$basic_string@GU?$char_traits@G@std@@V?$allocator@G@2@@std@@U?$hash@V?$basic_string@GU?$char_traits@G@std@@V?$allocator@G@2@@std@@@2@U?$equal_to@V?$basic_string@GU?$char_traits@G@std@@V?$allocator@G@2@@std@@@2@@2@V?$allocator@V?$basic_string@GU?$char_traits@G@std@@V?$allocator@G@2@@std@@@2@$0A@@std@@@std@@IAEXI@Z 10036770 f i RTXLevelProperties.obj
 0001:00035970       ?_Get_deleter@_Ref_count_base@std@@UBEPAXABVtype_info@@@Z 10036970 f i RTXLevelProperties.obj
 0001:00035980       ?_Init@?$basic_filebuf@DU?$char_traits@D@std@@@std@@IAEXPAU_iobuf@@W4_Initfl@12@@Z 10036980 f i RTXLevelProperties.obj
 0001:00035aa0       ?_Initcvt@?$basic_filebuf@DU?$char_traits@D@std@@@std@@IAEXABV?$codecvt@DDU_Mbstatet@@@2@@Z 10036aa0 f i RTXLevelProperties.obj
 0001:00035b30       ?_Insert_node@?$_Tree_val@U?$_Tree_simple_types@U?$pair@$$CBV?$basic_string@DU?$char_traits@D@std@@V?$allocator@D@2@@std@@V?$basic_json@Vmap@std@@Vvector@2@V?$basic_string@DU?$char_traits@D@std@@V?$allocator@D@2@@2@_N_J_KNVallocator@2@Uadl_serializer@json_abi_v3_12_0@nlohmann@@V?$vector@EV?$allocator@E@std@@@2@X@json_abi_v3_12_0@nlohmann@@@std@@@std@@@std@@QAEPAU?$_Tree_node@U?$pair@$$CBV?$basic_string@DU?$char_traits@D@std@@V?$allocator@D@2@@std@@V?$basic_json@Vmap@std@@Vvector@2@V?$basic_string@DU?$char_traits@D@std@@V?$allocator@D@2@@2@_N_J_KNVallocator@2@Uadl_serializer@json_abi_v3_12_0@nlohmann@@V?$vector@EV?$allocator@E@std@@@2@X@json_abi_v3_12_0@nlohmann@@@std@@PAX@2@U?$_Tree_id@PAU?$_Tree_node@U?$pair@$$CBV?$basic_string@DU?$char_traits@D@std@@V?$allocator@D@2@@std@@V?$basic_json@Vmap@std@@Vvector@2@V?$basic_string@DU?$char_traits@D@std@@V?$allocator@D@2@@2@_N_J_KNVallocator@2@Uadl_serializer@json_abi_v3_12_0@nlohmann@@V?$vector@EV?$allocator@E@std@@@2@X@json_abi_v3_12_0@nlohmann@@@std@@PAX@std@@@2@QAU32@@Z 10036b30 f i RTXLevelProperties.obj
 0001:00035d20       ?_Insert_x@?$vector@_NV?$allocator@_N@std@@@std@@QAEIV?$_Vb_const_iterator@U?$_Wrap_alloc@V?$allocator@I@std@@@std@@@2@I@Z 10036d20 f i RTXLevelProperties.obj
 0001:00035ed0       ?_Lock@?$basic_filebuf@DU?$char_traits@D@std@@@std@@UAEXXZ 10036ed0 f i RTXLevelProperties.obj
 0001:00035ee0       ?_Lrotate@?$_Tree_val@U?$_Tree_simple_types@U?$pair@$$CBV?$basic_string@DU?$char_traits@D@std@@V?$allocator@D@2@@std@@V?$basic_json@Vmap@std@@Vvector@2@V?$basic_string@DU?$char_traits@D@std@@V?$allocator@D@2@@2@_N_J_KNVallocator@2@Uadl_serializer@json_abi_v3_12_0@nlohmann@@V?$vector@EV?$allocator@E@std@@@2@X@json_abi_v3_12_0@nlohmann@@@std@@@std@@@std@@QAEXPAU?$_Tree_node@U?$pair@$$CBV?$basic_string@DU?$char_traits@D@std@@V?$allocator@D@2@@std@@V?$basic_json@Vmap@std@@Vvector@2@V?$basic_string@DU?$char_traits@D@std@@V?$allocator@D@2@@2@_N_J_KNVallocator@2@Uadl_serializer@json_abi_v3_12_0@nlohmann@@V?$vector@EV?$allocator@E@std@@@2@X@json_abi_v3_12_0@nlohmann@@@std@@PAX@2@@Z 10036ee0 f i RTXLevelProperties.obj
 0001:00035f40       ?_Reset_back@?$basic_filebuf@DU?$char_traits@D@std@@@std@@AAEXXZ 10036f40 f i RTXLevelProperties.obj
 0001:00035f70       ?_Rrotate@?$_Tree_val@U?$_Tree_simple_types@U?$pair@$$CBV?$basic_string@DU?$char_traits@D@std@@V?$allocator@D@2@@std@@V?$basic_json@Vmap@std@@Vvector@2@V?$basic_string@DU?$char_traits@D@std@@V?$allocator@D@2@@2@_N_J_KNVallocator@2@Uadl_serializer@json_abi_v3_12_0@nlohmann@@V?$vector@EV?$allocator@E@std@@@2@X@json_abi_v3_12_0@nlohmann@@@std@@@std@@@std@@QAEXPAU?$_Tree_node@U?$pair@$$CBV?$basic_string@DU?$char_traits@D@std@@V?$allocator@D@2@@std@@V?$basic_json@Vmap@std@@Vvector@2@V?$basic_string@DU?$char_traits@D@std@@V?$allocator@D@2@@2@_N_J_KNVallocator@2@Uadl_serializer@json_abi_v3_12_0@nlohmann@@V?$vector@EV?$allocator@E@std@@@2@X@json_abi_v3_12_0@nlohmann@@@std@@PAX@2@@Z 10036f70 f i RTXLevelProperties.obj
 0001:00035fd0       ?_Tidy@?$vector@EV?$allocator@E@std@@@std@@AAEXXZ 10036fd0 f i RTXLevelProperties.obj
 0001:00036060       ?_Tidy@?$vector@V?$basic_json@Vmap@std@@Vvector@2@V?$basic_string@DU?$char_traits@D@std@@V?$allocator@D@2@@2@_N_J_KNVallocator@2@Uadl_serializer@json_abi_v3_12_0@nlohmann@@V?$vector@EV?$allocator@E@std@@@2@X@json_abi_v3_12_0@nlohmann@@V?$allocator@V?$basic_json@Vmap@std@@Vvector@2@V?$basic_string@DU?$char_traits@D@std@@V?$allocator@D@2@@2@_N_J_KNVallocator@2@Uadl_serializer@json_abi_v3_12_0@nlohmann@@V?$vector@EV?$allocator@E@std@@@2@X@json_abi_v3_12_0@nlohmann@@@std@@@std@@AAEXXZ 10037060 f i RTXLevelProperties.obj
 0001:00036110       ?_Unchecked_erase@?$_Hash@V?$_Umap_traits@V?$basic_string@DU?$char_traits@D@std@@V?$allocator@D@2@@std@@V12@V?$_Uhash_compare@V?$basic_string@DU?$char_traits@D@std@@V?$allocator@D@2@@std@@U?$hash@V?$basic_string@DU?$char_traits@D@std@@V?$allocator@D@2@@std@@@2@U?$equal_to@V?$basic_string@DU?$char_traits@D@std@@V?$allocator@D@2@@std@@@2@@2@V?$allocator@U?$pair@$$CBV?$basic_string@DU?$char_traits@D@std@@V?$allocator@D@2@@std@@V12@@std@@@2@$0A@@std@@@std@@AAEPAU?$_List_node@U?$pair@$$CBV?$basic_string@DU?$char_traits@D@std@@V?$allocator@D@2@@std@@V12@@std@@PAX@2@PAU32@QAU32@@Z 10037110 f i RTXLevelProperties.obj
 0001:000362d0       ?_Unlock@?$basic_filebuf@DU?$char_traits@D@std@@@std@@UAEXXZ 100372d0 f i RTXLevelProperties.obj
 0001:000362e0       ?_Xlen@?$vector@_NV?$allocator@_N@std@@@std@@SAXXZ 100372e0 f i RTXLevelProperties.obj
 0001:000362f0       ?_Xlength@?$vector@DV?$allocator@D@std@@@std@@CAXXZ 100372f0 f i RTXLevelProperties.obj
 0001:00036300       ?_Xlength@?$vector@EV?$allocator@E@std@@@std@@CAXXZ 10037300 f i RTXLevelProperties.obj
 0001:00036310       ?_Xlength@?$vector@IV?$allocator@I@std@@@std@@CAXXZ 10037310 f i RTXLevelProperties.obj
 0001:00036320       ?_Xlength@?$vector@PAV?$basic_json@Vmap@std@@Vvector@2@V?$basic_string@DU?$char_traits@D@std@@V?$allocator@D@2@@2@_N_J_KNVallocator@2@Uadl_serializer@json_abi_v3_12_0@nlohmann@@V?$vector@EV?$allocator@E@std@@@2@X@json_abi_v3_12_0@nlohmann@@V?$allocator@PAV?$basic_json@Vmap@std@@Vvector@2@V?$basic_string@DU?$char_traits@D@std@@V?$allocator@D@2@@2@_N_J_KNVallocator@2@Uadl_serializer@json_abi_v3_12_0@nlohmann@@V?$vector@EV?$allocator@E@std@@@2@X@json_abi_v3_12_0@nlohmann@@@std@@@std@@CAXXZ 10037320 f i RTXLevelProperties.obj
 0001:00036330       ?_Xlength@?$vector@V?$basic_json@Vmap@std@@Vvector@2@V?$basic_string@DU?$char_traits@D@std@@V?$allocator@D@2@@2@_N_J_KNVallocator@2@Uadl_serializer@json_abi_v3_12_0@nlohmann@@V?$vector@EV?$allocator@E@std@@@2@X@json_abi_v3_12_0@nlohmann@@V?$allocator@V?$basic_json@Vmap@std@@Vvector@2@V?$basic_string@DU?$char_traits@D@std@@V?$allocator@D@2@@2@_N_J_KNVallocator@2@Uadl_serializer@json_abi_v3_12_0@nlohmann@@V?$vector@EV?$allocator@E@std@@@2@X@json_abi_v3_12_0@nlohmann@@@std@@@std@@CAXXZ 10037330 f i RTXLevelProperties.obj
 0001:00036340       ?_Xlength@?$vector@V?$basic_string@DU?$char_traits@D@std@@V?$allocator@D@2@@std@@V?$allocator@V?$basic_string@DU?$char_traits@D@std@@V?$allocator@D@2@@std@@@2@@std@@CAXXZ 10037340 f i RTXLevelProperties.obj
 0001:00036350       ?_Xlength@?$vector@V?$unique_ptr@VRTXAnchor@@U?$default_delete@VRTXAnchor@@@std@@@std@@V?$allocator@V?$unique_ptr@VRTXAnchor@@U?$default_delete@VRTXAnchor@@@std@@@std@@@2@@std@@CAXXZ 10037350 f i RTXLevelProperties.obj
 0001:00036360       ?_Xrange@?$vector@V?$basic_json@Vmap@std@@Vvector@2@V?$basic_string@DU?$char_traits@D@std@@V?$allocator@D@2@@2@_N_J_KNVallocator@2@Uadl_serializer@json_abi_v3_12_0@nlohmann@@V?$vector@EV?$allocator@E@std@@@2@X@json_abi_v3_12_0@nlohmann@@V?$allocator@V?$basic_json@Vmap@std@@Vvector@2@V?$basic_string@DU?$char_traits@D@std@@V?$allocator@D@2@@2@_N_J_KNVallocator@2@Uadl_serializer@json_abi_v3_12_0@nlohmann@@V?$vector@EV?$allocator@E@std@@@2@X@json_abi_v3_12_0@nlohmann@@@std@@@std@@CAXXZ 10037360 f i RTXLevelProperties.obj
 0001:00036370       ?assign@?$basic_string@DU?$char_traits@D@std@@V?$allocator@D@2@@std@@QAEAAV12@QBDI@Z 10037370 f i RTXLevelProperties.obj
 0001:00036470       ?at@?$basic_json@Vmap@std@@Vvector@2@V?$basic_string@DU?$char_traits@D@std@@V?$allocator@D@2@@2@_N_J_KNVallocator@2@Uadl_serializer@json_abi_v3_12_0@nlohmann@@V?$vector@EV?$allocator@E@std@@@2@X@json_abi_v3_12_0@nlohmann@@QBEABV123@I@Z 10037470 f i RTXLevelProperties.obj
 0001:00036580       ?at@?$vector@V?$basic_json@Vmap@std@@Vvector@2@V?$basic_string@DU?$char_traits@D@std@@V?$allocator@D@2@@2@_N_J_KNVallocator@2@Uadl_serializer@json_abi_v3_12_0@nlohmann@@V?$vector@EV?$allocator@E@std@@@2@X@json_abi_v3_12_0@nlohmann@@V?$allocator@V?$basic_json@Vmap@std@@Vvector@2@V?$basic_string@DU?$char_traits@D@std@@V?$allocator@D@2@@2@_N_J_KNVallocator@2@Uadl_serializer@json_abi_v3_12_0@nlohmann@@V?$vector@EV?$allocator@E@std@@@2@X@json_abi_v3_12_0@nlohmann@@@std@@@std@@QAEAAV?$basic_json@Vmap@std@@Vvector@2@V?$basic_string@DU?$char_traits@D@std@@V?$allocator@D@2@@2@_N_J_KNVallocator@2@Uadl_serializer@json_abi_v3_12_0@nlohmann@@V?$vector@EV?$allocator@E@std@@@2@X@json_abi_v3_12_0@nlohmann@@I@Z 10037580 f i RTXLevelProperties.obj
 0001:000365c0       ?back@?$basic_string@DU?$char_traits@D@std@@V?$allocator@D@2@@std@@QBEABDXZ 100375c0 f i RTXLevelProperties.obj
 0001:000365e0       ?back@?$vector@PAV?$basic_json@Vmap@std@@Vvector@2@V?$basic_string@DU?$char_traits@D@std@@V?$allocator@D@2@@2@_N_J_KNVallocator@2@Uadl_serializer@json_abi_v3_12_0@nlohmann@@V?$vector@EV?$allocator@E@std@@@2@X@json_abi_v3_12_0@nlohmann@@V?$allocator@PAV?$basic_json@Vmap@std@@Vvector@2@V?$basic_string@DU?$char_traits@D@std@@V?$allocator@D@2@@2@_N_J_KNVallocator@2@Uadl_serializer@json_abi_v3_12_0@nlohmann@@V?$vector@EV?$allocator@E@std@@@2@X@json_abi_v3_12_0@nlohmann@@@std@@@std@@QAEAAPAV?$basic_json@Vmap@std@@Vvector@2@V?$basic_string@DU?$char_traits@D@std@@V?$allocator@D@2@@2@_N_J_KNVallocator@2@Uadl_serializer@json_abi_v3_12_0@nlohmann@@V?$vector@EV?$allocator@E@std@@@2@X@json_abi_v3_12_0@nlohmann@@XZ 100375e0 f i RTXLevelProperties.obj
 0001:000365f0       ?back@?$vector@_NV?$allocator@_N@std@@@std@@QAE?AV?$_Vb_reference@U?$_Wrap_alloc@V?$allocator@I@std@@@std@@@2@XZ 100375f0 f i RTXLevelProperties.obj
 0001:00036670       ?begin@?$basic_json@Vmap@std@@Vvector@2@V?$basic_string@DU?$char_traits@D@std@@V?$allocator@D@2@@2@_N_J_KNVallocator@2@Uadl_serializer@json_abi_v3_12_0@nlohmann@@V?$vector@EV?$allocator@E@std@@@2@X@json_abi_v3_12_0@nlohmann@@QAE?AV?$iter_impl@V?$basic_json@Vmap@std@@Vvector@2@V?$basic_string@DU?$char_traits@D@std@@V?$allocator@D@2@@2@_N_J_KNVallocator@2@Uadl_serializer@json_abi_v3_12_0@nlohmann@@V?$vector@EV?$allocator@E@std@@@2@X@json_abi_v3_12_0@nlohmann@@@detail@23@XZ 10037670 f i RTXLevelProperties.obj
 0001:00036730       ?begin@?$iteration_proxy@V?$iter_impl@V?$basic_json@Vmap@std@@Vvector@2@V?$basic_string@DU?$char_traits@D@std@@V?$allocator@D@2@@2@_N_J_KNVallocator@2@Uadl_serializer@json_abi_v3_12_0@nlohmann@@V?$vector@EV?$allocator@E@std@@@2@X@json_abi_v3_12_0@nlohmann@@@detail@json_abi_v3_12_0@nlohmann@@@detail@json_abi_v3_12_0@nlohmann@@QBE?AV?$iteration_proxy_value@V?$iter_impl@V?$basic_json@Vmap@std@@Vvector@2@V?$basic_string@DU?$char_traits@D@std@@V?$allocator@D@2@@2@_N_J_KNVallocator@2@Uadl_serializer@json_abi_v3_12_0@nlohmann@@V?$vector@EV?$allocator@E@std@@@2@X@json_abi_v3_12_0@nlohmann@@@detail@json_abi_v3_12_0@nlohmann@@@234@XZ 10037730 f i RTXLevelProperties.obj
 0001:000367e0       ?boolean@?$json_sax_dom_parser@V?$basic_json@Vmap@std@@Vvector@2@V?$basic_string@DU?$char_traits@D@std@@V?$allocator@D@2@@2@_N_J_KNVallocator@2@Uadl_serializer@json_abi_v3_12_0@nlohmann@@V?$vector@EV?$allocator@E@std@@@2@X@json_abi_v3_12_0@nlohmann@@Vinput_stream_adapter@detail@23@@detail@json_abi_v3_12_0@nlohmann@@QAE_N_N@Z 100377e0 f i RTXLevelProperties.obj
 0001:00036950       ?count_digits@?$serializer@V?$basic_json@Vmap@std@@Vvector@2@V?$basic_string@DU?$char_traits@D@std@@V?$allocator@D@2@@2@_N_J_KNVallocator@2@Uadl_serializer@json_abi_v3_12_0@nlohmann@@V?$vector@EV?$allocator@E@std@@@2@X@json_abi_v3_12_0@nlohmann@@@detail@json_abi_v3_12_0@nlohmann@@AAEI_K@Z 10037950 f i RTXLevelProperties.obj
 0001:00036a50       ?deallocate@?$allocator@I@std@@QAEXQAII@Z 10037a50 f i RTXLevelProperties.obj
 0001:00036ad0       ?deallocate@?$allocator@PAV?$basic_json@Vmap@std@@Vvector@2@V?$basic_string@DU?$char_traits@D@std@@V?$allocator@D@2@@2@_N_J_KNVallocator@2@Uadl_serializer@json_abi_v3_12_0@nlohmann@@V?$vector@EV?$allocator@E@std@@@2@X@json_abi_v3_12_0@nlohmann@@@std@@QAEXQAPAV?$basic_json@Vmap@std@@Vvector@2@V?$basic_string@DU?$char_traits@D@std@@V?$allocator@D@2@@2@_N_J_KNVallocator@2@Uadl_serializer@json_abi_v3_12_0@nlohmann@@V?$vector@EV?$allocator@E@std@@@2@X@json_abi_v3_12_0@nlohmann@@I@Z 10037ad0 f i RTXLevelProperties.obj
 0001:00036b50       ?deallocate@?$allocator@U?$_List_node@U?$pair@$$CBV?$basic_string@DU?$char_traits@D@std@@V?$allocator@D@2@@std@@V12@@std@@PAX@std@@@std@@QAEXQAU?$_List_node@U?$pair@$$CBV?$basic_string@DU?$char_traits@D@std@@V?$allocator@D@2@@std@@V12@@std@@PAX@2@I@Z 10037b50 f i RTXLevelProperties.obj
 0001:00036bd0       ?deallocate@?$allocator@V?$basic_json@Vmap@std@@Vvector@2@V?$basic_string@DU?$char_traits@D@std@@V?$allocator@D@2@@2@_N_J_KNVallocator@2@Uadl_serializer@json_abi_v3_12_0@nlohmann@@V?$vector@EV?$allocator@E@std@@@2@X@json_abi_v3_12_0@nlohmann@@@std@@QAEXQAV?$basic_json@Vmap@std@@Vvector@2@V?$basic_string@DU?$char_traits@D@std@@V?$allocator@D@2@@2@_N_J_KNVallocator@2@Uadl_serializer@json_abi_v3_12_0@nlohmann@@V?$vector@EV?$allocator@E@std@@@2@X@json_abi_v3_12_0@nlohmann@@I@Z 10037bd0 f i RTXLevelProperties.obj
 0001:00036c50       ?deallocate@?$allocator@V?$basic_string@DU?$char_traits@D@std@@V?$allocator@D@2@@std@@@std@@QAEXQAV?$basic_string@DU?$char_traits@D@std@@V?$allocator@D@2@@2@I@Z 10037c50 f i RTXLevelProperties.obj
 0001:00036cd0       ?deallocate@?$allocator@V?$unique_ptr@VRTXAnchor@@U?$default_delete@VRTXAnchor@@@std@@@std@@@std@@QAEXQAV?$unique_ptr@VRTXAnchor@@U?$default_delete@VRTXAnchor@@@std@@@2@I@Z 10037cd0 f i RTXLevelProperties.obj
 0001:00036d50       ?destroy@json_value@?$basic_json@Vmap@std@@Vvector@2@V?$basic_string@DU?$char_traits@D@std@@V?$allocator@D@2@@2@_N_J_KNVallocator@2@Uadl_serializer@json_abi_v3_12_0@nlohmann@@V?$vector@EV?$allocator@E@std@@@2@X@json_abi_v3_12_0@nlohmann@@QAEXW4value_t@detail@34@@Z 10037d50 f i RTXLevelProperties.obj
 0001:000370b0       ?do_always_noconv@?$codecvt@DDU_Mbstatet@@@std@@MBE_NXZ 100380b0 f i RTXLevelProperties.obj
 0001:000370c0       ?do_always_noconv@codecvt_base@std@@MBE_NXZ 100380c0 f i RTXLevelProperties.obj
 0001:000370d0       ?do_encoding@codecvt_base@std@@MBEHXZ 100380d0 f i RTXLevelProperties.obj
 0001:000370e0       ?do_in@?$codecvt@DDU_Mbstatet@@@std@@MBEHAAU_Mbstatet@@PBD1AAPBDPAD3AAPAD@Z 100380e0 f i RTXLevelProperties.obj
 0001:00037100       ?do_length@?$codecvt@DDU_Mbstatet@@@std@@MBEHAAU_Mbstatet@@PBD1I@Z 10038100 f i RTXLevelProperties.obj
 0001:00037120       ?do_max_length@codecvt_base@std@@MBEHXZ 10038120 f i RTXLevelProperties.obj
 0001:00037130       ?do_out@?$codecvt@DDU_Mbstatet@@@std@@MBEHAAU_Mbstatet@@PBD1AAPBDPAD3AAPAD@Z 10038130 f i RTXLevelProperties.obj
 0001:00037150       ?do_unshift@?$codecvt@DDU_Mbstatet@@@std@@MBEHAAU_Mbstatet@@PAD1AAPAD@Z 10038150 f i RTXLevelProperties.obj
 0001:00037170       ?dump@?$basic_json@Vmap@std@@Vvector@2@V?$basic_string@DU?$char_traits@D@std@@V?$allocator@D@2@@2@_N_J_KNVallocator@2@Uadl_serializer@json_abi_v3_12_0@nlohmann@@V?$vector@EV?$allocator@E@std@@@2@X@json_abi_v3_12_0@nlohmann@@QBE?AV?$basic_string@DU?$char_traits@D@std@@V?$allocator@D@2@@std@@HD_NW4error_handler_t@detail@23@@Z 10038170 f i RTXLevelProperties.obj
 0001:000374c0       ?dump@?$serializer@V?$basic_json@Vmap@std@@Vvector@2@V?$basic_string@DU?$char_traits@D@std@@V?$allocator@D@2@@2@_N_J_KNVallocator@2@Uadl_serializer@json_abi_v3_12_0@nlohmann@@V?$vector@EV?$allocator@E@std@@@2@X@json_abi_v3_12_0@nlohmann@@@detail@json_abi_v3_12_0@nlohmann@@QAEXABV?$basic_json@Vmap@std@@Vvector@2@V?$basic_string@DU?$char_traits@D@std@@V?$allocator@D@2@@2@_N_J_KNVallocator@2@Uadl_serializer@json_abi_v3_12_0@nlohmann@@V?$vector@EV?$allocator@E@std@@@2@X@34@_N1II@Z 100384c0 f i RTXLevelProperties.obj
 0001:00037db0       ?dump_escaped@?$serializer@V?$basic_json@Vmap@std@@Vvector@2@V?$basic_string@DU?$char_traits@D@std@@V?$allocator@D@2@@2@_N_J_KNVallocator@2@Uadl_serializer@json_abi_v3_12_0@nlohmann@@V?$vector@EV?$allocator@E@std@@@2@X@json_abi_v3_12_0@nlohmann@@@detail@json_abi_v3_12_0@nlohmann@@AAEXABV?$basic_string@DU?$char_traits@D@std@@V?$allocator@D@2@@std@@_N@Z 10038db0 f i RTXLevelProperties.obj
 0001:00038210       ?end@?$basic_json@Vmap@std@@Vvector@2@V?$basic_string@DU?$char_traits@D@std@@V?$allocator@D@2@@2@_N_J_KNVallocator@2@Uadl_serializer@json_abi_v3_12_0@nlohmann@@V?$vector@EV?$allocator@E@std@@@2@X@json_abi_v3_12_0@nlohmann@@QAE?AV?$iter_impl@V?$basic_json@Vmap@std@@Vvector@2@V?$basic_string@DU?$char_traits@D@std@@V?$allocator@D@2@@2@_N_J_KNVallocator@2@Uadl_serializer@json_abi_v3_12_0@nlohmann@@V?$vector@EV?$allocator@E@std@@@2@X@json_abi_v3_12_0@nlohmann@@@detail@23@XZ 10039210 f i RTXLevelProperties.obj
 0001:000382c0       ?end@?$iteration_proxy@V?$iter_impl@V?$basic_json@Vmap@std@@Vvector@2@V?$basic_string@DU?$char_traits@D@std@@V?$allocator@D@2@@2@_N_J_KNVallocator@2@Uadl_serializer@json_abi_v3_12_0@nlohmann@@V?$vector@EV?$allocator@E@std@@@2@X@json_abi_v3_12_0@nlohmann@@@detail@json_abi_v3_12_0@nlohmann@@@detail@json_abi_v3_12_0@nlohmann@@QBE?AV?$iteration_proxy_value@V?$iter_impl@V?$basic_json@Vmap@std@@Vvector@2@V?$basic_string@DU?$char_traits@D@std@@V?$allocator@D@2@@2@_N_J_KNVallocator@2@Uadl_serializer@json_abi_v3_12_0@nlohmann@@V?$vector@EV?$allocator@E@std@@@2@X@json_abi_v3_12_0@nlohmann@@@detail@json_abi_v3_12_0@nlohmann@@@234@XZ 100392c0 f i RTXLevelProperties.obj
 0001:00038370       ?end_array@?$json_sax_dom_callback_parser@V?$basic_json@Vmap@std@@Vvector@2@V?$basic_string@DU?$char_traits@D@std@@V?$allocator@D@2@@2@_N_J_KNVallocator@2@Uadl_serializer@json_abi_v3_12_0@nlohmann@@V?$vector@EV?$allocator@E@std@@@2@X@json_abi_v3_12_0@nlohmann@@Vinput_stream_adapter@detail@23@@detail@json_abi_v3_12_0@nlohmann@@QAE_NXZ 10039370 f i RTXLevelProperties.obj
 0001:00038480       ?end_object@?$json_sax_dom_callback_parser@V?$basic_json@Vmap@std@@Vvector@2@V?$basic_string@DU?$char_traits@D@std@@V?$allocator@D@2@@2@_N_J_KNVallocator@2@Uadl_serializer@json_abi_v3_12_0@nlohmann@@V?$vector@EV?$allocator@E@std@@@2@X@json_abi_v3_12_0@nlohmann@@Vinput_stream_adapter@detail@23@@detail@json_abi_v3_12_0@nlohmann@@QAE_NXZ 10039480 f i RTXLevelProperties.obj
 0001:000385f0       ?erase@?$vector@_NV?$allocator@_N@std@@@std@@QAE?AV?$_Vb_iterator@U?$_Wrap_alloc@V?$allocator@I@std@@@std@@@2@V?$_Vb_const_iterator@U?$_Wrap_alloc@V?$allocator@I@std@@@std@@@2@@Z 100395f0 f i RTXLevelProperties.obj
 0001:00038790       ?exception_message@?$parser@V?$basic_json@Vmap@std@@Vvector@2@V?$basic_string@DU?$char_traits@D@std@@V?$allocator@D@2@@2@_N_J_KNVallocator@2@Uadl_serializer@json_abi_v3_12_0@nlohmann@@V?$vector@EV?$allocator@E@std@@@2@X@json_abi_v3_12_0@nlohmann@@Vinput_stream_adapter@detail@23@@detail@json_abi_v3_12_0@nlohmann@@AAE?AV?$basic_string@DU?$char_traits@D@std@@V?$allocator@D@2@@std@@W4token_type@?$lexer_base@V?$basic_json@Vmap@std@@Vvector@2@V?$basic_string@DU?$char_traits@D@std@@V?$allocator@D@2@@2@_N_J_KNVallocator@2@Uadl_serializer@json_abi_v3_12_0@nlohmann@@V?$vector@EV?$allocator@E@std@@@2@X@json_abi_v3_12_0@nlohmann@@@234@ABV56@@Z 10039790 f i RTXLevelProperties.obj
 0001:00038b80       ?floored_mod@@YANNN@Z      10039b80 f   RTXLevelProperties.obj
 0001:00038bb0       ?format_buffer@dtoa_impl@detail@json_abi_v3_12_0@nlohmann@@YAPADPADHHHH@Z 10039bb0 f i RTXLevelProperties.obj
 0001:00038d40       ?from_json@@YAXABV?$basic_json@Vmap@std@@Vvector@2@V?$basic_string@DU?$char_traits@D@std@@V?$allocator@D@2@@2@_N_J_KNVallocator@2@Uadl_serializer@json_abi_v3_12_0@nlohmann@@V?$vector@EV?$allocator@E@std@@@2@X@json_abi_v3_12_0@nlohmann@@AAVFVector@@@Z 10039d40 f   RTXLevelProperties.obj
 0001:00038d90       ?get@?$lexer@V?$basic_json@Vmap@std@@Vvector@2@V?$basic_string@DU?$char_traits@D@std@@V?$allocator@D@2@@2@_N_J_KNVallocator@2@Uadl_serializer@json_abi_v3_12_0@nlohmann@@V?$vector@EV?$allocator@E@std@@@2@X@json_abi_v3_12_0@nlohmann@@Vinput_stream_adapter@detail@23@@detail@json_abi_v3_12_0@nlohmann@@AAEHXZ 10039d90 f i RTXLevelProperties.obj
 0001:00038e90       ?getHashTexBlacklist@@YA?AV?$unordered_set@V?$basic_string@GU?$char_traits@G@std@@V?$allocator@G@2@@std@@U?$hash@V?$basic_string@GU?$char_traits@G@std@@V?$allocator@G@2@@std@@@2@U?$equal_to@V?$basic_string@GU?$char_traits@G@std@@V?$allocator@G@2@@std@@@2@V?$allocator@V?$basic_string@GU?$char_traits@G@std@@V?$allocator@G@2@@std@@@2@@std@@XZ 10039e90 f   RTXLevelProperties.obj
 0001:00039160       ?get_codepoint@?$lexer@V?$basic_json@Vmap@std@@Vvector@2@V?$basic_string@DU?$char_traits@D@std@@V?$allocator@D@2@@2@_N_J_KNVallocator@2@Uadl_serializer@json_abi_v3_12_0@nlohmann@@V?$vector@EV?$allocator@E@std@@@2@X@json_abi_v3_12_0@nlohmann@@Vinput_stream_adapter@detail@23@@detail@json_abi_v3_12_0@nlohmann@@AAEHXZ 1003a160 f i RTXLevelProperties.obj
 0001:00039300       ?get_string@?$lexer@V?$basic_json@Vmap@std@@Vvector@2@V?$basic_string@DU?$char_traits@D@std@@V?$allocator@D@2@@2@_N_J_KNVallocator@2@Uadl_serializer@json_abi_v3_12_0@nlohmann@@V?$vector@EV?$allocator@E@std@@@2@X@json_abi_v3_12_0@nlohmann@@Vinput_stream_adapter@detail@23@@detail@json_abi_v3_12_0@nlohmann@@QAEAAV?$basic_string@DU?$char_traits@D@std@@V?$allocator@D@2@@std@@XZ 1003a300 f i RTXLevelProperties.obj
 0001:00039330       ?get_token_string@?$lexer@V?$basic_json@Vmap@std@@Vvector@2@V?$basic_string@DU?$char_traits@D@std@@V?$allocator@D@2@@2@_N_J_KNVallocator@2@Uadl_serializer@json_abi_v3_12_0@nlohmann@@V?$vector@EV?$allocator@E@std@@@2@X@json_abi_v3_12_0@nlohmann@@Vinput_stream_adapter@detail@23@@detail@json_abi_v3_12_0@nlohmann@@QBE?AV?$basic_string@DU?$char_traits@D@std@@V?$allocator@D@2@@std@@XZ 1003a330 f i RTXLevelProperties.obj
 0001:00039540       ?grisu2_digit_gen@dtoa_impl@detail@json_abi_v3_12_0@nlohmann@@YAXPADAAH1Udiyfp@1234@22@Z 1003a540 f i RTXLevelProperties.obj
 0001:000398a0       ?grisu2_round@dtoa_impl@detail@json_abi_v3_12_0@nlohmann@@YAXPADH_K111@Z 1003a8a0 f i RTXLevelProperties.obj
 0001:00039950       ?hex_bytes@?$serializer@V?$basic_json@Vmap@std@@Vvector@2@V?$basic_string@DU?$char_traits@D@std@@V?$allocator@D@2@@2@_N_J_KNVallocator@2@Uadl_serializer@json_abi_v3_12_0@nlohmann@@V?$vector@EV?$allocator@E@std@@@2@X@json_abi_v3_12_0@nlohmann@@@detail@json_abi_v3_12_0@nlohmann@@CA?AV?$basic_string@DU?$char_traits@D@std@@V?$allocator@D@2@@std@@E@Z 1003a950 f i RTXLevelProperties.obj
 0001:00039a20       ?imbue@?$basic_filebuf@DU?$char_traits@D@std@@@std@@MAEXABVlocale@2@@Z 1003aa20 f i RTXLevelProperties.obj
 0001:00039a40       ?input_adapter@detail@json_abi_v3_12_0@nlohmann@@YA?AVinput_stream_adapter@123@AAV?$basic_istream@DU?$char_traits@D@std@@@std@@@Z 1003aa40 f i RTXLevelProperties.obj
 0001:00039aa0       ?key@?$json_sax_dom_callback_parser@V?$basic_json@Vmap@std@@Vvector@2@V?$basic_string@DU?$char_traits@D@std@@V?$allocator@D@2@@2@_N_J_KNVallocator@2@Uadl_serializer@json_abi_v3_12_0@nlohmann@@V?$vector@EV?$allocator@E@std@@@2@X@json_abi_v3_12_0@nlohmann@@Vinput_stream_adapter@detail@23@@detail@json_abi_v3_12_0@nlohmann@@QAE_NAAV?$basic_string@DU?$char_traits@D@std@@V?$allocator@D@2@@std@@@Z 1003aaa0 f i RTXLevelProperties.obj
 0001:00039b90       ?key@?$json_sax_dom_parser@V?$basic_json@Vmap@std@@Vvector@2@V?$basic_string@DU?$char_traits@D@std@@V?$allocator@D@2@@2@_N_J_KNVallocator@2@Uadl_serializer@json_abi_v3_12_0@nlohmann@@V?$vector@EV?$allocator@E@std@@@2@X@json_abi_v3_12_0@nlohmann@@Vinput_stream_adapter@detail@23@@detail@json_abi_v3_12_0@nlohmann@@QAE_NAAV?$basic_string@DU?$char_traits@D@std@@V?$allocator@D@2@@std@@@Z 1003ab90 f i RTXLevelProperties.obj
 0001:00039bc0       ?loadAnchorsArray@@YAXAAV?$basic_json@Vmap@std@@Vvector@2@V?$basic_string@DU?$char_traits@D@std@@V?$allocator@D@2@@2@_N_J_KNVallocator@2@Uadl_serializer@json_abi_v3_12_0@nlohmann@@V?$vector@EV?$allocator@E@std@@@2@X@json_abi_v3_12_0@nlohmann@@ABV?$basic_string@DU?$char_traits@D@std@@V?$allocator@D@2@@std@@AAV?$vector@V?$unique_ptr@VRTXAnchor@@U?$default_delete@VRTXAnchor@@@std@@@std@@V?$allocator@V?$unique_ptr@VRTXAnchor@@U?$default_delete@VRTXAnchor@@@std@@@std@@@2@@5@@Z 1003abc0 f   RTXLevelProperties.obj
 0001:0003b9c0       ?loadConfigFile@@YA?AV?$basic_json@Vmap@std@@Vvector@2@V?$basic_string@DU?$char_traits@D@std@@V?$allocator@D@2@@2@_N_J_KNVallocator@2@Uadl_serializer@json_abi_v3_12_0@nlohmann@@V?$vector@EV?$allocator@E@std@@@2@X@json_abi_v3_12_0@nlohmann@@XZ 1003c9c0 f   RTXLevelProperties.obj
 0001:0003bc90       ?loadConfigVars@@YAXAAV?$basic_json@Vmap@std@@Vvector@2@V?$basic_string@DU?$char_traits@D@std@@V?$allocator@D@2@@2@_N_J_KNVallocator@2@Uadl_serializer@json_abi_v3_12_0@nlohmann@@V?$vector@EV?$allocator@E@std@@@2@X@json_abi_v3_12_0@nlohmann@@ABV?$basic_string@DU?$char_traits@D@std@@V?$allocator@D@2@@std@@AAV?$unordered_map@V?$basic_string@DU?$char_traits@D@std@@V?$allocator@D@2@@std@@V12@U?$hash@V?$basic_string@DU?$char_traits@D@std@@V?$allocator@D@2@@std@@@2@U?$equal_to@V?$basic_string@DU?$char_traits@D@std@@V?$allocator@D@2@@std@@@2@V?$allocator@U?$pair@$$CBV?$basic_string@DU?$char_traits@D@std@@V?$allocator@D@2@@std@@V12@@std@@@2@@5@@Z 1003cc90 f   RTXLevelProperties.obj
 0001:0003c1f0       ?loadLevelJson@@YAXPBDAAV?$vector@V?$unique_ptr@VRTXAnchor@@U?$default_delete@VRTXAnchor@@@std@@@std@@V?$allocator@V?$unique_ptr@VRTXAnchor@@U?$default_delete@VRTXAnchor@@@std@@@std@@@2@@std@@AAV?$unordered_map@V?$basic_string@DU?$char_traits@D@std@@V?$allocator@D@2@@std@@V12@U?$hash@V?$basic_string@DU?$char_traits@D@std@@V?$allocator@D@2@@std@@@2@U?$equal_to@V?$basic_string@DU?$char_traits@D@std@@V?$allocator@D@2@@std@@@2@V?$allocator@U?$pair@$$CBV?$basic_string@DU?$char_traits@D@std@@V?$allocator@D@2@@std@@V12@@std@@@2@@2@@Z 1003d1f0 f   RTXLevelProperties.obj
 0001:0003c780       ?max_size@?$basic_json@Vmap@std@@Vvector@2@V?$basic_string@DU?$char_traits@D@std@@V?$allocator@D@2@@2@_N_J_KNVallocator@2@Uadl_serializer@json_abi_v3_12_0@nlohmann@@V?$vector@EV?$allocator@E@std@@@2@X@json_abi_v3_12_0@nlohmann@@QBEIXZ 1003d780 f i RTXLevelProperties.obj
 0001:0003c810       ?mul@diyfp@dtoa_impl@detail@json_abi_v3_12_0@nlohmann@@SA?AU12345@ABU12345@0@Z 1003d810 f i RTXLevelProperties.obj
 0001:0003c8b0       ?name@exception@detail@json_abi_v3_12_0@nlohmann@@KA?AV?$basic_string@DU?$char_traits@D@std@@V?$allocator@D@2@@std@@ABV56@H@Z 1003d8b0 f i RTXLevelProperties.obj
 0001:0003c990       ?next_byte_in_range@?$lexer@V?$basic_json@Vmap@std@@Vvector@2@V?$basic_string@DU?$char_traits@D@std@@V?$allocator@D@2@@2@_N_J_KNVallocator@2@Uadl_serializer@json_abi_v3_12_0@nlohmann@@V?$vector@EV?$allocator@E@std@@@2@X@json_abi_v3_12_0@nlohmann@@Vinput_stream_adapter@detail@23@@detail@json_abi_v3_12_0@nlohmann@@AAE_NV?$initializer_list@H@std@@@Z 1003d990 f i RTXLevelProperties.obj
 0001:0003caf0       ?normalize@diyfp@dtoa_impl@detail@json_abi_v3_12_0@nlohmann@@SA?AU12345@U12345@@Z 1003daf0 f i RTXLevelProperties.obj
 0001:0003cb40       ?normalize_level_name@@YA?AV?$basic_string@DU?$char_traits@D@std@@V?$allocator@D@2@@std@@ABV12@@Z 1003db40 f   RTXLevelProperties.obj
 0001:0003d3e0       ?null@?$json_sax_dom_callback_parser@V?$basic_json@Vmap@std@@Vvector@2@V?$basic_string@DU?$char_traits@D@std@@V?$allocator@D@2@@2@_N_J_KNVallocator@2@Uadl_serializer@json_abi_v3_12_0@nlohmann@@V?$vector@EV?$allocator@E@std@@@2@X@json_abi_v3_12_0@nlohmann@@Vinput_stream_adapter@detail@23@@detail@json_abi_v3_12_0@nlohmann@@QAE_NXZ 1003e3e0 f i RTXLevelProperties.obj
 0001:0003d410       ?null@?$json_sax_dom_parser@V?$basic_json@Vmap@std@@Vvector@2@V?$basic_string@DU?$char_traits@D@std@@V?$allocator@D@2@@2@_N_J_KNVallocator@2@Uadl_serializer@json_abi_v3_12_0@nlohmann@@V?$vector@EV?$allocator@E@std@@@2@X@json_abi_v3_12_0@nlohmann@@Vinput_stream_adapter@detail@23@@detail@json_abi_v3_12_0@nlohmann@@QAE_NXZ 1003e410 f i RTXLevelProperties.obj
 0001:0003d520       ?number_float@?$json_sax_dom_parser@V?$basic_json@Vmap@std@@Vvector@2@V?$basic_string@DU?$char_traits@D@std@@V?$allocator@D@2@@2@_N_J_KNVallocator@2@Uadl_serializer@json_abi_v3_12_0@nlohmann@@V?$vector@EV?$allocator@E@std@@@2@X@json_abi_v3_12_0@nlohmann@@Vinput_stream_adapter@detail@23@@detail@json_abi_v3_12_0@nlohmann@@QAE_NNABV?$basic_string@DU?$char_traits@D@std@@V?$allocator@D@2@@std@@@Z 1003e520 f i RTXLevelProperties.obj
 0001:0003d640       ?number_integer@?$json_sax_dom_parser@V?$basic_json@Vmap@std@@Vvector@2@V?$basic_string@DU?$char_traits@D@std@@V?$allocator@D@2@@2@_N_J_KNVallocator@2@Uadl_serializer@json_abi_v3_12_0@nlohmann@@V?$vector@EV?$allocator@E@std@@@2@X@json_abi_v3_12_0@nlohmann@@Vinput_stream_adapter@detail@23@@detail@json_abi_v3_12_0@nlohmann@@QAE_N_J@Z 1003e640 f i RTXLevelProperties.obj
 0001:0003d760       ?number_unsigned@?$json_sax_dom_parser@V?$basic_json@Vmap@std@@Vvector@2@V?$basic_string@DU?$char_traits@D@std@@V?$allocator@D@2@@2@_N_J_KNVallocator@2@Uadl_serializer@json_abi_v3_12_0@nlohmann@@V?$vector@EV?$allocator@E@std@@@2@X@json_abi_v3_12_0@nlohmann@@Vinput_stream_adapter@detail@23@@detail@json_abi_v3_12_0@nlohmann@@QAE_N_K@Z 1003e760 f i RTXLevelProperties.obj
 0001:0003d880       ?overflow@?$basic_filebuf@DU?$char_traits@D@std@@@std@@MAEHH@Z 1003e880 f i RTXLevelProperties.obj
 0001:0003da00       ?parse@?$parser@V?$basic_json@Vmap@std@@Vvector@2@V?$basic_string@DU?$char_traits@D@std@@V?$allocator@D@2@@2@_N_J_KNVallocator@2@Uadl_serializer@json_abi_v3_12_0@nlohmann@@V?$vector@EV?$allocator@E@std@@@2@X@json_abi_v3_12_0@nlohmann@@Vinput_stream_adapter@detail@23@@detail@json_abi_v3_12_0@nlohmann@@QAEX_NAAV?$basic_json@Vmap@std@@Vvector@2@V?$basic_string@DU?$char_traits@D@std@@V?$allocator@D@2@@2@_N_J_KNVallocator@2@Uadl_serializer@json_abi_v3_12_0@nlohmann@@V?$vector@EV?$allocator@E@std@@@2@X@34@@Z 1003ea00 f i RTXLevelProperties.obj
 0001:0003df10       ?pbackfail@?$basic_filebuf@DU?$char_traits@D@std@@@std@@MAEHH@Z 1003ef10 f i RTXLevelProperties.obj
 0001:0003dfc0       ?pop_back@?$vector@_NV?$allocator@_N@std@@@std@@QAEXXZ 1003efc0 f i RTXLevelProperties.obj
 0001:0003e040       ?push_back@?$basic_string@DU?$char_traits@D@std@@V?$allocator@D@2@@std@@QAEXD@Z 1003f040 f i RTXLevelProperties.obj
 0001:0003e160       ?push_back@?$vector@_NV?$allocator@_N@std@@@std@@QAEXAB_N@Z 1003f160 f i RTXLevelProperties.obj
 0001:0003e200       ?replace@?$basic_string@DU?$char_traits@D@std@@V?$allocator@D@2@@std@@QAEAAV12@IIQBDI@Z 1003f200 f i RTXLevelProperties.obj
 0001:0003e370       ?reserve@?$basic_string@DU?$char_traits@D@std@@V?$allocator@D@2@@std@@QAEXI@Z 1003f370 f i RTXLevelProperties.obj
 0001:0003e470       ?reserve@?$vector@V?$basic_json@Vmap@std@@Vvector@2@V?$basic_string@DU?$char_traits@D@std@@V?$allocator@D@2@@2@_N_J_KNVallocator@2@Uadl_serializer@json_abi_v3_12_0@nlohmann@@V?$vector@EV?$allocator@E@std@@@2@X@json_abi_v3_12_0@nlohmann@@V?$allocator@V?$basic_json@Vmap@std@@Vvector@2@V?$basic_string@DU?$char_traits@D@std@@V?$allocator@D@2@@2@_N_J_KNVallocator@2@Uadl_serializer@json_abi_v3_12_0@nlohmann@@V?$vector@EV?$allocator@E@std@@@2@X@json_abi_v3_12_0@nlohmann@@@std@@@std@@QAEXI@Z 1003f470 f i RTXLevelProperties.obj
 0001:0003e560       ?reset@?$lexer@V?$basic_json@Vmap@std@@Vvector@2@V?$basic_string@DU?$char_traits@D@std@@V?$allocator@D@2@@2@_N_J_KNVallocator@2@Uadl_serializer@json_abi_v3_12_0@nlohmann@@V?$vector@EV?$allocator@E@std@@@2@X@json_abi_v3_12_0@nlohmann@@Vinput_stream_adapter@detail@23@@detail@json_abi_v3_12_0@nlohmann@@AAEXXZ 1003f560 f i RTXLevelProperties.obj
 0001:0003e5f0       ?resize@?$basic_string@DU?$char_traits@D@std@@V?$allocator@D@2@@std@@QAEXID@Z 1003f5f0 f i RTXLevelProperties.obj
 0001:0003e620       ?s2ws@@YA?AV?$basic_string@GU?$char_traits@G@std@@V?$allocator@G@2@@std@@ABV?$basic_string@DU?$char_traits@D@std@@V?$allocator@D@2@@2@@Z 1003f620 f   RTXLevelProperties.obj
 0001:0003e780       ?scan@?$lexer@V?$basic_json@Vmap@std@@Vvector@2@V?$basic_string@DU?$char_traits@D@std@@V?$allocator@D@2@@2@_N_J_KNVallocator@2@Uadl_serializer@json_abi_v3_12_0@nlohmann@@V?$vector@EV?$allocator@E@std@@@2@X@json_abi_v3_12_0@nlohmann@@Vinput_stream_adapter@detail@23@@detail@json_abi_v3_12_0@nlohmann@@QAE?AW4token_type@?$lexer_base@V?$basic_json@Vmap@std@@Vvector@2@V?$basic_string@DU?$char_traits@D@std@@V?$allocator@D@2@@2@_N_J_KNVallocator@2@Uadl_serializer@json_abi_v3_12_0@nlohmann@@V?$vector@EV?$allocator@E@std@@@2@X@json_abi_v3_12_0@nlohmann@@@234@XZ 1003f780 f i RTXLevelProperties.obj
 0001:0003eaf0       ?scan_comment@?$lexer@V?$basic_json@Vmap@std@@Vvector@2@V?$basic_string@DU?$char_traits@D@std@@V?$allocator@D@2@@2@_N_J_KNVallocator@2@Uadl_serializer@json_abi_v3_12_0@nlohmann@@V?$vector@EV?$allocator@E@std@@@2@X@json_abi_v3_12_0@nlohmann@@Vinput_stream_adapter@detail@23@@detail@json_abi_v3_12_0@nlohmann@@AAE_NXZ 1003faf0 f i RTXLevelProperties.obj
 0001:0003ecb0       ?scan_literal@?$lexer@V?$basic_json@Vmap@std@@Vvector@2@V?$basic_string@DU?$char_traits@D@std@@V?$allocator@D@2@@2@_N_J_KNVallocator@2@Uadl_serializer@json_abi_v3_12_0@nlohmann@@V?$vector@EV?$allocator@E@std@@@2@X@json_abi_v3_12_0@nlohmann@@Vinput_stream_adapter@detail@23@@detail@json_abi_v3_12_0@nlohmann@@AAE?AW4token_type@?$lexer_base@V?$basic_json@Vmap@std@@Vvector@2@V?$basic_string@DU?$char_traits@D@std@@V?$allocator@D@2@@2@_N_J_KNVallocator@2@Uadl_serializer@json_abi_v3_12_0@nlohmann@@V?$vector@EV?$allocator@E@std@@@2@X@json_abi_v3_12_0@nlohmann@@@234@PBDIW456234@@Z 1003fcb0 f i RTXLevelProperties.obj
 0001:0003ee00       ?scan_number@?$lexer@V?$basic_json@Vmap@std@@Vvector@2@V?$basic_string@DU?$char_traits@D@std@@V?$allocator@D@2@@2@_N_J_KNVallocator@2@Uadl_serializer@json_abi_v3_12_0@nlohmann@@V?$vector@EV?$allocator@E@std@@@2@X@json_abi_v3_12_0@nlohmann@@Vinput_stream_adapter@detail@23@@detail@json_abi_v3_12_0@nlohmann@@AAE?AW4token_type@?$lexer_base@V?$basic_json@Vmap@std@@Vvector@2@V?$basic_string@DU?$char_traits@D@std@@V?$allocator@D@2@@2@_N_J_KNVallocator@2@Uadl_serializer@json_abi_v3_12_0@nlohmann@@V?$vector@EV?$allocator@E@std@@@2@X@json_abi_v3_12_0@nlohmann@@@234@XZ 1003fe00 f i RTXLevelProperties.obj
 0001:0003f4c0       ?scan_string@?$lexer@V?$basic_json@Vmap@std@@Vvector@2@V?$basic_string@DU?$char_traits@D@std@@V?$allocator@D@2@@2@_N_J_KNVallocator@2@Uadl_serializer@json_abi_v3_12_0@nlohmann@@V?$vector@EV?$allocator@E@std@@@2@X@json_abi_v3_12_0@nlohmann@@Vinput_stream_adapter@detail@23@@detail@json_abi_v3_12_0@nlohmann@@AAE?AW4token_type@?$lexer_base@V?$basic_json@Vmap@std@@Vvector@2@V?$basic_string@DU?$char_traits@D@std@@V?$allocator@D@2@@2@_N_J_KNVallocator@2@Uadl_serializer@json_abi_v3_12_0@nlohmann@@V?$vector@EV?$allocator@E@std@@@2@X@json_abi_v3_12_0@nlohmann@@@234@XZ 100404c0 f i RTXLevelProperties.obj
 0001:0003fca0       ?seekoff@?$basic_filebuf@DU?$char_traits@D@std@@@std@@MAE?AV?$fpos@U_Mbstatet@@@2@_JHH@Z 10040ca0 f i RTXLevelProperties.obj
 0001:0003fd80       ?seekpos@?$basic_filebuf@DU?$char_traits@D@std@@@std@@MAE?AV?$fpos@U_Mbstatet@@@2@V32@H@Z 10040d80 f i RTXLevelProperties.obj
 0001:0003fe50       ?setbuf@?$basic_filebuf@DU?$char_traits@D@std@@@std@@MAEPAV?$basic_streambuf@DU?$char_traits@D@std@@@2@PAD_J@Z 10040e50 f i RTXLevelProperties.obj
 0001:0003feb0       ?skip_whitespace@?$lexer@V?$basic_json@Vmap@std@@Vvector@2@V?$basic_string@DU?$char_traits@D@std@@V?$allocator@D@2@@2@_N_J_KNVallocator@2@Uadl_serializer@json_abi_v3_12_0@nlohmann@@V?$vector@EV?$allocator@E@std@@@2@X@json_abi_v3_12_0@nlohmann@@Vinput_stream_adapter@detail@23@@detail@json_abi_v3_12_0@nlohmann@@QAEXXZ 10040eb0 f i RTXLevelProperties.obj
 0001:0003ffe0       ?start_array@?$json_sax_dom_callback_parser@V?$basic_json@Vmap@std@@Vvector@2@V?$basic_string@DU?$char_traits@D@std@@V?$allocator@D@2@@2@_N_J_KNVallocator@2@Uadl_serializer@json_abi_v3_12_0@nlohmann@@V?$vector@EV?$allocator@E@std@@@2@X@json_abi_v3_12_0@nlohmann@@Vinput_stream_adapter@detail@23@@detail@json_abi_v3_12_0@nlohmann@@QAE_NI@Z 10040fe0 f i RTXLevelProperties.obj
 0001:00040110       ?start_array@?$json_sax_dom_parser@V?$basic_json@Vmap@std@@Vvector@2@V?$basic_string@DU?$char_traits@D@std@@V?$allocator@D@2@@2@_N_J_KNVallocator@2@Uadl_serializer@json_abi_v3_12_0@nlohmann@@V?$vector@EV?$allocator@E@std@@@2@X@json_abi_v3_12_0@nlohmann@@Vinput_stream_adapter@detail@23@@detail@json_abi_v3_12_0@nlohmann@@QAE_NI@Z 10041110 f i RTXLevelProperties.obj
 0001:00040200       ?start_object@?$json_sax_dom_callback_parser@V?$basic_json@Vmap@std@@Vvector@2@V?$basic_string@DU?$char_traits@D@std@@V?$allocator@D@2@@2@_N_J_KNVallocator@2@Uadl_serializer@json_abi_v3_12_0@nlohmann@@V?$vector@EV?$allocator@E@std@@@2@X@json_abi_v3_12_0@nlohmann@@Vinput_stream_adapter@detail@23@@detail@json_abi_v3_12_0@nlohmann@@QAE_NI@Z 10041200 f i RTXLevelProperties.obj
 0001:00040330       ?start_object@?$json_sax_dom_parser@V?$basic_json@Vmap@std@@Vvector@2@V?$basic_string@DU?$char_traits@D@std@@V?$allocator@D@2@@2@_N_J_KNVallocator@2@Uadl_serializer@json_abi_v3_12_0@nlohmann@@V?$vector@EV?$allocator@E@std@@@2@X@json_abi_v3_12_0@nlohmann@@Vinput_stream_adapter@detail@23@@detail@json_abi_v3_12_0@nlohmann@@QAE_NI@Z 10041330 f i RTXLevelProperties.obj
 0001:00040420       ?string@?$json_sax_dom_parser@V?$basic_json@Vmap@std@@Vvector@2@V?$basic_string@DU?$char_traits@D@std@@V?$allocator@D@2@@2@_N_J_KNVallocator@2@Uadl_serializer@json_abi_v3_12_0@nlohmann@@V?$vector@EV?$allocator@E@std@@@2@X@json_abi_v3_12_0@nlohmann@@Vinput_stream_adapter@detail@23@@detail@json_abi_v3_12_0@nlohmann@@QAE_NAAV?$basic_string@DU?$char_traits@D@std@@V?$allocator@D@2@@std@@@Z 10041420 f i RTXLevelProperties.obj
 0001:00040510       ?subtype@?$byte_container_with_subtype@V?$vector@EV?$allocator@E@std@@@std@@@json_abi_v3_12_0@nlohmann@@QBE_KXZ 10041510 f i RTXLevelProperties.obj
 0001:00040530       ?sync@?$basic_filebuf@DU?$char_traits@D@std@@@std@@MAEHXZ 10041530 f i RTXLevelProperties.obj
 0001:00040560       ?toLower@@YA?AV?$basic_string@DU?$char_traits@D@std@@V?$allocator@D@2@@std@@ABV12@@Z 10041560 f   RTXLevelProperties.obj
 0001:00040620       ?to_app_str@@YA?AV?$basic_string@DU?$char_traits@D@std@@V?$allocator@D@2@@std@@V12@@Z 10041620 f i RTXLevelProperties.obj
 0001:000406c0       ?to_string@std@@YA?AV?$basic_string@DU?$char_traits@D@std@@V?$allocator@D@2@@1@I@Z 100416c0 f i RTXLevelProperties.obj
 0001:00040720       ?token_type_name@?$lexer_base@V?$basic_json@Vmap@std@@Vvector@2@V?$basic_string@DU?$char_traits@D@std@@V?$allocator@D@2@@2@_N_J_KNVallocator@2@Uadl_serializer@json_abi_v3_12_0@nlohmann@@V?$vector@EV?$allocator@E@std@@@2@X@json_abi_v3_12_0@nlohmann@@@detail@json_abi_v3_12_0@nlohmann@@SAPBDW4token_type@1234@@Z 10041720 f i RTXLevelProperties.obj
 0001:000407f0       ?type_name@?$basic_json@Vmap@std@@Vvector@2@V?$basic_string@DU?$char_traits@D@std@@V?$allocator@D@2@@2@_N_J_KNVallocator@2@Uadl_serializer@json_abi_v3_12_0@nlohmann@@V?$vector@EV?$allocator@E@std@@@2@X@json_abi_v3_12_0@nlohmann@@QBEPBDXZ 100417f0 f i RTXLevelProperties.obj
 0001:00040860       ?uflow@?$basic_filebuf@DU?$char_traits@D@std@@@std@@MAEHXZ 10041860 f i RTXLevelProperties.obj
 0001:00040bc0       ?underflow@?$basic_filebuf@DU?$char_traits@D@std@@@std@@MAEHXZ 10041bc0 f i RTXLevelProperties.obj
 0001:00040c00       ?what@exception@detail@json_abi_v3_12_0@nlohmann@@UBEPBDXZ 10041c00 f i RTXLevelProperties.obj
 0001:00040c40       ?widen@?$basic_ios@DU?$char_traits@D@std@@@std@@QBEDD@Z 10041c40 f i RTXLevelProperties.obj
 0001:00040cf0       ?write_character@?$output_string_adapter@DV?$basic_string@DU?$char_traits@D@std@@V?$allocator@D@2@@std@@@detail@json_abi_v3_12_0@nlohmann@@UAEXD@Z 10041cf0 f i RTXLevelProperties.obj
 0001:00040d00       ?write_characters@?$output_string_adapter@DV?$basic_string@DU?$char_traits@D@std@@V?$allocator@D@2@@std@@@detail@json_abi_v3_12_0@nlohmann@@UAEXPBDI@Z 10041d00 f i RTXLevelProperties.obj
 0001:00040d10       ?ws2s@@YA?AV?$basic_string@DU?$char_traits@D@std@@V?$allocator@D@2@@std@@ABV?$basic_string@GU?$char_traits@G@std@@V?$allocator@G@2@@2@@Z 10041d10 f   RTXLevelProperties.obj
 0001:00040e70       ?xsgetn@?$basic_filebuf@DU?$char_traits@D@std@@@std@@MAE_JPAD_J@Z 10041e70 f i RTXLevelProperties.obj
 0001:00041040       ?xsputn@?$basic_filebuf@DU?$char_traits@D@std@@@std@@MAE_JPBD_J@Z 10042040 f i RTXLevelProperties.obj
 0001:000412f0       _snprintf                  100422f0 f i RTXLevelProperties.obj
 0001:00041322       ?PushBytes@FMemStack@@QAEPAEHH@Z 10042322 f   Core:Core.dll
 0001:00041328       ?IsA@UObject@@QBEHPAVUClass@@@Z 10042328 f   Core:Core.dll
 0001:0004132e       ?GMem@@3VFMemStack@@A      1004232e f   Core:Core.dll
 0001:00041334       ?GIsEditor@@3HA            10042334 f   Core:Core.dll
 0001:0004133a       ?GMath@@3VFGlobalMath@@A   1004233a f   Core:Core.dll
 0001:00041340       ?IsValid@FName@@QAEHXZ     10042340 f   Core:Core.dll
 0001:00041346       ??DFName@@QBEPBDXZ         10042346 f   Core:Core.dll
 0001:0004134c       ??0FName@@QAE@PBDW4EFindName@@@Z 1004234c f   Core:Core.dll
 0001:00041352       ??0FString@@QAE@XZ         10042352 f   Core:Core.dll
 0001:00041358       ??0FString@@QAE@PBD@Z      10042358 f   Core:Core.dll
 0001:0004135e       ??DFString@@QBEPBDXZ       1004235e f   Core:Core.dll
 0001:00041364       ??1FString@@QAE@XZ         10042364 f   Core:Core.dll
 0001:0004136a       ?Init@FMemStack@@QAEXH@Z   1004236a f   Core:Core.dll
 0001:00041370       ??0FMemMark@@QAE@AAVFMemStack@@@Z 10042370 f   Core:Core.dll
 0001:00041376       ?Pop@FMemMark@@QAEXXZ      10042376 f   Core:Core.dll
 0001:0004137c       ?StaticConstructObject@UObject@@SAPAV1@PAVUClass@@PAV1@VFName@@K1PAVFOutputDevice@@@Z 1004237c f   Core:Core.dll
 0001:00041382       ?IsValid@UObject@@QAEHXZ   10042382 f   Core:Core.dll
 0001:00041388       ??0UClass@@QAE@XZ          10042388 f   Core:Core.dll
 0001:0004138e       ??1UClass@@UAE@XZ          1004238e f   Core:Core.dll
 0001:00041394       ?IsPendingKill@UObject@@UAEHXZ 10042394 f   Core:Core.dll
 0001:0004139a       ?IncrementLogs@UObject@@UAEXXZ 1004239a f   Core:Core.dll
 0001:000413a0       ?IncrementWarnings@UObject@@UAEXXZ 100423a0 f   Core:Core.dll
 0001:000413a6       ?ProcessEvent@UObject@@UAEXPAVUFunction@@PAX1@Z 100423a6 f   Core:Core.dll
 0001:000413ac       ?ProcessState@UObject@@UAEXM@Z 100423ac f   Core:Core.dll
 0001:000413b2       ?ProcessRemoteFunction@UObject@@UAEHPAVUFunction@@PAXPAUFFrame@@@Z 100423b2 f   Core:Core.dll
 0001:000413b8       ?Modify@UObject@@UAEXXZ    100423b8 f   Core:Core.dll
 0001:000413be       ?PostLoad@UObject@@UAEXXZ  100423be f   Core:Core.dll
 0001:000413c4       ?Serialize@UObject@@UAEXAAVFArchive@@@Z 100423c4 f   Core:Core.dll
 0001:000413ca       ?InitExecution@UObject@@UAEXXZ 100423ca f   Core:Core.dll
 0001:000413d0       ?ShutdownAfterError@UObject@@UAEXXZ 100423d0 f   Core:Core.dll
 0001:000413d6       ?PostEditChange@UObject@@UAEXXZ 100423d6 f   Core:Core.dll
 0001:000413dc       ?ScriptConsoleExec@UObject@@UAEHPBDAAVFOutputDevice@@PAV1@@Z 100423dc f   Core:Core.dll
 0001:000413e2       ?Register@UObject@@UAEXXZ  100423e2 f   Core:Core.dll
 0001:000413e8       ?LanguageChange@UObject@@UAEXXZ 100423e8 f   Core:Core.dll
 0001:000413ee       ?GUglyHackFlags@@3KA       100423ee f   Core:Core.dll
 0001:000413f4       ?Printf@FString@@SA?AV1@PBDZZ 100423f4 f   Core:Core.dll
 0001:000413fa       ?Log@FOutputDevice@@QAEXPBD@Z 100423fa f   Core:Core.dll
 0001:00041400       ?Logf@FOutputDevice@@QAAXPBDZZ 10042400 f   Core:Core.dll
 0001:00041406       ?GetIndexedObject@UObject@@SAPAV1@H@Z 10042406 f   Core:Core.dll
 0001:0004140c       ?GetPathName@UObject@@QBEPBDPAV1@PAD@Z 1004240c f   Core:Core.dll
 0001:00041412       ?appSecondsSlow@@YANXZ     10042412 f   Core:Core.dll
 0001:00041418       ?appSleep@@YAXM@Z          10042418 f   Core:Core.dll
 0001:0004141e       ?GConfig@@3PAVFConfigCache@@A 1004241e f   Core:Core.dll
 0001:00041424       ?GSecondsPerCycle@@3NA     10042424 f   Core:Core.dll
 0001:0004142a       ??0FTextureInfo@@QAE@XZ    1004242a f   Engine:Engine.dll
 0001:00041430       ?StaticClass@ULodMesh@@SAPAVUClass@@XZ 10042430 f   Engine:Engine.dll
 0001:00041436       ?LifeFraction@AActor@@QAEMXZ 10042436 f   Engine:Engine.dll
 0001:0004143c       ?IsOwnedBy@AActor@@QBEHPBV1@@Z 1004243c f   Engine:Engine.dll
 0001:00041442       ?eventRenderOverlays@AActor@@QAEXPAVUCanvas@@@Z 10042442 f   Engine:Engine.dll
 0001:00041448       ?StaticClass@APawn@@SAPAVUClass@@XZ 10042448 f   Engine:Engine.dll
 0001:0004144e       ?StaticClass@AMover@@SAPAVUClass@@XZ 1004244e f   Engine:Engine.dll
 0001:00041454       ?StaticClass@ASkyZoneInfo@@SAPAVUClass@@XZ 10042454 f   Engine:Engine.dll
 0001:0004145a       ?GetZoneActor@ULevel@@QAEPAVAZoneInfo@@H@Z 1004245a f   Engine:Engine.dll
 0001:00041460       ?GetLevelInfo@ULevel@@QAEPAVALevelInfo@@XZ 10042460 f   Engine:Engine.dll
 0001:00041466       ??0FColor@@QAE@ABVFPlane@@@Z 10042466 f   Engine:Engine.dll
 0001:0004146c       ??0FSceneNode@@QAE@XZ      1004246c f   Engine:Engine.dll
 0001:00041472       ?StaticClass@UTexture@@SAPAVUClass@@XZ 10042472 f   Engine:Engine.dll
 0001:00041478       ?IsOrtho@UViewport@@QAEHXZ 10042478 f   Engine:Engine.dll
 0001:0004147e       ?GetOuterUClient@UViewport@@QBEPAVUClient@@XZ 1004247e f   Engine:Engine.dll
 0001:00041484       ?OccludeFrame@URender@@QAEXPAUFSceneNode@@@Z 10042484 f   Render:Render.dll
 0001:0004148a       ??0URender@@QAE@XZ         1004248a f   Render:Render.dll
 0001:00041490       ??1URender@@UAE@XZ         10042490 f   Render:Render.dll
 0001:00041496       ?Init@URender@@UAEXPAVUEngine@@@Z 10042496 f   Render:Render.dll
 0001:0004149c       ?Destroy@URender@@UAEXXZ   1004249c f   Render:Render.dll
 0001:000414a2       ?Exec@URender@@UAEHPBDAAVFOutputDevice@@@Z 100424a2 f   Render:Render.dll
 0001:000414a8       ?PreRender@URender@@UAEXPAUFSceneNode@@@Z 100424a8 f   Render:Render.dll
 0001:000414ae       ?PostRender@URender@@UAEXPAUFSceneNode@@@Z 100424ae f   Render:Render.dll
 0001:000414b4       ?DrawPaths@URender@@UAEXPAUFSceneNode@@@Z 100424b4 f   Render:Render.dll
 0001:000414ba       ?DrawBox@URender@@UAEXPAUFSceneNode@@VFPlane@@KVFVector@@2@Z 100424ba f   Render:Render.dll
 0001:000414c0       ?DrawCircle@URender@@UAEXPAUFSceneNode@@VFPlane@@KAAVFVector@@M@Z 100424c0 f   Render:Render.dll
 0001:000414c6       ?BoundVisible@URender@@UAEHPAUFSceneNode@@PAVFBox@@PAVFSpanBuffer@@AAUFScreenBounds@@@Z 100424c6 f   Render:Render.dll
 0001:000414cc       ?Project@URender@@UAEHPAUFSceneNode@@ABVFVector@@AAM2PAM@Z 100424cc f   Render:Render.dll
 0001:000414d2       ?Deproject@URender@@UAEHPAUFSceneNode@@HHAAVFVector@@@Z 100424d2 f   Render:Render.dll
 0001:000414d8       ?GetVisibleSurfs@URender@@UAEXPAVUViewport@@AAV?$TArray@H@@@Z 100424d8 f   Render:Render.dll
 0001:000414de       ?CreateMasterFrame@URender@@UAEPAUFSceneNode@@PAVUViewport@@VFVector@@VFRotator@@PAUFScreenBounds@@@Z 100424de f   Render:Render.dll
 0001:000414e4       ?CreateChildFrame@URender@@UAEPAUFSceneNode@@PAU2@PAVFSpanBuffer@@PAVULevel@@HHMABVFPlane@@ABVFCoords@@PAUFScreenBounds@@@Z 100424e4 f   Render:Render.dll
 0001:000414ea       ?FinishMasterFrame@URender@@UAEXXZ 100424ea f   Render:Render.dll
 0001:000414f0       ?Precache@URender@@UAEXPAVUViewport@@@Z 100424f0 f   Render:Render.dll
 0001:000414f6       ?GlobalLighting@URender@@UAEXHPAVAActor@@AAMAAVFPlane@@@Z 100424f6 f   Render:Render.dll
 0001:000414fc       ?GetFogZone@URender@@UAEPAVAZoneInfo@@PAVULevel@@H@Z 100424fc f   Render:Render.dll
 0001:00041502       ?SetDistanceClipping@URender@@UAEXPAUFSceneNode@@@Z 10042502 f   Render:Render.dll
 0001:00041508       ?SetDistanceFogging@URender@@UAEXPAUFSceneNode@@@Z 10042508 f   Render:Render.dll
 0001:0004150e       ?GRender@@3PAVURender@@A   1004250e f   Render:Render.dll
 0001:00041514       _timeBeginPeriod@4         10042514 f   winmm:WINMM.dll
 0001:0004151a       _timeEndPeriod@4           1004251a f   winmm:WINMM.dll
 0001:00041520       _OutputDebugStringA@4      10042520 f   kernel32:KERNEL32.dll
 0001:00041526       _DebugBreak@0              10042526 f   kernel32:KERNEL32.dll
 0001:0004152c       _Sleep@4                   1004252c f   kernel32:KERNEL32.dll
 0001:00041532       _GetModuleHandleA@4        10042532 f   kernel32:KERNEL32.dll
 0001:00041538       _GetProcAddress@8          10042538 f   kernel32:KERNEL32.dll
 0001:0004153e       _LoadLibraryA@4            1004253e f   kernel32:KERNEL32.dll
 0001:00041544       _MultiByteToWideChar@24    10042544 f   kernel32:KERNEL32.dll
 0001:0004154a       _WideCharToMultiByte@32    1004254a f   kernel32:KERNEL32.dll
 0001:00041550       _GetDC@4                   10042550 f   user32:USER32.dll
 0001:00041556       _EnumDisplaySettingsW@12   10042556 f   user32:USER32.dll
 0001:0004155c       _BitBlt@36                 1004255c f   gdi32:GDI32.dll
 0001:00041562       _CreateCompatibleDC@4      10042562 f   gdi32:GDI32.dll
 0001:00041568       _DeleteDC@4                10042568 f   gdi32:GDI32.dll
 0001:0004156e       _DeleteObject@4            1004256e f   gdi32:GDI32.dll
 0001:00041574       _SelectObject@8            10042574 f   gdi32:GDI32.dll
 0001:0004157a       _CreateDIBSection@24       1004257a f   gdi32:GDI32.dll
 0001:00041580       ??0bad_alloc@std@@QAE@XZ   10042580 f i libcpmt:xthrow.obj
 0001:0004159e       ??0bad_function_call@std@@QAE@ABV01@@Z 1004259e f i libcpmt:xthrow.obj
 0001:000415b9       ??0bad_function_call@std@@QAE@XZ 100425b9 f i libcpmt:xthrow.obj
 0001:000415d0       ??0exception@std@@QAE@QBD@Z 100425d0 f i libcpmt:xthrow.obj
 0001:0004160b       ??0exception@std@@QAE@QBDH@Z 1004260b f i libcpmt:xthrow.obj
 0001:0004162e       ??0exception@std@@QAE@XZ   1004262e f i libcpmt:xthrow.obj
 0001:00041645       ??0invalid_argument@std@@QAE@ABV01@@Z 10042645 f i libcpmt:xthrow.obj
 0001:00041660       ??0invalid_argument@std@@QAE@PBD@Z 10042660 f i libcpmt:xthrow.obj
 0001:0004167f       ??0length_error@std@@QAE@ABV01@@Z 1004267f f i libcpmt:xthrow.obj
 0001:0004169a       ??0length_error@std@@QAE@PBD@Z 1004269a f i libcpmt:xthrow.obj
 0001:000416b9       ??0logic_error@std@@QAE@ABV01@@Z 100426b9 f i libcpmt:xthrow.obj
 0001:000416d4       ??0logic_error@std@@QAE@PBD@Z 100426d4 f i libcpmt:xthrow.obj
 0001:000416f3       ??0out_of_range@std@@QAE@ABV01@@Z 100426f3 f i libcpmt:xthrow.obj
 0001:0004170e       ??0out_of_range@std@@QAE@PBD@Z 1004270e f i libcpmt:xthrow.obj
 0001:0004172d       ??0overflow_error@std@@QAE@ABV01@@Z 1004272d f i libcpmt:xthrow.obj
 0001:00041748       ??0overflow_error@std@@QAE@PBD@Z 10042748 f i libcpmt:xthrow.obj
 0001:00041767       ??0regex_error@std@@QAE@ABV01@@Z 10042767 f i libcpmt:xthrow.obj
 0001:0004178b       ??0regex_error@std@@QAE@W4error_type@regex_constants@1@@Z 1004278b f i libcpmt:xthrow.obj
 0001:000417b9       ??1bad_function_call@std@@UAE@XZ 100427b9 f i libcpmt:xthrow.obj
 0001:000417ca       ??1invalid_argument@std@@UAE@XZ 100427ca f i libcpmt:xthrow.obj
 0001:000417db       ??1length_error@std@@UAE@XZ 100427db f i libcpmt:xthrow.obj
 0001:000417ec       ??1logic_error@std@@UAE@XZ 100427ec f i libcpmt:xthrow.obj
 0001:000417fd       ??1out_of_range@std@@UAE@XZ 100427fd f i libcpmt:xthrow.obj
 0001:0004180e       ??1overflow_error@std@@UAE@XZ 1004280e f i libcpmt:xthrow.obj
 0001:0004181f       ??1regex_error@std@@UAE@XZ 1004281f f i libcpmt:xthrow.obj
 0001:00041830       ??_Ebad_function_call@std@@UAEPAXI@Z 10042830 f i libcpmt:xthrow.obj
 0001:00041830       ??_Gbad_function_call@std@@UAEPAXI@Z 10042830 f i libcpmt:xthrow.obj
 0001:0004185d       ??_Einvalid_argument@std@@UAEPAXI@Z 1004285d f i libcpmt:xthrow.obj
 0001:0004185d       ??_Ginvalid_argument@std@@UAEPAXI@Z 1004285d f i libcpmt:xthrow.obj
 0001:0004188a       ??_Elength_error@std@@UAEPAXI@Z 1004288a f i libcpmt:xthrow.obj
 0001:0004188a       ??_Glength_error@std@@UAEPAXI@Z 1004288a f i libcpmt:xthrow.obj
 0001:000418b7       ??_Elogic_error@std@@UAEPAXI@Z 100428b7 f i libcpmt:xthrow.obj
 0001:000418b7       ??_Glogic_error@std@@UAEPAXI@Z 100428b7 f i libcpmt:xthrow.obj
 0001:000418e4       ??_Eout_of_range@std@@UAEPAXI@Z 100428e4 f i libcpmt:xthrow.obj
 0001:000418e4       ??_Gout_of_range@std@@UAEPAXI@Z 100428e4 f i libcpmt:xthrow.obj
 0001:00041911       ??_Eoverflow_error@std@@UAEPAXI@Z 10042911 f i libcpmt:xthrow.obj
 0001:00041911       ??_Goverflow_error@std@@UAEPAXI@Z 10042911 f i libcpmt:xthrow.obj
 0001:0004193e       ??_Eregex_error@std@@UAEPAXI@Z 1004293e f i libcpmt:xthrow.obj
 0001:0004193e       ??_Gregex_error@std@@UAEPAXI@Z 1004293e f i libcpmt:xthrow.obj
 0001:0004196b       ?_Stringify@regex_error@std@@CAPBDW4error_type@regex_constants@2@@Z 1004296b f i libcpmt:xthrow.obj
 0001:00041a2b       ?_Xbad_alloc@std@@YAXXZ    10042a2b f   libcpmt:xthrow.obj
 0001:00041a48       ?_Xbad_function_call@std@@YAXXZ 10042a48 f   libcpmt:xthrow.obj
 0001:00041a65       ?_Xinvalid_argument@std@@YAXPBD@Z 10042a65 f   libcpmt:xthrow.obj
 0001:00041a85       ?_Xlength_error@std@@YAXPBD@Z 10042a85 f   libcpmt:xthrow.obj
 0001:00041aa5       ?_Xout_of_range@std@@YAXPBD@Z 10042aa5 f   libcpmt:xthrow.obj
 0001:00041ac5       ?_Xoverflow_error@std@@YAXPBD@Z 10042ac5 f   libcpmt:xthrow.obj
 0001:00041ae5       ?_Xregex_error@std@@YAXW4error_type@regex_constants@1@@Z 10042ae5 f   libcpmt:xthrow.obj
 0001:00041b05       ?_Xruntime_error@std@@YAXPBD@Z 10042b05 f   libcpmt:xthrow.obj
 0001:00041b25       ?what@bad_function_call@std@@UBEPBDXZ 10042b25 f i libcpmt:xthrow.obj
 0001:00041b2b       ??0_Init_locks@std@@QAE@XZ 10042b2b f   libcpmt:xlock.obj
 0001:00041b58       ??0_Lockit@std@@QAE@H@Z    10042b58 f   libcpmt:xlock.obj
 0001:00041b89       ??0_Lockit@std@@QAE@XZ     10042b89 f   libcpmt:xlock.obj
 0001:00041b9b       ??1_Init_locks@std@@QAE@XZ 10042b9b f   libcpmt:xlock.obj
 0001:00041bc2       ??1_Lockit@std@@QAE@XZ     10042bc2 f   libcpmt:xlock.obj
 0001:00041be1       ?_Init_locks_ctor@_Init_locks@std@@CAXPAV12@@Z 10042be1 f   libcpmt:xlock.obj
 0001:00041c08       ?_Init_locks_dtor@_Init_locks@std@@CAXPAV12@@Z 10042c08 f   libcpmt:xlock.obj
 0001:00041c2f       ?_Lockit_ctor@_Lockit@std@@CAXPAV12@@Z 10042c2f f   libcpmt:xlock.obj
 0001:00041c3b       ?_Lockit_ctor@_Lockit@std@@CAXPAV12@H@Z 10042c3b f   libcpmt:xlock.obj
 0001:00041c64       ?_Lockit_ctor@_Lockit@std@@SAXH@Z 10042c64 f   libcpmt:xlock.obj
 0001:00041c88       ?_Lockit_dtor@_Lockit@std@@CAXPAV12@@Z 10042c88 f   libcpmt:xlock.obj
 0001:00041c9f       ?_Lockit_dtor@_Lockit@std@@SAXH@Z 10042c9f f   libcpmt:xlock.obj
 0001:00041cc3       ?uncaught_exceptions@std@@YAHXZ 10042cc3 f   libcpmt:uncaught_exceptions.obj
 0001:00041cc8       ?_Syserror_map@std@@YAPBDH@Z 10042cc8 f   libcpmt:syserror.obj
 0001:00041ced       ?_Winerror_map@std@@YAHH@Z 10042ced f   libcpmt:syserror.obj
 0001:00041d0f       ?_Winerror_message@std@@YAKKPADK@Z 10042d0f f   libcpmt:syserror.obj
 0001:00041d36       ??0?$_Yarn@D@std@@QAE@PBD@Z 10042d36 f i libcpmt:locale0.obj
 0001:00041d55       ??0_Fac_node@std@@QAE@PAU01@PAV_Facet_base@1@@Z 10042d55 f i libcpmt:locale0.obj
 0001:00041d69       ??0_Facet_base@std@@QAE@XZ 10042d69 f i libcpmt:locale0.obj
 0001:00041d72       ??0_Locimp@locale@std@@AAE@ABV012@@Z 10042d72 f i libcpmt:locale0.obj
 0001:00041ddc       ??0_Locimp@locale@std@@AAE@_N@Z 10042ddc f i libcpmt:locale0.obj
 0001:00041e1d       ??0facet@locale@std@@IAE@I@Z 10042e1d f i libcpmt:locale0.obj
 0001:00041e32       ??0id@locale@std@@QAE@I@Z  10042e32 f i libcpmt:locale0.obj
 0001:00041e40       ??0locale@std@@AAE@U_Secret_locale_construct_tag@01@PAV_Locimp@01@@Z 10042e40 f i libcpmt:locale0.obj
 0001:00041e4f       ??0locale@std@@QAE@W4_Uninitialized@1@@Z 10042e4f f i libcpmt:locale0.obj
 0001:00041e54       ??1_Fac_node@std@@QAE@XZ   10042e54 f i libcpmt:locale0.obj
 0001:00041e85       ??1_Fac_tidy_reg_t@std@@QAE@XZ 10042e85 f i libcpmt:locale0.obj
 0001:00041ea9       ??1_Locimp@locale@std@@MAE@XZ 10042ea9 f i libcpmt:locale0.obj
 0001:00041ec9       ??2@YAPAXIPAX@Z            10042ec9 f i libcpmt:locale0.obj
 0001:00041ed1       ??2_Fac_node@std@@SAPAXI@Z 10042ed1 f i libcpmt:locale0.obj
 0001:00041ef0       ??3_Fac_node@std@@SAXPAX@Z 10042ef0 f i libcpmt:locale0.obj
 0001:00041ef5       ??4?$_Yarn@D@std@@QAEAAV01@PBD@Z 10042ef5 f i libcpmt:locale0.obj
 0001:00041f3e       ??_G_Fac_node@std@@QAEPAXI@Z 10042f3e f i libcpmt:locale0.obj
 0001:00041f6e       ??_E_Locimp@locale@std@@MAEPAXI@Z 10042f6e f i libcpmt:locale0.obj
 0001:00041f6e       ??_G_Locimp@locale@std@@MAEPAXI@Z 10042f6e f i libcpmt:locale0.obj
 0001:00041f90       ?_C_str@?$_Yarn@D@std@@QBEPBDXZ 10042f90 f i libcpmt:locale0.obj
 0001:00041f9a       ?_Empty@?$_Yarn@D@std@@QBE_NXZ 10042f9a f i libcpmt:locale0.obj
 0001:00041fa1       ?_Facet_Register@std@@YAXPAV_Facet_base@1@@Z 10042fa1 f   libcpmt:locale0.obj
 0001:00041fce       ?_Getgloballocale@locale@std@@CAPAV_Locimp@12@XZ 10042fce f   libcpmt:locale0.obj
 0001:00041fd4       ?_Init@locale@std@@CAPAV_Locimp@12@_N@Z 10042fd4 f   libcpmt:locale0.obj
 0001:00042061       ?_Locimp_dtor@_Locimp@locale@std@@CAXPAV123@@Z 10043061 f   libcpmt:locale0.obj
 0001:000420d2       ?_Locinfo_ctor@_Locinfo@std@@SAXPAV12@PBD@Z 100430d2 f   libcpmt:locale0.obj
 0001:0004211e       ?_Locinfo_dtor@_Locinfo@std@@SAXPAV12@@Z 1004311e f   libcpmt:locale0.obj
 0001:00042138       ?_New_Locimp@_Locimp@locale@std@@CAPAV123@ABV123@@Z 10043138 f   libcpmt:locale0.obj
 0001:00042168       ?_New_Locimp@_Locimp@locale@std@@CAPAV123@_N@Z 10043168 f   libcpmt:locale0.obj
 0001:0004218b       ?_Setgloballocale@locale@std@@CAXPAX@Z 1004318b f   libcpmt:locale0.obj
 0001:000421b3       ?_Tidy@?$_Yarn@D@std@@AAEXXZ 100431b3 f i libcpmt:locale0.obj
 0001:000421cb       ?__empty_global_delete@@YAXPAX@Z 100431cb f i libcpmt:locale0.obj
 0001:000421ce       ?__empty_global_delete@@YAXPAXI@Z 100431ce f i libcpmt:locale0.obj
 0001:000421ce       ?__global_delete@@YAXPAXI@Z 100431ce f i libcpmt:locale0.obj
 0001:000421d1       ?__empty_global_delete@@YAXPAXIW4align_val_t@std@@@Z 100431d1 f i libcpmt:locale0.obj
 0001:000421d4       ?__empty_global_delete@@YAXPAXW4align_val_t@std@@@Z 100431d4 f i libcpmt:locale0.obj
 0001:000421d7       ?c_str@?$_Yarn@D@std@@QBEPBDXZ 100431d7 f i libcpmt:locale0.obj
 0001:000421e1       ?classic@locale@std@@SAABV12@XZ 100431e1 f   libcpmt:locale0.obj
 0001:000421f8       ?empty@locale@std@@SA?AV12@XZ 100431f8 f   libcpmt:locale0.obj
 0001:00042216       __Deletegloballocale       10043216 f   libcpmt:locale0.obj
 0001:0004227e       __Getctype                 1004327e f   libcpmt:_tolower.obj
 0001:000422ec       __Tolower                  100432ec f   libcpmt:_tolower.obj
 0001:000423d8       __Getcvt                   100433d8 f   libcpmt:xwctomb.obj
 0001:0004244b       __Wcrtomb                  1004344b f   libcpmt:xwctomb.obj
 0001:000424a7       ___Wcrtomb_lk              100434a7 f   libcpmt:xwctomb.obj
 0001:000424b0       __Toupper                  100434b0 f   libcpmt:_toupper.obj
 0001:0004259c       ??_Glocale@std@@QAEPAXI@Z  1004359c f i libcpmt:ios.obj
 0001:000425be       ?_Addstd@ios_base@std@@SAXPAV12@@Z 100435be f   libcpmt:ios.obj
 0001:0004260a       ?_Callfns@ios_base@std@@AAEXW4event@12@@Z 1004360a f i libcpmt:ios.obj
 0001:0004263d       ?_Ios_base_dtor@ios_base@std@@CAXPAV12@@Z 1004363d f   libcpmt:ios.obj
 0001:0004267d       ?_Tidy@ios_base@std@@AAEXXZ 1004367d f i libcpmt:ios.obj
 0001:000426fe       ??0?$_Smanip@H@std@@QAE@P6AXAAVios_base@1@H@ZH@Z 100436fe f i libcpmt:iomanip.obj
 0001:00042712       ??0?$_Smanip@_J@std@@QAE@P6AXAAVios_base@1@_J@Z1@Z 10043712 f i libcpmt:iomanip.obj
 0001:0004272c       ?precision@ios_base@std@@QAE_J_J@Z 1004372c f i libcpmt:iomanip.obj
 0001:00042749       ?resetiosflags@std@@YA?AU?$_Smanip@H@1@H@Z 10043749 f   libcpmt:iomanip.obj
 0001:000427a8       ?setbase@std@@YA?AU?$_Smanip@H@1@H@Z 100437a8 f   libcpmt:iomanip.obj
 0001:000427bc       ?setf@ios_base@std@@QAEHHH@Z 100437bc f i libcpmt:iomanip.obj
 0001:000427e1       ?setiosflags@std@@YA?AU?$_Smanip@H@1@H@Z 100437e1 f   libcpmt:iomanip.obj
 0001:000427f5       ?setprecision@std@@YA?AU?$_Smanip@_J@1@_J@Z 100437f5 f   libcpmt:iomanip.obj
 0001:0004280f       ?setw@std@@YA?AU?$_Smanip@_J@1@_J@Z 1004380f f   libcpmt:iomanip.obj
 0001:0004286b       ?width@ios_base@std@@QAE_J_J@Z 1004386b f i libcpmt:iomanip.obj
 0001:00061030       ___std_bitset_from_string_1@28 10062030 f   libcpmt:vector_algorithms.obj
 0001:00061130       ___std_bitset_from_string_2@28 10062130 f   libcpmt:vector_algorithms.obj
 0001:00061240       ___std_bitset_to_string_1@20 10062240 f   libcpmt:vector_algorithms.obj
 0001:00061250       ___std_bitset_to_string_2@20 10062250 f   libcpmt:vector_algorithms.obj
 0001:00061260       ___std_count_trivial_1@12  10062260 f   libcpmt:vector_algorithms.obj
 0001:00061270       ___std_count_trivial_2@12  10062270 f   libcpmt:vector_algorithms.obj
 0001:00061280       ___std_count_trivial_4@12  10062280 f   libcpmt:vector_algorithms.obj
 0001:00061290       ___std_count_trivial_8@16  10062290 f   libcpmt:vector_algorithms.obj
 0001:000612b0       ___std_find_end_1@16       100622b0 f   libcpmt:vector_algorithms.obj
 0001:000612c0       ___std_find_end_2@16       100622c0 f   libcpmt:vector_algorithms.obj
 0001:000612d0       ___std_find_first_of_trivial_1@16 100622d0 f   libcpmt:vector_algorithms.obj
 0001:00061340       ___std_find_first_of_trivial_2@16 10062340 f   libcpmt:vector_algorithms.obj
 0001:000613b0       ___std_find_first_of_trivial_4@16 100623b0 f   libcpmt:vector_algorithms.obj
 0001:00061420       ___std_find_first_of_trivial_8@16 10062420 f   libcpmt:vector_algorithms.obj
 0001:00061470       ___std_find_first_of_trivial_pos_1@16 10062470 f   libcpmt:vector_algorithms.obj
 0001:00061500       ___std_find_first_of_trivial_pos_2@16 10062500 f   libcpmt:vector_algorithms.obj
 0001:00061520       ___std_find_first_of_trivial_pos_4@16 10062520 f   libcpmt:vector_algorithms.obj
 0001:00061540       ___std_find_first_of_trivial_pos_8@16 10062540 f   libcpmt:vector_algorithms.obj
 0001:00061650       ___std_find_last_of_trivial_pos_1@16 10062650 f   libcpmt:vector_algorithms.obj
 0001:00061670       ___std_find_last_of_trivial_pos_2@16 10062670 f   libcpmt:vector_algorithms.obj
 0001:00061690       ___std_find_last_trivial_1@12 10062690 f   libcpmt:vector_algorithms.obj
 0001:000616a0       ___std_find_last_trivial_2@12 100626a0 f   libcpmt:vector_algorithms.obj
 0001:000616b0       ___std_find_last_trivial_4@12 100626b0 f   libcpmt:vector_algorithms.obj
 0001:000616c0       ___std_find_last_trivial_8@16 100626c0 f   libcpmt:vector_algorithms.obj
 0001:000616e0       ___std_find_trivial_1@12   100626e0 f   libcpmt:vector_algorithms.obj
 0001:000616f0       ___std_find_trivial_2@12   100626f0 f   libcpmt:vector_algorithms.obj
 0001:00061700       ___std_find_trivial_4@12   10062700 f   libcpmt:vector_algorithms.obj
 0001:00061710       ___std_find_trivial_8@16   10062710 f   libcpmt:vector_algorithms.obj
 0001:00061730       ___std_find_trivial_unsized_1@8 10062730 f   libcpmt:vector_algorithms.obj
 0001:00061750       ___std_find_trivial_unsized_2@8 10062750 f   libcpmt:vector_algorithms.obj
 0001:00061770       ___std_find_trivial_unsized_4@8 10062770 f   libcpmt:vector_algorithms.obj
 0001:00061790       ___std_find_trivial_unsized_8@12 10062790 f   libcpmt:vector_algorithms.obj
 0001:000617c0       ___std_max_1i@8            100627c0 f   libcpmt:vector_algorithms.obj
 0001:000618f0       ___std_max_1u@8            100628f0 f   libcpmt:vector_algorithms.obj
 0001:00061910       ___std_max_2i@8            10062910 f   libcpmt:vector_algorithms.obj
 0001:00061a20       ___std_max_2u@8            10062a20 f   libcpmt:vector_algorithms.obj
 0001:00061a40       ___std_max_4i@8            10062a40 f   libcpmt:vector_algorithms.obj
 0001:00061a60       ___std_max_4u@8            10062a60 f   libcpmt:vector_algorithms.obj
 0001:00061a80       ___std_max_8i@8            10062a80 f   libcpmt:vector_algorithms.obj
 0001:00061aa0       ___std_max_8u@8            10062aa0 f   libcpmt:vector_algorithms.obj
 0001:00061bb0       ___std_max_d@8             10062bb0 f   libcpmt:vector_algorithms.obj
 0001:00061bd0       ___std_max_element_1@12    10062bd0 f   libcpmt:vector_algorithms.obj
 0001:00061c50       ___std_max_element_2@12    10062c50 f   libcpmt:vector_algorithms.obj
 0001:00061cd0       ___std_max_element_4@12    10062cd0 f   libcpmt:vector_algorithms.obj
 0001:00061d80       ___std_max_element_8@12    10062d80 f   libcpmt:vector_algorithms.obj
 0001:00061e10       ___std_max_element_d@12    10062e10 f   libcpmt:vector_algorithms.obj
 0001:00061e90       ___std_max_element_f@12    10062e90 f   libcpmt:vector_algorithms.obj
 0001:00061f10       ___std_max_f@8             10062f10 f   libcpmt:vector_algorithms.obj
 0001:00061f30       ___std_min_1i@8            10062f30 f   libcpmt:vector_algorithms.obj
 0001:00062060       ___std_min_1u@8            10063060 f   libcpmt:vector_algorithms.obj
 0001:00062080       ___std_min_2i@8            10063080 f   libcpmt:vector_algorithms.obj
 0001:00062190       ___std_min_2u@8            10063190 f   libcpmt:vector_algorithms.obj
 0001:000621b0       ___std_min_4i@8            100631b0 f   libcpmt:vector_algorithms.obj
 0001:000621d0       ___std_min_4u@8            100631d0 f   libcpmt:vector_algorithms.obj
 0001:000621f0       ___std_min_8i@8            100631f0 f   libcpmt:vector_algorithms.obj
 0001:00062210       ___std_min_8u@8            10063210 f   libcpmt:vector_algorithms.obj
 0001:00062320       ___std_min_d@8             10063320 f   libcpmt:vector_algorithms.obj
 0001:00062340       ___std_min_element_1@12    10063340 f   libcpmt:vector_algorithms.obj
 0001:000623c0       ___std_min_element_2@12    100633c0 f   libcpmt:vector_algorithms.obj
 0001:00062450       ___std_min_element_4@12    10063450 f   libcpmt:vector_algorithms.obj
 0001:00062500       ___std_min_element_8@12    10063500 f   libcpmt:vector_algorithms.obj
 0001:00062590       ___std_min_element_d@12    10063590 f   libcpmt:vector_algorithms.obj
 0001:00062610       ___std_min_element_f@12    10063610 f   libcpmt:vector_algorithms.obj
 0001:00062690       ___std_min_f@8             10063690 f   libcpmt:vector_algorithms.obj
 0001:000626b0       ___std_minmax_1i@8         100636b0 f   libcpmt:vector_algorithms.obj
 0001:000626d0       ___std_minmax_1u@8         100636d0 f   libcpmt:vector_algorithms.obj
 0001:000626f0       ___std_minmax_2i@8         100636f0 f   libcpmt:vector_algorithms.obj
 0001:00062710       ___std_minmax_2u@8         10063710 f   libcpmt:vector_algorithms.obj
 0001:00062730       ___std_minmax_4i@8         10063730 f   libcpmt:vector_algorithms.obj
 0001:00062750       ___std_minmax_4u@8         10063750 f   libcpmt:vector_algorithms.obj
 0001:00062770       ___std_minmax_8i@8         10063770 f   libcpmt:vector_algorithms.obj
 0001:000627a0       ___std_minmax_8u@8         100637a0 f   libcpmt:vector_algorithms.obj
 0001:000627d0       ___std_minmax_d@8          100637d0 f   libcpmt:vector_algorithms.obj
 0001:00062800       ___std_minmax_element_1@12 10063800 f   libcpmt:vector_algorithms.obj
 0001:000628f0       ___std_minmax_element_2@12 100638f0 f   libcpmt:vector_algorithms.obj
 0001:00062990       ___std_minmax_element_4@12 10063990 f   libcpmt:vector_algorithms.obj
 0001:00062a30       ___std_minmax_element_8@12 10063a30 f   libcpmt:vector_algorithms.obj
 0001:00062ae0       ___std_minmax_element_d@12 10063ae0 f   libcpmt:vector_algorithms.obj
 0001:00062b80       ___std_minmax_element_f@12 10063b80 f   libcpmt:vector_algorithms.obj
 0001:00062c20       ___std_minmax_f@8          10063c20 f   libcpmt:vector_algorithms.obj
 0001:00062c40       ___std_mismatch_1@12       10063c40 f   libcpmt:vector_algorithms.obj
 0001:00062c50       ___std_mismatch_2@12       10063c50 f   libcpmt:vector_algorithms.obj
 0001:00062c60       ___std_mismatch_4@12       10063c60 f   libcpmt:vector_algorithms.obj
 0001:00062c70       ___std_mismatch_8@12       10063c70 f   libcpmt:vector_algorithms.obj
 0001:00062c80       ___std_remove_1@12         10063c80 f   libcpmt:vector_algorithms.obj
 0001:00062d20       ___std_remove_2@12         10063d20 f   libcpmt:vector_algorithms.obj
 0001:00062dc0       ___std_remove_4@12         10063dc0 f   libcpmt:vector_algorithms.obj
 0001:00062eb0       ___std_remove_8@16         10063eb0 f   libcpmt:vector_algorithms.obj
 0001:00062fb0       ___std_replace_4@16        10063fb0 f   libcpmt:vector_algorithms.obj
 0001:00063050       ___std_replace_8@24        10064050 f   libcpmt:vector_algorithms.obj
 0001:00063110       ___std_reverse_copy_trivially_copyable_1 10064110 f   libcpmt:vector_algorithms.obj
 0001:000631d0       ___std_reverse_copy_trivially_copyable_2 100641d0 f   libcpmt:vector_algorithms.obj
 0001:00063290       ___std_reverse_copy_trivially_copyable_4 10064290 f   libcpmt:vector_algorithms.obj
 0001:00063340       ___std_reverse_copy_trivially_copyable_8 10064340 f   libcpmt:vector_algorithms.obj
 0001:000633f0       ___std_reverse_trivially_swappable_1 100643f0 f   libcpmt:vector_algorithms.obj
 0001:000634b0       ___std_reverse_trivially_swappable_2 100644b0 f   libcpmt:vector_algorithms.obj
 0001:00063580       ___std_reverse_trivially_swappable_4 10064580 f   libcpmt:vector_algorithms.obj
 0001:00063630       ___std_reverse_trivially_swappable_8 10064630 f   libcpmt:vector_algorithms.obj
 0001:00063710       ___std_search_1@16         10064710 f   libcpmt:vector_algorithms.obj
 0001:00063720       ___std_search_2@16         10064720 f   libcpmt:vector_algorithms.obj
 0001:00063730       ___std_swap_ranges_trivially_swappable 10064730 f   libcpmt:vector_algorithms.obj
 0001:00063800       ___std_swap_ranges_trivially_swappable_noalias 10064800 f   libcpmt:vector_algorithms.obj
 0001:000639ce       ?_Fiopen@std@@YAPAU_iobuf@@PBDHH@Z 100649ce f   libcpmt:fiopen.obj
 0001:000639d7       ?_Fiopen@std@@YAPAU_iobuf@@PBGHH@Z 100649d7 f   libcpmt:fiopen.obj
 0001:000639e0       ?_Fiopen@std@@YAPAU_iobuf@@PB_WHH@Z 100649e0 f   libcpmt:fiopen.obj
 0001:00063a23       __Mtxdst                   10064a23 f   libcpmt:xmtx.obj
 0001:00063a31       __Mtxinit                  10064a31 f   libcpmt:xmtx.obj
 0001:00063a46       __Mtxlock                  10064a46 f   libcpmt:xmtx.obj
 0001:00063a54       __Mtxunlock                10064a54 f   libcpmt:xmtx.obj
 0001:00063a70       ___std_get_string_size_without_trailing_whitespace@8 10064a70 f   libcpmt:syserror_import_lib.obj
 0001:00063a94       ___std_system_error_allocate_message@8 10064a94 f   libcpmt:syserror_import_lib.obj
 0001:00063b0e       ___std_system_error_deallocate_message@4 10064b0e f   libcpmt:syserror_import_lib.obj
 0001:00063b14       ??$?0$$V@?$_Compressed_pair@V?$allocator@D@std@@V?$_String_val@U?$_Simple_types@D@std@@@2@$00@std@@QAE@U_Zero_then_variadic_args_t@1@@Z 10064b14 f i libcpmt:locale.obj
 0001:00063b31       ??$?0AAPAV_Facet_base@std@@@?$_Compressed_pair@U?$default_delete@V_Facet_base@std@@@std@@PAV_Facet_base@2@$00@std@@QAE@U_Zero_then_variadic_args_t@1@AAPAV_Facet_base@1@@Z 10064b31 f i libcpmt:locale.obj
 0001:00063b41       ??$?0U?$default_delete@V_Facet_base@std@@@std@@$0A@@?$unique_ptr@V_Facet_base@std@@U?$default_delete@V_Facet_base@std@@@2@@std@@QAE@PAV_Facet_base@1@@Z 10064b41 f i libcpmt:locale.obj
 0001:00063b4f       ??$?8DU?$char_traits@D@std@@@std@@YA_NABV?$istreambuf_iterator@DU?$char_traits@D@std@@@0@0@Z 10064b4f f i libcpmt:locale.obj
 0001:00063b5f       ??$_Adl_verify_range@PADPAD@std@@YAXABQAD0@Z 10064b5f f i libcpmt:locale.obj
 0001:00063b62       ??$_Adl_verify_range@PADPBD@std@@YAXABQADABQBD@Z 10064b62 f i libcpmt:locale.obj
 0001:00063b65       ??$_Adl_verify_range@PBDPBD@std@@YAXABQBD0@Z 10064b65 f i libcpmt:locale.obj
 0001:00063b68       ??$_Adl_verify_range@V?$istreambuf_iterator@DU?$char_traits@D@std@@@std@@V12@@std@@YAXABV?$istreambuf_iterator@DU?$char_traits@D@std@@@0@0@Z 10064b68 f i libcpmt:locale.obj
 0001:00063b6b       ??$_Allocate@$07U_Default_allocate_traits@std@@@std@@YAPAXI@Z 10064b6b f i libcpmt:locale.obj
 0001:00063b8e       ??$_Allocate_at_least_helper@V?$allocator@D@std@@@std@@YAPADAAV?$allocator@D@0@AAI@Z 10064b8e f i libcpmt:locale.obj
 0001:00063b9e       ??$_Construct@$0A@D@?$basic_string@DU?$char_traits@D@std@@V?$allocator@D@2@@std@@AAEXDI@Z 10064b9e f i libcpmt:locale.obj
 0001:00063c24       ??$_Construct_in_place@PADAAPAD@std@@YAXAAPAD0@Z 10064c24 f i libcpmt:locale.obj
 0001:00063c33       ??$_Construct_in_place@PADABQAD@std@@YAXAAPADABQAD@Z 10064c33 f i libcpmt:locale.obj
 0001:00063c42       ??$_Convert_size@II@std@@YAII@Z 10064c42 f i libcpmt:locale.obj
 0001:00063c4a       ??$_Could_compare_equal_to_value_type@PBDD@std@@YA_NABD@Z 10064c4a f i libcpmt:locale.obj
 0001:00063c4d       ??$_Deallocate@$07@std@@YAXPAXI@Z 10064c4d f i libcpmt:locale.obj
 0001:00063c79       ??$_Destroy_in_place@PAD@std@@YAXAAPAD@Z 10064c79 f i libcpmt:locale.obj
 0001:00063c7c       ??$_Find_elem@D$0BL@@std@@YAIAAY0BL@$$CBDD@Z 10064c7c f i libcpmt:locale.obj
 0001:00063c95       ??$_Find_elem@D$0BN@@std@@YAIAAY0BN@$$CBDD@Z 10064c95 f i libcpmt:locale.obj
 0001:00063cae       ??$_Find_unchecked@PBDD@std@@YAPBDPBDQBDABD@Z 10064cae f i libcpmt:locale.obj
 0001:00063cca       ??$_Get_index@$0A@@id@locale@std@@QAEIXZ 10064cca f i libcpmt:locale.obj
 0001:00063cff       ??$_Get_size_of_n@$00@std@@YAII@Z 10064cff f i libcpmt:locale.obj
 0001:00063d07       ??$_Get_unwrapped@ABQAD@std@@YA?A_TABQAD@Z 10064d07 f i libcpmt:locale.obj
 0001:00063d11       ??$_Getloctxt@V?$istreambuf_iterator@DU?$char_traits@D@std@@@std@@D@std@@YAHAAV?$istreambuf_iterator@DU?$char_traits@D@std@@@0@0IPBDW4_Case_sensitive@0@@Z 10064d11 f i libcpmt:locale.obj
 0001:00063f37       ??$_Max_limit@H@std@@YAHXZ 10064f37 f i libcpmt:locale.obj
 0001:00063f3d       ??$_Parse_fp_with_locale@$0A@@?$num_get@DV?$istreambuf_iterator@DU?$char_traits@D@std@@@std@@@std@@CA?AU_Num_get_parse_result@1@QADHAAV?$istreambuf_iterator@DU?$char_traits@D@std@@@1@1ABVlocale@1@@Z 10064f3d f i libcpmt:locale.obj
 0001:00064809       ??$_Parse_int_with_locale@$0A@@?$num_get@DV?$istreambuf_iterator@DU?$char_traits@D@std@@@std@@@std@@CA?AU_Num_get_parse_result@1@QADAAV?$istreambuf_iterator@DU?$char_traits@D@std@@@1@1HABVlocale@1@@Z 10065809 f i libcpmt:locale.obj
 0001:00064c45       ??$_Pocma@V?$allocator@D@std@@@std@@YAXAAV?$allocator@D@0@0@Z 10065c45 f i libcpmt:locale.obj
 0001:00064c48       ??$_Reallocate_grow_by@V<lambda_1>@?1??append@?$basic_string@DU?$char_traits@D@std@@V?$allocator@D@2@@std@@QAEAAV34@ID@Z@ID@?$basic_string@DU?$char_traits@D@std@@V?$allocator@D@2@@std@@AAEAAV01@IV<lambda_1>@?1??append@01@QAEAAV01@ID@Z@ID@Z 10065c48 f i libcpmt:locale.obj
 0001:00064d1f       ??$_Reallocate_grow_by@V<lambda_1>@?1??append@?$basic_string@DU?$char_traits@D@std@@V?$allocator@D@2@@std@@QAEAAV34@QBDI@Z@PBDI@?$basic_string@DU?$char_traits@D@std@@V?$allocator@D@2@@std@@AAEAAV01@IV<lambda_1>@?1??append@01@QAEAAV01@QBDI@Z@PBDI@Z 10065d1f f i libcpmt:locale.obj
 0001:00064def       ??$_Reallocate_grow_by@V<lambda_1>@?1??push_back@?$basic_string@DU?$char_traits@D@std@@V?$allocator@D@2@@std@@QAEXD@Z@D@?$basic_string@DU?$char_traits@D@std@@V?$allocator@D@2@@std@@AAEAAV01@IV<lambda_1>@?1??push_back@01@QAEXD@Z@D@Z 10065def f i libcpmt:locale.obj
 0001:00064ea9       ??$_Reverse_vectorized@$00@std@@YAXPAX0@Z 10065ea9 f i libcpmt:locale.obj
 0001:00064eae       ??$_To_address@PAD@std@@YA?A_PABQAD@Z 10065eae f i libcpmt:locale.obj
 0001:00064eb8       ??$_To_address@PBD@std@@YA?A_PABQBD@Z 10065eb8 f i libcpmt:locale.obj
 0001:00064ec2       ??$_Unfancy@D@std@@YAPADPAD@Z 10065ec2 f i libcpmt:locale.obj
 0001:00064eca       ??$addressof@PAD@std@@YAPAPADAAPAD@Z 10065eca f i libcpmt:locale.obj
 0001:00064ed2       ??$addressof@V?$basic_string@DU?$char_traits@D@std@@V?$allocator@D@2@@std@@@std@@YAPAV?$basic_string@DU?$char_traits@D@std@@V?$allocator@D@2@@0@AAV10@@Z 10065ed2 f i libcpmt:locale.obj
 0001:00064eda       ??$begin@$$CBD$0BL@@std@@YAPBDAAY0BL@$$CBD@Z 10065eda f i libcpmt:locale.obj
 0001:00064ee2       ??$begin@$$CBD$0BN@@std@@YAPBDAAY0BN@$$CBD@Z 10065ee2 f i libcpmt:locale.obj
 0001:00064eea       ??$construct_at@D$$V@std@@YAPADQAD@Z 10065eea f i libcpmt:locale.obj
 0001:00064ef5       ??$construct_at@PADAAPAD@std@@YAPAPADQAPADAAPAD@Z 10065ef5 f i libcpmt:locale.obj
 0001:00064f04       ??$construct_at@PADABQAD@std@@YAPAPADQAPADABQAD@Z 10065f04 f i libcpmt:locale.obj
 0001:00064f13       ??$end@$$CBD$0BL@@std@@YAPBDAAY0BL@$$CBD@Z 10065f13 f i libcpmt:locale.obj
 0001:00064f1e       ??$end@$$CBD$0BN@@std@@YAPBDAAY0BN@$$CBD@Z 10065f1e f i libcpmt:locale.obj
 0001:00064f29       ??$exchange@PAV_Facet_base@std@@$$T@std@@YAPAV_Facet_base@0@AAPAV10@$$QA$$T@Z 10065f29 f i libcpmt:locale.obj
 0001:00064f3a       ??$forward@AAPAD@std@@YAAAPADAAPAD@Z 10065f3a f i libcpmt:locale.obj
 0001:00064f42       ??$forward@AAPAV_Facet_base@std@@@std@@YAAAPAV_Facet_base@0@AAPAV10@@Z 10065f42 f i libcpmt:locale.obj
 0001:00064f4a       ??$forward@ABQAD@std@@YAABQADABQAD@Z 10065f4a f i libcpmt:locale.obj
 0001:00064f52       ??$isfinite@N@@YA_NN@Z     10065f52 f i libcpmt:locale.obj
 0001:00064f6c       ??$isfinite@O@@YA_NO@Z     10065f6c f i libcpmt:locale.obj
 0001:00064f86       ??$max@I@std@@YAABIABI0@Z  10065f86 f i libcpmt:locale.obj
 0001:00064f98       ??$min@H@std@@YAABHABH0@Z  10065f98 f i libcpmt:locale.obj
 0001:00064faa       ??$min@I@std@@YAABIABI0@Z  10065faa f i libcpmt:locale.obj
 0001:00064fbc       ??$move@AAD@std@@YA$$QADAAD@Z 10065fbc f i libcpmt:locale.obj
 0001:00064fc4       ??$move@AAV?$allocator@D@std@@@std@@YA$$QAV?$allocator@D@0@AAV10@@Z 10065fc4 f i libcpmt:locale.obj
 0001:00064fcc       ??$move@AAV?$basic_string@DU?$char_traits@D@std@@V?$allocator@D@2@@std@@@std@@YA$$QAV?$basic_string@DU?$char_traits@D@std@@V?$allocator@D@2@@0@AAV10@@Z 10065fcc f i libcpmt:locale.obj
 0001:00064fd4       ??$reverse@PAD@std@@YAXQAD0@Z 10065fd4 f i libcpmt:locale.obj
 0001:00064fd9       ??$swap@D$0A@@std@@YAXAAD0@Z 10065fd9 f i libcpmt:locale.obj
 0001:00064fee       ??$to_address@$$CBD@std@@YAPBDQBD@Z 10065fee f i libcpmt:locale.obj
 0001:00064ff6       ??$to_address@D@std@@YAPADQAD@Z 10065ff6 f i libcpmt:locale.obj
 0001:00064ffe       ??$use_facet@V?$num_get@DV?$istreambuf_iterator@DU?$char_traits@D@std@@@std@@@std@@@std@@YAABV?$num_get@DV?$istreambuf_iterator@DU?$char_traits@D@std@@@std@@@0@ABVlocale@0@@Z 10065ffe f i libcpmt:locale.obj
 0001:00065096       ??0?$_String_val@U?$_Simple_types@D@std@@@std@@QAE@XZ 10066096 f i libcpmt:locale.obj
 0001:000650b1       ??0?$_Yarn@D@std@@QAE@XZ   100660b1 f i libcpmt:locale.obj
 0001:000650be       ??0?$_Yarn@_W@std@@QAE@XZ  100660be f i libcpmt:locale.obj
 0001:000650cd       ??0?$allocator@D@std@@QAE@XZ 100660cd f i libcpmt:locale.obj
 0001:000650d0       ??0?$basic_string@DU?$char_traits@D@std@@V?$allocator@D@2@@std@@QAE@XZ 100660d0 f i libcpmt:locale.obj
 0001:000650ee       ??0?$codecvt@DDU_Mbstatet@@@std@@QAE@ABV_Locinfo@1@I@Z 100660ee f i libcpmt:locale.obj
 0001:00065107       ??0?$ctype@D@std@@QAE@ABV_Locinfo@1@I@Z 10066107 f i libcpmt:locale.obj
 0001:0006513d       ??0?$num_get@DV?$istreambuf_iterator@DU?$char_traits@D@std@@@std@@@std@@QAE@ABV_Locinfo@1@I@Z 1006613d f i libcpmt:locale.obj
 0001:00065156       ??0?$num_put@DV?$ostreambuf_iterator@DU?$char_traits@D@std@@@std@@@std@@QAE@ABV_Locinfo@1@I@Z 10066156 f i libcpmt:locale.obj
 0001:0006516f       ??0?$numpunct@D@std@@QAE@ABV_Locinfo@1@I_N@Z 1006616f f i libcpmt:locale.obj
 0001:000651a8       ??0_Bxty@?$_String_val@U?$_Simple_types@D@std@@@std@@QAE@XZ 100661a8 f i libcpmt:locale.obj
 0001:000651b5       ??0_Fake_proxy_ptr_impl@std@@QAE@ABU_Fake_allocator@1@ABU_Container_base0@1@@Z 100661b5 f i libcpmt:locale.obj
 0001:000651ba       ??0bad_alloc@std@@AAE@QBD@Z 100661ba f i libcpmt:locale.obj
 0001:000651dd       ??0codecvt_base@std@@QAE@I@Z 100661dd f i libcpmt:locale.obj
 0001:000651f2       ??0ctype_base@std@@QAE@I@Z 100661f2 f i libcpmt:locale.obj
 0001:00065207       ??0locale@std@@QAE@ABV01@@Z 10066207 f i libcpmt:locale.obj
 0001:00065232       ??0locale@std@@QAE@XZ      10066232 f i libcpmt:locale.obj
 0001:00065277       ??1?$_Compressed_pair@V?$allocator@D@std@@V?$_String_val@U?$_Simple_types@D@std@@@2@$00@std@@QAE@XZ 10066277 f i libcpmt:locale.obj
 0001:0006527a       ??1?$_String_val@U?$_Simple_types@D@std@@@std@@QAE@XZ 1006627a f i libcpmt:locale.obj
 0001:0006527d       ??1?$_Yarn@_W@std@@QAE@XZ  1006627d f i libcpmt:locale.obj
 0001:00065282       ??1?$num_get@DV?$istreambuf_iterator@DU?$char_traits@D@std@@@std@@@std@@MAE@XZ 10066282 f i libcpmt:locale.obj
 0001:00065289       ??1_Bxty@?$_String_val@U?$_Simple_types@D@std@@@std@@QAE@XZ 10066289 f i libcpmt:locale.obj
 0001:0006528c       ??4?$basic_string@DU?$char_traits@D@std@@V?$allocator@D@2@@std@@QAEAAV01@$$QAV01@@Z 1006628c f i libcpmt:locale.obj
 0001:000652ad       ??4?$ostreambuf_iterator@DU?$char_traits@D@std@@@std@@QAEAAV01@D@Z 100662ad f i libcpmt:locale.obj
 0001:000652d1       ??A?$basic_string@DU?$char_traits@D@std@@V?$allocator@D@2@@std@@QAEAADI@Z 100662d1 f i libcpmt:locale.obj
 0001:000652e5       ??A?$basic_string@DU?$char_traits@D@std@@V?$allocator@D@2@@std@@QBEABDI@Z 100662e5 f i libcpmt:locale.obj
 0001:000652f9       ??D?$istreambuf_iterator@DU?$char_traits@D@std@@@std@@QBEDXZ 100662f9 f i libcpmt:locale.obj
 0001:0006530c       ??D?$ostreambuf_iterator@DU?$char_traits@D@std@@@std@@QAEAAV01@XZ 1006630c f i libcpmt:locale.obj
 0001:0006530f       ??E?$istreambuf_iterator@DU?$char_traits@D@std@@@std@@QAEAAV01@XZ 1006630f f i libcpmt:locale.obj
 0001:0006531b       ??E?$ostreambuf_iterator@DU?$char_traits@D@std@@@std@@QAEAAV01@XZ 1006631b f i libcpmt:locale.obj
 0001:0006531e       ??R<lambda_1>@?1??append@?$basic_string@DU?$char_traits@D@std@@V?$allocator@D@2@@std@@QAEAAV23@ID@Z@QBE@QADQBDIID@Z 1006631e f i libcpmt:locale.obj
 0001:00065351       ??R<lambda_1>@?1??append@?$basic_string@DU?$char_traits@D@std@@V?$allocator@D@2@@std@@QAEAAV23@QBDI@Z@QBE@QAD0I0I@Z 10066351 f i libcpmt:locale.obj
 0001:00065382       ??R<lambda_1>@?1??insert@?$basic_string@DU?$char_traits@D@std@@V?$allocator@D@2@@std@@QAEAAV23@IID@Z@QBE@QADQBDIIID@Z 10066382 f i libcpmt:locale.obj
 0001:000653cb       ??R<lambda_1>@?1??push_back@?$basic_string@DU?$char_traits@D@std@@V?$allocator@D@2@@std@@QAEXD@Z@QBE@QADQBDID@Z 100663cb f i libcpmt:locale.obj
 0001:000653f4       ??R?$default_delete@V_Facet_base@std@@@std@@QBEXPAV_Facet_base@1@@Z 100663f4 f i libcpmt:locale.obj
 0001:00065418       ??Y?$basic_string@DU?$char_traits@D@std@@V?$allocator@D@2@@std@@QAEAAV01@ABV01@@Z 10066418 f i libcpmt:locale.obj
 0001:00065421       ??_E?$num_get@DV?$istreambuf_iterator@DU?$char_traits@D@std@@@std@@@std@@MAEPAXI@Z 10066421 f i libcpmt:locale.obj
 0001:00065421       ??_G?$num_get@DV?$istreambuf_iterator@DU?$char_traits@D@std@@@std@@@std@@MAEPAXI@Z 10066421 f i libcpmt:locale.obj
 0001:00065444       ?_Activate_SSO_buffer@?$_String_val@U?$_Simple_types@D@std@@@std@@QAEXXZ 10066444 f i libcpmt:locale.obj
 0001:00065447       ?_Addfac@_Locimp@locale@std@@AAEXPAVfacet@23@I@Z 10066447 f i libcpmt:locale.obj
 0001:0006545d       ?_Adjust_manually_vector_aligned@std@@YAXAAPAXAAI@Z 1006645d f i libcpmt:locale.obj
 0001:00065489       ?_Alloc_proxy@_Container_base0@std@@QAEXABU_Fake_allocator@2@@Z 10066489 f i libcpmt:locale.obj
 0001:0006548c       ?_Allocate@_Default_allocate_traits@std@@SAPAXI@Z 1006648c f i libcpmt:locale.obj
 0001:00065495       ?_Apply_annotation@?$basic_string@DU?$char_traits@D@std@@V?$allocator@D@2@@std@@CAXQBDIII@Z 10066495 f i libcpmt:locale.obj
 0001:000654de       ?_C_str@locale@std@@QBEPBDXZ 100664de f i libcpmt:locale.obj
 0001:000654f6       ?_Calculate_growth@?$basic_string@DU?$char_traits@D@std@@V?$allocator@D@2@@std@@ABEII@Z 100664f6 f i libcpmt:locale.obj
 0001:00065510       ?_Calculate_growth@?$basic_string@DU?$char_traits@D@std@@V?$allocator@D@2@@std@@CAIIII@Z 10066510 f i libcpmt:locale.obj
 0001:00065541       ?_Check_offset@?$_String_val@U?$_Simple_types@D@std@@@std@@QBEXI@Z 10066541 f i libcpmt:locale.obj
 0001:00065556       ?_Clamp_to_end@_Asan_aligned_pointers@std@@QBEPBXPBX@Z 10066556 f i libcpmt:locale.obj
 0001:00065567       ?_Construct_empty@?$basic_string@DU?$char_traits@D@std@@V?$allocator@D@2@@std@@AAEXXZ 10066567 f i libcpmt:locale.obj
 0001:00065579       ?_Create_annotation@?$basic_string@DU?$char_traits@D@std@@V?$allocator@D@2@@std@@ABEXXZ 10066579 f i libcpmt:locale.obj
 0001:00065593       ?_Eos@?$basic_string@DU?$char_traits@D@std@@V?$allocator@D@2@@std@@AAEXI@Z 10066593 f i libcpmt:locale.obj
 0001:000655bb       ?_Get_asan_aligned_after@std@@YAPBXQBX@Z 100665bb f i libcpmt:locale.obj
 0001:000655c9       ?_Get_first@?$_Compressed_pair@U?$default_delete@V_Facet_base@std@@@std@@PAV_Facet_base@2@$00@std@@QAEAAU?$default_delete@V_Facet_base@std@@@2@XZ 100665c9 f i libcpmt:locale.obj
 0001:000655cc       ?_Get_first@?$_Compressed_pair@V?$allocator@D@std@@V?$_String_val@U?$_Simple_types@D@std@@@2@$00@std@@QAEAAV?$allocator@D@2@XZ 100665cc f i libcpmt:locale.obj
 0001:000655cf       ?_Get_first@?$_Compressed_pair@V?$allocator@D@std@@V?$_String_val@U?$_Simple_types@D@std@@@2@$00@std@@QBEABV?$allocator@D@2@XZ 100665cf f i libcpmt:locale.obj
 0001:000655d2       ?_Getal@?$basic_string@DU?$char_traits@D@std@@V?$allocator@D@2@@std@@AAEAAV?$allocator@D@2@XZ 100665d2 f i libcpmt:locale.obj
 0001:000655d5       ?_Getal@?$basic_string@DU?$char_traits@D@std@@V?$allocator@D@2@@std@@ABEABV?$allocator@D@2@XZ 100665d5 f i libcpmt:locale.obj
 0001:000655d8       ?_Getcat@?$codecvt@DDU_Mbstatet@@@std@@SAIPAPBVfacet@locale@2@PBV42@@Z 100665d8 f i libcpmt:locale.obj
 0001:00065643       ?_Getcat@?$ctype@D@std@@SAIPAPBVfacet@locale@2@PBV42@@Z 10066643 f i libcpmt:locale.obj
 0001:000656a9       ?_Getcat@?$num_get@DV?$istreambuf_iterator@DU?$char_traits@D@std@@@std@@@std@@SAIPAPBVfacet@locale@2@PBV42@@Z 100666a9 f i libcpmt:locale.obj
 0001:00065714       ?_Getcat@?$num_put@DV?$ostreambuf_iterator@DU?$char_traits@D@std@@@std@@@std@@SAIPAPBVfacet@locale@2@PBV42@@Z 10066714 f i libcpmt:locale.obj
 0001:0006577f       ?_Getctype@_Locinfo@std@@QBE?AU_Ctypevec@@XZ 1006677f f i libcpmt:locale.obj
 0001:000657a2       ?_Getcvt@_Locinfo@std@@QBE?AU_Cvtvec@@XZ 100667a2 f i libcpmt:locale.obj
 0001:000657c6       ?_Getfacet@locale@std@@QBEPBVfacet@12@I@Z 100667c6 f i libcpmt:locale.obj
 0001:00065807       ?_Getfalse@_Locinfo@std@@QBEPBDXZ 10066807 f i libcpmt:locale.obj
 0001:0006580d       ?_Getlconv@_Locinfo@std@@QBEPBUlconv@@XZ 1006680d f i libcpmt:locale.obj
 0001:00065812       ?_Getname@_Locinfo@std@@QBEPBDXZ 10066812 f i libcpmt:locale.obj
 0001:0006581d       ?_Gettrue@_Locinfo@std@@QBEPBDXZ 1006681d f i libcpmt:locale.obj
 0001:00065823       ?_Gnavail@?$basic_streambuf@DU?$char_traits@D@std@@@std@@IBE_JXZ 10066823 f i libcpmt:locale.obj
 0001:00065835       ?_Gninc@?$basic_streambuf@DU?$char_traits@D@std@@@std@@IAEPADXZ 10066835 f i libcpmt:locale.obj
 0001:00065845       ?_Ifmt@?$num_put@DV?$ostreambuf_iterator@DU?$char_traits@D@std@@@std@@@std@@ABAPADPADPBDH@Z 10066845 f i libcpmt:locale.obj
 0001:000658ba       ?_Inc@?$istreambuf_iterator@DU?$char_traits@D@std@@@std@@AAEXXZ 100668ba f i libcpmt:locale.obj
 0001:000658de       ?_Init@?$codecvt@DDU_Mbstatet@@@std@@IAEXABV_Locinfo@2@@Z 100668de f i libcpmt:locale.obj
 0001:000658e1       ?_Init@?$ctype@D@std@@IAEXABV_Locinfo@2@@Z 100668e1 f i libcpmt:locale.obj
 0001:00065904       ?_Init@?$num_get@DV?$istreambuf_iterator@DU?$char_traits@D@std@@@std@@@std@@IAEXABV_Locinfo@2@@Z 10066904 f i libcpmt:locale.obj
 0001:00065907       ?_Init@?$num_put@DV?$ostreambuf_iterator@DU?$char_traits@D@std@@@std@@@std@@IAEXABV_Locinfo@2@@Z 10066907 f i libcpmt:locale.obj
 0001:0006590a       ?_Init@?$numpunct@D@std@@IAEXABV_Locinfo@2@_N@Z 1006690a f i libcpmt:locale.obj
 0001:000659aa       ?_Large_mode_engaged@?$_String_val@U?$_Simple_types@D@std@@@std@@QBE_NXZ 100669aa f i libcpmt:locale.obj
 0001:000659b2       ?_Locimp_Addfac@_Locimp@locale@std@@CAXPAV123@PAVfacet@23@I@Z 100669b2 f   libcpmt:locale.obj
 0001:00065a85       ?_Locimp_ctor@_Locimp@locale@std@@CAXPAV123@ABV123@@Z 10066a85 f   libcpmt:locale.obj
 0001:00065b3f       ?_Locinfo_Addcats@_Locinfo@std@@SAAAV12@PAV12@HPBD@Z 10066b3f f   libcpmt:locale.obj
 0001:00065bd5       ?_Locinfo_ctor@_Locinfo@std@@SAXPAV12@HPBD@Z 10066bd5 f   libcpmt:locale.obj
 0001:00065c0c       ?_Makeloc@_Locimp@locale@std@@CAPAV123@ABV_Locinfo@3@HPAV123@PBV23@@Z 10066c0c f   libcpmt:locale.obj
 0001:00065e04       ?_Modify_annotation@?$basic_string@DU?$char_traits@D@std@@V?$allocator@D@2@@std@@ABEXII@Z 10066e04 f i libcpmt:locale.obj
 0001:00065e2b       ?_Myptr@?$_String_val@U?$_Simple_types@D@std@@@std@@QAEPADXZ 10066e2b f i libcpmt:locale.obj
 0001:00065e36       ?_Myptr@?$_String_val@U?$_Simple_types@D@std@@@std@@QBEPBDXZ 10066e36 f i libcpmt:locale.obj
 0001:00065e41       ?_Orphan_all@_Container_base0@std@@QAEXXZ 10066e41 f i libcpmt:locale.obj
 0001:00065e44       ?_Peek@?$istreambuf_iterator@DU?$char_traits@D@std@@@std@@ABEDXZ 10066e44 f i libcpmt:locale.obj
 0001:00065e6b       ?_Pnavail@?$basic_streambuf@DU?$char_traits@D@std@@@std@@IBE_JXZ 10066e6b f i libcpmt:locale.obj
 0001:00065e7d       ?_Pninc@?$basic_streambuf@DU?$char_traits@D@std@@@std@@IAEPADXZ 10066e7d f i libcpmt:locale.obj
 0001:00065e8d       ?_Release@_Fake_proxy_ptr_impl@std@@QAEXXZ 10066e8d f i libcpmt:locale.obj
 0001:00065e90       ?_Remove_annotation@?$basic_string@DU?$char_traits@D@std@@V?$allocator@D@2@@std@@ABEXXZ 10066e90 f i libcpmt:locale.obj
 0001:00065eaa       ?_Stodx_v3@std@@YANPBDPAPADPAH@Z 10066eaa f i libcpmt:locale.obj
 0001:00065ed8       ?_Stofx_v3@std@@YAMPBDPAPADPAH@Z 10066ed8 f i libcpmt:locale.obj
 0001:00065f0d       ?_Swap_proxy_and_iterators@?$basic_string@DU?$char_traits@D@std@@V?$allocator@D@2@@std@@AAEXAAV12@@Z 10066f0d f i libcpmt:locale.obj
 0001:00065f10       ?_Swap_proxy_and_iterators@_Container_base0@std@@QAEXAAU12@@Z 10066f10 f i libcpmt:locale.obj
 0001:00065f13       ?_Switch_to_buf@_Bxty@?$_String_val@U?$_Simple_types@D@std@@@std@@QAEXXZ 10066f13 f i libcpmt:locale.obj
 0001:00065f16       ?_Take_contents@?$basic_string@DU?$char_traits@D@std@@V?$allocator@D@2@@std@@AAEXAAV12@@Z 10066f16 f i libcpmt:locale.obj
 0001:00065f5e       ?_Tidy@?$_Yarn@_W@std@@AAEXXZ 10066f5e f i libcpmt:locale.obj
 0001:00065f76       ?_Tidy@?$ctype@D@std@@IAEXXZ 10066f76 f i libcpmt:locale.obj
 0001:00065fa0       ?_Tidy@?$numpunct@D@std@@AAEXXZ 10066fa0 f i libcpmt:locale.obj
 0001:00065fc0       ?_Tidy_deallocate@?$basic_string@DU?$char_traits@D@std@@V?$allocator@D@2@@std@@AAEXXZ 10066fc0 f i libcpmt:locale.obj
 0001:00065fef       ?allocate@?$allocator@D@std@@QAEPADI@Z 10066fef f i libcpmt:locale.obj
 0001:00065fff       ?append@?$basic_string@DU?$char_traits@D@std@@V?$allocator@D@2@@std@@QAEAAV12@ABV12@@Z 10066fff f i libcpmt:locale.obj
 0001:0006601b       ?assign@?$_Char_traits@DH@std@@SAPADQADID@Z 1006701b f i libcpmt:locale.obj
 0001:0006603a       ?assign@?$_Char_traits@DH@std@@SAXAADABD@Z 1006703a f i libcpmt:locale.obj
 0001:00066049       ?assign@?$_Narrow_char_traits@DH@std@@SAPADQADID@Z 10067049 f i libcpmt:locale.obj
 0001:00066061       ?assign@?$_Narrow_char_traits@DH@std@@SAXAADABD@Z 10067061 f i libcpmt:locale.obj
 0001:00066070       ?assign@?$basic_string@DU?$char_traits@D@std@@V?$allocator@D@2@@std@@QAEAAV12@$$QAV12@@Z 10067070 f i libcpmt:locale.obj
 0001:00066085       ?c_str@?$basic_string@DU?$char_traits@D@std@@V?$allocator@D@2@@std@@QBEPBDXZ 10067085 f i libcpmt:locale.obj
 0001:00066090       ?copy@?$_Char_traits@DH@std@@SAPADQADQBDI@Z 10067090 f i libcpmt:locale.obj
 0001:000660a9       ?data@?$basic_string@DU?$char_traits@D@std@@V?$allocator@D@2@@std@@QBEPBDXZ 100670a9 f i libcpmt:locale.obj
 0001:000660b4       ?decimal_point@?$numpunct@D@std@@QBEDXZ 100670b4 f i libcpmt:locale.obj
 0001:000660cc       ?do_get@?$num_get@DV?$istreambuf_iterator@DU?$char_traits@D@std@@@std@@@std@@MBE?AV?$istreambuf_iterator@DU?$char_traits@D@std@@@2@V32@0AAVios_base@2@AAHAAG@Z 100670cc f i libcpmt:locale.obj
 0001:000661c5       ?do_get@?$num_get@DV?$istreambuf_iterator@DU?$char_traits@D@std@@@std@@@std@@MBE?AV?$istreambuf_iterator@DU?$char_traits@D@std@@@2@V32@0AAVios_base@2@AAHAAI@Z 100671c5 f i libcpmt:locale.obj
 0001:00066205       ?do_get@?$num_get@DV?$istreambuf_iterator@DU?$char_traits@D@std@@@std@@@std@@MBE?AV?$istreambuf_iterator@DU?$char_traits@D@std@@@2@V32@0AAVios_base@2@AAHAAJ@Z 10067205 f i libcpmt:locale.obj
 0001:000662d8       ?do_get@?$num_get@DV?$istreambuf_iterator@DU?$char_traits@D@std@@@std@@@std@@MBE?AV?$istreambuf_iterator@DU?$char_traits@D@std@@@2@V32@0AAVios_base@2@AAHAAK@Z 100672d8 f i libcpmt:locale.obj
 0001:000663ab       ?do_get@?$num_get@DV?$istreambuf_iterator@DU?$char_traits@D@std@@@std@@@std@@MBE?AV?$istreambuf_iterator@DU?$char_traits@D@std@@@2@V32@0AAVios_base@2@AAHAAM@Z 100673ab f i libcpmt:locale.obj
 0001:0006649b       ?do_get@?$num_get@DV?$istreambuf_iterator@DU?$char_traits@D@std@@@std@@@std@@MBE?AV?$istreambuf_iterator@DU?$char_traits@D@std@@@2@V32@0AAVios_base@2@AAHAAN@Z 1006749b f i libcpmt:locale.obj
 0001:0006658c       ?do_get@?$num_get@DV?$istreambuf_iterator@DU?$char_traits@D@std@@@std@@@std@@MBE?AV?$istreambuf_iterator@DU?$char_traits@D@std@@@2@V32@0AAVios_base@2@AAHAAO@Z 1006758c f i libcpmt:locale.obj
 0001:000665ce       ?do_get@?$num_get@DV?$istreambuf_iterator@DU?$char_traits@D@std@@@std@@@std@@MBE?AV?$istreambuf_iterator@DU?$char_traits@D@std@@@2@V32@0AAVios_base@2@AAHAAPAX@Z 100675ce f i libcpmt:locale.obj
 0001:000666a1       ?do_get@?$num_get@DV?$istreambuf_iterator@DU?$char_traits@D@std@@@std@@@std@@MBE?AV?$istreambuf_iterator@DU?$char_traits@D@std@@@2@V32@0AAVios_base@2@AAHAA_J@Z 100676a1 f i libcpmt:locale.obj
 0001:00066779       ?do_get@?$num_get@DV?$istreambuf_iterator@DU?$char_traits@D@std@@@std@@@std@@MBE?AV?$istreambuf_iterator@DU?$char_traits@D@std@@@2@V32@0AAVios_base@2@AAHAA_K@Z 10067779 f i libcpmt:locale.obj
 0001:00066851       ?do_get@?$num_get@DV?$istreambuf_iterator@DU?$char_traits@D@std@@@std@@@std@@MBE?AV?$istreambuf_iterator@DU?$char_traits@D@std@@@2@V32@0AAVios_base@2@AAHAA_N@Z 10067851 f i libcpmt:locale.obj
 0001:00066a54       ?empty@?$basic_string@DU?$char_traits@D@std@@V?$allocator@D@2@@std@@QBE_NXZ 10067a54 f i libcpmt:locale.obj
 0001:00066a5c       ?eof@?$_Narrow_char_traits@DH@std@@SAHXZ 10067a5c f i libcpmt:locale.obj
 0001:00066a60       ?eq_int_type@?$_Narrow_char_traits@DH@std@@SA_NHH@Z 10067a60 f i libcpmt:locale.obj
 0001:00066a6e       ?equal@?$istreambuf_iterator@DU?$char_traits@D@std@@@std@@QBE_NABV12@@Z 10067a6e f i libcpmt:locale.obj
 0001:00066aa8       ?falsename@?$numpunct@D@std@@QBE?AV?$basic_string@DU?$char_traits@D@std@@V?$allocator@D@2@@2@XZ 10067aa8 f i libcpmt:locale.obj
 0001:00066acd       ?flags@ios_base@std@@QBEHXZ 10067acd f i libcpmt:locale.obj
 0001:00066ad1       ?fpclassify@@YAHN@Z        10067ad1 f i libcpmt:locale.obj
 0001:00066ae6       ?fpclassify@@YAHO@Z        10067ae6 f i libcpmt:locale.obj
 0001:00066afb       ?getloc@ios_base@std@@QBE?AVlocale@2@XZ 10067afb f i libcpmt:locale.obj
 0001:00066b10       ?global@locale@std@@SA?AV12@ABV12@@Z 10067b10 f   libcpmt:locale.obj
 0001:00066bf8       ?gptr@?$basic_streambuf@DU?$char_traits@D@std@@@std@@IBEPADXZ 10067bf8 f i libcpmt:locale.obj
 0001:00066bfe       ?insert@?$basic_string@DU?$char_traits@D@std@@V?$allocator@D@2@@std@@QAEAAV12@IID@Z 10067bfe f i libcpmt:locale.obj
 0001:00066c7e       ?is_constant_evaluated@std@@YA_NXZ 10067c7e f i libcpmt:locale.obj
 0001:00066c81       ?length@?$_Narrow_char_traits@DH@std@@SAIQBD@Z 10067c81 f i libcpmt:locale.obj
 0001:00066c95       ?max_size@?$_Default_allocator_traits@V?$allocator@D@std@@@std@@SAIABV?$allocator@D@2@@Z 10067c95 f i libcpmt:locale.obj
 0001:00066c99       ?max_size@?$basic_string@DU?$char_traits@D@std@@V?$allocator@D@2@@std@@QBEIXZ 10067c99 f i libcpmt:locale.obj
 0001:00066c9f       ?move@?$_Char_traits@DH@std@@SAPADQADQBDI@Z 10067c9f f i libcpmt:locale.obj
 0001:00066cb8       ?precision@ios_base@std@@QBE_JXZ 10067cb8 f i libcpmt:locale.obj
 0001:00066cbf       ?release@?$unique_ptr@V_Facet_base@std@@U?$default_delete@V_Facet_base@std@@@2@@std@@QAEPAV_Facet_base@2@XZ 10067cbf f i libcpmt:locale.obj
 0001:00066cc8       ?sbumpc@?$basic_streambuf@DU?$char_traits@D@std@@@std@@QAEHXZ 10067cc8 f i libcpmt:locale.obj
 0001:00066d01       ?sgetc@?$basic_streambuf@DU?$char_traits@D@std@@@std@@QAEHXZ 10067d01 f i libcpmt:locale.obj
 0001:00066d2f       ?size@?$basic_string@DU?$char_traits@D@std@@V?$allocator@D@2@@std@@QBEIXZ 10067d2f f i libcpmt:locale.obj
 0001:00066d33       ?thousands_sep@?$numpunct@D@std@@QBEDXZ 10067d33 f i libcpmt:locale.obj
 0001:00066d4b       ?to_char_type@?$_Narrow_char_traits@DH@std@@SADH@Z 10067d4b f i libcpmt:locale.obj
 0001:00066d53       ?to_int_type@?$_Narrow_char_traits@DH@std@@SAHD@Z 10067d53 f i libcpmt:locale.obj
 0001:00066d5c       ?tolower@?$ctype@D@std@@QBEDD@Z 10067d5c f i libcpmt:locale.obj
 0001:00066d7d       ?truename@?$numpunct@D@std@@QBE?AV?$basic_string@DU?$char_traits@D@std@@V?$allocator@D@2@@2@XZ 10067d7d f i libcpmt:locale.obj
 0001:00066da2       ?widen@?$ctype@D@std@@QBEPBDPBD0PAD@Z 10067da2 f i libcpmt:locale.obj
 0001:00066dc9       ?width@ios_base@std@@QBE_JXZ 10067dc9 f i libcpmt:locale.obj
 0001:00066dd0       __vsprintf_s_l             10067dd0 f i libcpmt:locale.obj
 0001:00066dfe       _fabsl                     10067dfe f i libcpmt:locale.obj
 0001:00066e19       _frexpl                    10067e19 f i libcpmt:locale.obj
 0001:00066e35       ??1_Init_atexit@@QAE@XZ    10067e35 f i libcpmt:iosptrs.obj
 0001:00066e9d       ?_Atexit@@YAXP6AXXZ@Z      10067e9d f   libcpmt:iosptrs.obj
 0001:00066ecc       ??0?$__crt_scoped_stack_ptr@_W@@QAE@U?$__crt_scoped_stack_ptr_tag@_W@@@Z 10067ecc f i libcpmt:StlLCMapStringA.obj
 0001:00066eda       ??0?$__crt_scoped_stack_ptr_tag@_W@@QAE@QA_W@Z 10067eda f i libcpmt:StlLCMapStringA.obj
 0001:00066ee8       ??1?$__crt_scoped_stack_ptr@_W@@QAE@XZ 10067ee8 f i libcpmt:StlLCMapStringA.obj
 0001:00066f01       ??B?$__crt_scoped_stack_ptr@_W@@QBE_NXZ 10067f01 f i libcpmt:StlLCMapStringA.obj
 0001:00066f08       ?get@?$__crt_scoped_stack_ptr@_W@@QBEPA_WXZ 10067f08 f i libcpmt:StlLCMapStringA.obj
 0001:00066f0b       __MallocaComputeSize       10067f0b f i libcpmt:StlLCMapStringA.obj
 0001:00066f1c       __MarkAllocaS              10067f1c f i libcpmt:StlLCMapStringA.obj
 0001:00066f30       ___crtLCMapStringA         10067f30 f   libcpmt:StlLCMapStringA.obj
 0001:00067100       __freea_crt                10068100 f i libcpmt:StlLCMapStringA.obj
 0001:0006711e       ??$?0$$V@?$_Compressed_pair@V?$allocator@G@std@@V?$_String_val@U?$_Simple_types@G@std@@@2@$00@std@@QAE@U_Zero_then_variadic_args_t@1@@Z 1006811e f i libcpmt:wlocale.obj
 0001:0006713b       ??$?0$$V@?$_Compressed_pair@V?$allocator@_W@std@@V?$_String_val@U?$_Simple_types@_W@std@@@2@$00@std@@QAE@U_Zero_then_variadic_args_t@1@@Z 1006813b f i libcpmt:wlocale.obj
 0001:00067158       ??$?0V?$allocator@D@std@@$$V@?$_Compressed_pair@V?$allocator@D@std@@V?$_String_val@U?$_Simple_types@D@std@@@2@$00@std@@QAE@U_One_then_variadic_args_t@1@$$QAV?$allocator@D@1@@Z 10068158 f i libcpmt:wlocale.obj
 0001:00067175       ??$?0V?$allocator@G@std@@$$V@?$_Compressed_pair@V?$allocator@G@std@@V?$_String_val@U?$_Simple_types@G@std@@@2@$00@std@@QAE@U_One_then_variadic_args_t@1@$$QAV?$allocator@G@1@@Z 10068175 f i libcpmt:wlocale.obj
 0001:00067192       ??$?0V?$allocator@_W@std@@$$V@?$_Compressed_pair@V?$allocator@_W@std@@V?$_String_val@U?$_Simple_types@_W@std@@@2@$00@std@@QAE@U_One_then_variadic_args_t@1@$$QAV?$allocator@_W@1@@Z 10068192 f i libcpmt:wlocale.obj
 0001:000671af       ??$?8GU?$char_traits@G@std@@@std@@YA_NABV?$istreambuf_iterator@GU?$char_traits@G@std@@@0@0@Z 100681af f i libcpmt:wlocale.obj
 0001:000671bf       ??$?8_WU?$char_traits@_W@std@@@std@@YA_NABV?$istreambuf_iterator@_WU?$char_traits@_W@std@@@0@0@Z 100681bf f i libcpmt:wlocale.obj
 0001:000671cf       ??$_Adl_verify_range@PAGPAG@std@@YAXABQAG0@Z 100681cf f i libcpmt:wlocale.obj
 0001:000671d2       ??$_Adl_verify_range@PAGPBG@std@@YAXABQAGABQBG@Z 100681d2 f i libcpmt:wlocale.obj
 0001:000671d5       ??$_Adl_verify_range@PA_WPA_W@std@@YAXABQA_W0@Z 100681d5 f i libcpmt:wlocale.obj
 0001:000671d8       ??$_Adl_verify_range@PA_WPB_W@std@@YAXABQA_WABQB_W@Z 100681d8 f i libcpmt:wlocale.obj
 0001:000671db       ??$_Adl_verify_range@PBGPBG@std@@YAXABQBG0@Z 100681db f i libcpmt:wlocale.obj
 0001:000671de       ??$_Adl_verify_range@PB_WPB_W@std@@YAXABQB_W0@Z 100681de f i libcpmt:wlocale.obj
 0001:000671e1       ??$_Adl_verify_range@V?$istreambuf_iterator@GU?$char_traits@G@std@@@std@@V12@@std@@YAXABV?$istreambuf_iterator@GU?$char_traits@G@std@@@0@0@Z 100681e1 f i libcpmt:wlocale.obj
 0001:000671e4       ??$_Adl_verify_range@V?$istreambuf_iterator@_WU?$char_traits@_W@std@@@std@@V12@@std@@YAXABV?$istreambuf_iterator@_WU?$char_traits@_W@std@@@0@0@Z 100681e4 f i libcpmt:wlocale.obj
 0001:000671e7       ??$_Allocate_at_least_helper@V?$allocator@G@std@@@std@@YAPAGAAV?$allocator@G@0@AAI@Z 100681e7 f i libcpmt:wlocale.obj
 0001:000671f9       ??$_Allocate_at_least_helper@V?$allocator@_W@std@@@std@@YAPA_WAAV?$allocator@_W@0@AAI@Z 100681f9 f i libcpmt:wlocale.obj
 0001:0006720b       ??$_Allocate_for_capacity@$0A@@?$basic_string@_WU?$char_traits@_W@std@@V?$allocator@_W@2@@std@@CAPA_WAAV?$allocator@_W@1@AAI@Z 1006820b f i libcpmt:wlocale.obj
 0001:00067223       ??$_Bit_cast@IT_Addr_storage@error_category@std@@$0A@@std@@YAIABT_Addr_storage@error_category@0@@Z 10068223 f i libcpmt:wlocale.obj
 0001:0006722d       ??$_Construct@$00PB_W@?$basic_string@_WU?$char_traits@_W@std@@V?$allocator@_W@2@@std@@AAEXQB_WI@Z 1006822d f i libcpmt:wlocale.obj
 0001:000672b5       ??$_Construct@$01PBD@?$basic_string@DU?$char_traits@D@std@@V?$allocator@D@2@@std@@AAEXQBDI@Z 100682b5 f i libcpmt:wlocale.obj
 0001:00067327       ??$_Construct@$01PBG@?$basic_string@GU?$char_traits@G@std@@V?$allocator@G@2@@std@@AAEXQBGI@Z 10068327 f i libcpmt:wlocale.obj
 0001:000673a6       ??$_Construct@$01PB_W@?$basic_string@_WU?$char_traits@_W@std@@V?$allocator@_W@2@@std@@AAEXQB_WI@Z 100683a6 f i libcpmt:wlocale.obj
 0001:00067425       ??$_Construct@$0A@G@?$basic_string@GU?$char_traits@G@std@@V?$allocator@G@2@@std@@AAEXGI@Z 10068425 f i libcpmt:wlocale.obj
 0001:000674ac       ??$_Construct@$0A@_W@?$basic_string@_WU?$char_traits@_W@std@@V?$allocator@_W@2@@std@@AAEX_WI@Z 100684ac f i libcpmt:wlocale.obj
 0001:00067533       ??$_Construct_in_place@PAGAAPAG@std@@YAXAAPAG0@Z 10068533 f i libcpmt:wlocale.obj
 0001:00067542       ??$_Construct_in_place@PAGABQAG@std@@YAXAAPAGABQAG@Z 10068542 f i libcpmt:wlocale.obj
 0001:00067551       ??$_Construct_in_place@PA_WAAPA_W@std@@YAXAAPA_W0@Z 10068551 f i libcpmt:wlocale.obj
 0001:00067560       ??$_Construct_in_place@PA_WABQA_W@std@@YAXAAPA_WABQA_W@Z 10068560 f i libcpmt:wlocale.obj
 0001:0006756f       ??$_Copy_unchecked@PA_WPA_WV?$ostreambuf_iterator@GU?$char_traits@G@std@@@std@@@std@@YA?AV?$ostreambuf_iterator@GU?$char_traits@G@std@@@0@PA_W0V10@@Z 1006856f f i libcpmt:wlocale.obj
 0001:0006759d       ??$_Copy_unchecked@PA_WPA_WV?$ostreambuf_iterator@_WU?$char_traits@_W@std@@@std@@@std@@YA?AV?$ostreambuf_iterator@_WU?$char_traits@_W@std@@@0@PA_W0V10@@Z 1006859d f i libcpmt:wlocale.obj
 0001:000675cb       ??$_Could_compare_equal_to_value_type@PBGG@std@@YA_NABG@Z 100685cb f i libcpmt:wlocale.obj
 0001:000675ce       ??$_Could_compare_equal_to_value_type@PB_W_W@std@@YA_NAB_W@Z 100685ce f i libcpmt:wlocale.obj
 0001:000675d1       ??$_Destroy_in_place@PAG@std@@YAXAAPAG@Z 100685d1 f i libcpmt:wlocale.obj
 0001:000675d4       ??$_Destroy_in_place@PA_W@std@@YAXAAPA_W@Z 100685d4 f i libcpmt:wlocale.obj
 0001:000675d7       ??$_Find_elem@G$0BL@@std@@YAIAAY0BL@$$CBGG@Z 100685d7 f i libcpmt:wlocale.obj
 0001:000675f2       ??$_Find_elem@G$0BN@@std@@YAIAAY0BN@$$CBGG@Z 100685f2 f i libcpmt:wlocale.obj
 0001:0006760d       ??$_Find_elem@G$0M@@std@@YAIAAY0M@$$CBGG@Z 1006860d f i libcpmt:wlocale.obj
 0001:00067628       ??$_Find_elem@_W$0BL@@std@@YAIAAY0BL@$$CB_W_W@Z 10068628 f i libcpmt:wlocale.obj
 0001:00067643       ??$_Find_elem@_W$0BN@@std@@YAIAAY0BN@$$CB_W_W@Z 10068643 f i libcpmt:wlocale.obj
 0001:0006765e       ??$_Find_elem@_W$0M@@std@@YAIAAY0M@$$CB_W_W@Z 1006865e f i libcpmt:wlocale.obj
 0001:00067679       ??$_Find_unchecked@PBGG@std@@YAPBGPBGQBGABG@Z 10068679 f i libcpmt:wlocale.obj
 0001:00067690       ??$_Find_unchecked@PB_W_W@std@@YAPB_WPB_WQB_WAB_W@Z 10068690 f i libcpmt:wlocale.obj
 0001:000676a7       ??$_Find_vectorized@$$CBGG@std@@YAPBGQBG0G@Z 100686a7 f i libcpmt:wlocale.obj
 0001:000676ba       ??$_Find_vectorized@$$CB_W_W@std@@YAPB_WQB_W0_W@Z 100686ba f i libcpmt:wlocale.obj
 0001:000676cd       ??$_Fput_v3@$0A@@?$num_put@GV?$ostreambuf_iterator@GU?$char_traits@G@std@@@std@@@std@@ABE?AV?$ostreambuf_iterator@GU?$char_traits@G@std@@@1@V21@AAVios_base@1@GPBDI_N@Z 100686cd f i libcpmt:wlocale.obj
 0001:000679e8       ??$_Fput_v3@$0A@@?$num_put@_WV?$ostreambuf_iterator@_WU?$char_traits@_W@std@@@std@@@std@@ABE?AV?$ostreambuf_iterator@_WU?$char_traits@_W@std@@@1@V21@AAVios_base@1@_WPBDI_N@Z 100689e8 f i libcpmt:wlocale.obj
 0001:00067d03       ??$_Get_size_of_n@$01@std@@YAII@Z 10068d03 f i libcpmt:wlocale.obj
 0001:00067d18       ??$_Get_unwrapped@AAPA_W@std@@YA?A_TAAPA_W@Z 10068d18 f i libcpmt:wlocale.obj
 0001:00067d22       ??$_Get_unwrapped_n@V?$ostreambuf_iterator@GU?$char_traits@G@std@@@std@@H@std@@YA?A_T$$QAV?$ostreambuf_iterator@GU?$char_traits@G@std@@@0@H@Z 10068d22 f i libcpmt:wlocale.obj
 0001:00067d2a       ??$_Get_unwrapped_n@V?$ostreambuf_iterator@_WU?$char_traits@_W@std@@@std@@H@std@@YA?A_T$$QAV?$ostreambuf_iterator@_WU?$char_traits@_W@std@@@0@H@Z 10068d2a f i libcpmt:wlocale.obj
 0001:00067d32       ??$_Getint_v2@V?$istreambuf_iterator@GU?$char_traits@G@std@@@std@@G@std@@YAHAAV?$istreambuf_iterator@GU?$char_traits@G@std@@@0@0HHAAH1ABV?$ctype@G@0@@Z 10068d32 f i libcpmt:wlocale.obj
 0001:00067f6b       ??$_Getint_v2@V?$istreambuf_iterator@_WU?$char_traits@_W@std@@@std@@_W@std@@YAHAAV?$istreambuf_iterator@_WU?$char_traits@_W@std@@@0@0HHAAH1ABV?$ctype@_W@0@@Z 10068f6b f i libcpmt:wlocale.obj
 0001:000681a4       ??$_Getloctxt@V?$istreambuf_iterator@GU?$char_traits@G@std@@@std@@D@std@@YAHAAV?$istreambuf_iterator@GU?$char_traits@G@std@@@0@0IPBDW4_Case_sensitive@0@@Z 100691a4 f i libcpmt:wlocale.obj
 0001:000683cb       ??$_Getloctxt@V?$istreambuf_iterator@GU?$char_traits@G@std@@@std@@G@std@@YAHAAV?$istreambuf_iterator@GU?$char_traits@G@std@@@0@0IPBGW4_Case_sensitive@0@@Z 100693cb f i libcpmt:wlocale.obj
 0001:000685e6       ??$_Getloctxt@V?$istreambuf_iterator@_WU?$char_traits@_W@std@@@std@@D@std@@YAHAAV?$istreambuf_iterator@_WU?$char_traits@_W@std@@@0@0IPBDW4_Case_sensitive@0@@Z 100695e6 f i libcpmt:wlocale.obj
 0001:0006880d       ??$_Getloctxt@V?$istreambuf_iterator@_WU?$char_traits@_W@std@@@std@@_W@std@@YAHAAV?$istreambuf_iterator@_WU?$char_traits@_W@std@@@0@0IPB_WW4_Case_sensitive@0@@Z 1006980d f i libcpmt:wlocale.obj
 0001:00068a28       ??$_Getvals@G@?$time_get@GV?$istreambuf_iterator@GU?$char_traits@G@std@@@std@@@std@@IAEXGABV_Locinfo@1@@Z 10069a28 f i libcpmt:wlocale.obj
 0001:00068a93       ??$_Getvals@_W@?$time_get@_WV?$istreambuf_iterator@_WU?$char_traits@_W@std@@@std@@@std@@IAEX_WABV_Locinfo@1@@Z 10069a93 f i libcpmt:wlocale.obj
 0001:00068aec       ??$_Hash_array_representation@_W@std@@YAIQB_WI@Z 10069aec f i libcpmt:wlocale.obj
 0001:00068b07       ??$_Idl_distance@PA_WPA_W@std@@YA?A_PABQA_W0@Z 10069b07 f i libcpmt:wlocale.obj
 0001:00068b18       ??$_LStrcoll@G@std@@YAHPBG000PBU_Collvec@@@Z 10069b18 f i libcpmt:wlocale.obj
 0001:00068b5f       ??$_LStrcoll@_W@std@@YAHPB_W000PBU_Collvec@@@Z 10069b5f f i libcpmt:wlocale.obj
 0001:00068b68       ??$_LStrxfrm@G@std@@YAIPAG0PBG1PBU_Collvec@@@Z 10069b68 f i libcpmt:wlocale.obj
 0001:00068b97       ??$_LStrxfrm@_W@std@@YAIPA_W0PB_W1PBU_Collvec@@@Z 10069b97 f i libcpmt:wlocale.obj
 0001:00068ba0       ??$_Maklocchr@G@std@@YAGDPAGABU_Cvtvec@@@Z 10069ba0 f i libcpmt:wlocale.obj
 0001:00068bd3       ??$_Maklocchr@_W@std@@YA_WDPA_WABU_Cvtvec@@@Z 10069bd3 f i libcpmt:wlocale.obj
 0001:00068c06       ??$_Maklocstr@G@std@@YAPAGPBDPAGABU_Cvtvec@@@Z 10069c06 f i libcpmt:wlocale.obj
 0001:00068cae       ??$_Maklocstr@_W@std@@YAPA_WPBDPA_WABU_Cvtvec@@@Z 10069cae f i libcpmt:wlocale.obj
 0001:00068d56       ??$_Parse_fp_with_locale@$0A@@?$num_get@GV?$istreambuf_iterator@GU?$char_traits@G@std@@@std@@@std@@CA?AU_Num_get_parse_result@1@QADHAAV?$istreambuf_iterator@GU?$char_traits@G@std@@@1@1ABVlocale@1@@Z 10069d56 f i libcpmt:wlocale.obj
 0001:0006977b       ??$_Parse_fp_with_locale@$0A@@?$num_get@_WV?$istreambuf_iterator@_WU?$char_traits@_W@std@@@std@@@std@@CA?AU_Num_get_parse_result@1@QADHAAV?$istreambuf_iterator@_WU?$char_traits@_W@std@@@1@1ABVlocale@1@@Z 1006a77b f i libcpmt:wlocale.obj
 0001:0006a1a0       ??$_Parse_int_with_locale@$0A@@?$num_get@GV?$istreambuf_iterator@GU?$char_traits@G@std@@@std@@@std@@CA?AU_Num_get_parse_result@1@QADAAV?$istreambuf_iterator@GU?$char_traits@G@std@@@1@1HABVlocale@1@@Z 1006b1a0 f i libcpmt:wlocale.obj
 0001:0006a68c       ??$_Parse_int_with_locale@$0A@@?$num_get@_WV?$istreambuf_iterator@_WU?$char_traits@_W@std@@@std@@@std@@CA?AU_Num_get_parse_result@1@QADAAV?$istreambuf_iterator@_WU?$char_traits@_W@std@@@1@1HABVlocale@1@@Z 1006b68c f i libcpmt:wlocale.obj
 0001:0006ab78       ??$_Pocma@V?$allocator@G@std@@@std@@YAXAAV?$allocator@G@0@0@Z 1006bb78 f i libcpmt:wlocale.obj
 0001:0006ab7b       ??$_Pocma@V?$allocator@_W@std@@@std@@YAXAAV?$allocator@_W@0@0@Z 1006bb7b f i libcpmt:wlocale.obj
 0001:0006ab7e       ??$_Reallocate_grow_by@V<lambda_1>@?1??append@?$basic_string@GU?$char_traits@G@std@@V?$allocator@G@2@@std@@QAEAAV34@IG@Z@IG@?$basic_string@GU?$char_traits@G@std@@V?$allocator@G@2@@std@@AAEAAV01@IV<lambda_1>@?1??append@01@QAEAAV01@IG@Z@IG@Z 1006bb7e f i libcpmt:wlocale.obj
 0001:0006ac22       ??$_Reallocate_grow_by@V<lambda_1>@?1??append@?$basic_string@GU?$char_traits@G@std@@V?$allocator@G@2@@std@@QAEAAV34@QBGI@Z@PBGI@?$basic_string@GU?$char_traits@G@std@@V?$allocator@G@2@@std@@AAEAAV01@IV<lambda_1>@?1??append@01@QAEAAV01@QBGI@Z@PBGI@Z 1006bc22 f i libcpmt:wlocale.obj
 0001:0006acc6       ??$_Reallocate_grow_by@V<lambda_1>@?1??append@?$basic_string@_WU?$char_traits@_W@std@@V?$allocator@_W@2@@std@@QAEAAV34@I_W@Z@I_W@?$basic_string@_WU?$char_traits@_W@std@@V?$allocator@_W@2@@std@@AAEAAV01@IV<lambda_1>@?1??append@01@QAEAAV01@I_W@Z@I_W@Z 1006bcc6 f i libcpmt:wlocale.obj
 0001:0006ad6a       ??$_Reallocate_grow_by@V<lambda_1>@?1??append@?$basic_string@_WU?$char_traits@_W@std@@V?$allocator@_W@2@@std@@QAEAAV34@QB_WI@Z@PB_WI@?$basic_string@_WU?$char_traits@_W@std@@V?$allocator@_W@2@@std@@AAEAAV01@IV<lambda_1>@?1??append@01@QAEAAV01@QB_WI@Z@PB_WI@Z 1006bd6a f i libcpmt:wlocale.obj
 0001:0006ae0e       ??$_Reallocate_grow_by@V<lambda_1>@?1??insert@?$basic_string@GU?$char_traits@G@std@@V?$allocator@G@2@@std@@QAEAAV34@IIG@Z@IIG@?$basic_string@GU?$char_traits@G@std@@V?$allocator@G@2@@std@@AAEAAV01@IV<lambda_1>@?1??insert@01@QAEAAV01@IIG@Z@IIG@Z 1006be0e f i libcpmt:wlocale.obj
 0001:0006aeb9       ??$_Reallocate_grow_by@V<lambda_1>@?1??insert@?$basic_string@_WU?$char_traits@_W@std@@V?$allocator@_W@2@@std@@QAEAAV34@II_W@Z@II_W@?$basic_string@_WU?$char_traits@_W@std@@V?$allocator@_W@2@@std@@AAEAAV01@IV<lambda_1>@?1??insert@01@QAEAAV01@II_W@Z@II_W@Z 1006beb9 f i libcpmt:wlocale.obj
 0001:0006af64       ??$_Reallocate_grow_by@V<lambda_1>@?1??push_back@?$basic_string@GU?$char_traits@G@std@@V?$allocator@G@2@@std@@QAEXG@Z@G@?$basic_string@GU?$char_traits@G@std@@V?$allocator@G@2@@std@@AAEAAV01@IV<lambda_1>@?1??push_back@01@QAEXG@Z@G@Z 1006bf64 f i libcpmt:wlocale.obj
 0001:0006b033       ??$_Reallocate_grow_by@V<lambda_1>@?1??push_back@?$basic_string@_WU?$char_traits@_W@std@@V?$allocator@_W@2@@std@@QAEX_W@Z@_W@?$basic_string@_WU?$char_traits@_W@std@@V?$allocator@_W@2@@std@@AAEAAV01@IV<lambda_1>@?1??push_back@01@QAEX_W@Z@_W@Z 1006c033 f i libcpmt:wlocale.obj
 0001:0006b102       ??$_Refancy@PAG$0A@@std@@YAPAGPAG@Z 1006c102 f i libcpmt:wlocale.obj
 0001:0006b10a       ??$_Refancy@PA_W$0A@@std@@YAPA_WPA_W@Z 1006c10a f i libcpmt:wlocale.obj
 0001:0006b112       ??$_Seek_wrapped@V?$ostreambuf_iterator@GU?$char_traits@G@std@@@std@@V12@@std@@YAXAAV?$ostreambuf_iterator@GU?$char_traits@G@std@@@0@$$QAV10@@Z 1006c112 f i libcpmt:wlocale.obj
 0001:0006b127       ??$_Seek_wrapped@V?$ostreambuf_iterator@_WU?$char_traits@_W@std@@@std@@V12@@std@@YAXAAV?$ostreambuf_iterator@_WU?$char_traits@_W@std@@@0@$$QAV10@@Z 1006c127 f i libcpmt:wlocale.obj
 0001:0006b13c       ??$_To_address@PBG@std@@YA?A_PABQBG@Z 1006c13c f i libcpmt:wlocale.obj
 0001:0006b146       ??$_To_address@PB_W@std@@YA?A_PABQB_W@Z 1006c146 f i libcpmt:wlocale.obj
 0001:0006b150       ??$_Unfancy@G@std@@YAPAGPAG@Z 1006c150 f i libcpmt:wlocale.obj
 0001:0006b158       ??$_Unfancy@_W@std@@YAPA_WPA_W@Z 1006c158 f i libcpmt:wlocale.obj
 0001:0006b160       ??$addressof@$$CBV?$moneypunct@G$00@std@@@std@@YAPBV?$moneypunct@G$00@0@ABV10@@Z 1006c160 f i libcpmt:wlocale.obj
 0001:0006b168       ??$addressof@$$CBV?$moneypunct@G$0A@@std@@@std@@YAPBV?$moneypunct@G$0A@@0@ABV10@@Z 1006c168 f i libcpmt:wlocale.obj
 0001:0006b170       ??$addressof@$$CBV?$moneypunct@_W$00@std@@@std@@YAPBV?$moneypunct@_W$00@0@ABV10@@Z 1006c170 f i libcpmt:wlocale.obj
 0001:0006b178       ??$addressof@$$CBV?$moneypunct@_W$0A@@std@@@std@@YAPBV?$moneypunct@_W$0A@@0@ABV10@@Z 1006c178 f i libcpmt:wlocale.obj
 0001:0006b180       ??$addressof@PAG@std@@YAPAPAGAAPAG@Z 1006c180 f i libcpmt:wlocale.obj
 0001:0006b188       ??$addressof@PA_W@std@@YAPAPA_WAAPA_W@Z 1006c188 f i libcpmt:wlocale.obj
 0001:0006b190       ??$addressof@V?$_String_val@U?$_Simple_types@G@std@@@std@@@std@@YAPAV?$_String_val@U?$_Simple_types@G@std@@@0@AAV10@@Z 1006c190 f i libcpmt:wlocale.obj
 0001:0006b198       ??$addressof@V?$_String_val@U?$_Simple_types@_W@std@@@std@@@std@@YAPAV?$_String_val@U?$_Simple_types@_W@std@@@0@AAV10@@Z 1006c198 f i libcpmt:wlocale.obj
 0001:0006b1a0       ??$addressof@V?$basic_string@GU?$char_traits@G@std@@V?$allocator@G@2@@std@@@std@@YAPAV?$basic_string@GU?$char_traits@G@std@@V?$allocator@G@2@@0@AAV10@@Z 1006c1a0 f i libcpmt:wlocale.obj
 0001:0006b1a8       ??$addressof@V?$basic_string@_WU?$char_traits@_W@std@@V?$allocator@_W@2@@std@@@std@@YAPAV?$basic_string@_WU?$char_traits@_W@std@@V?$allocator@_W@2@@0@AAV10@@Z 1006c1a8 f i libcpmt:wlocale.obj
 0001:0006b1b0       ??$begin@$$CBD$0M@@std@@YAPBDAAY0M@$$CBD@Z 1006c1b0 f i libcpmt:wlocale.obj
 0001:0006b1b8       ??$construct_at@G$$V@std@@YAPAGQAG@Z 1006c1b8 f i libcpmt:wlocale.obj
 0001:0006b1c5       ??$construct_at@PAGAAPAG@std@@YAPAPAGQAPAGAAPAG@Z 1006c1c5 f i libcpmt:wlocale.obj
 0001:0006b1d4       ??$construct_at@PAGABQAG@std@@YAPAPAGQAPAGABQAG@Z 1006c1d4 f i libcpmt:wlocale.obj
 0001:0006b1e3       ??$construct_at@PA_WAAPA_W@std@@YAPAPA_WQAPA_WAAPA_W@Z 1006c1e3 f i libcpmt:wlocale.obj
 0001:0006b1f2       ??$construct_at@PA_WABQA_W@std@@YAPAPA_WQAPA_WABQA_W@Z 1006c1f2 f i libcpmt:wlocale.obj
 0001:0006b201       ??$construct_at@_W$$V@std@@YAPA_WQA_W@Z 1006c201 f i libcpmt:wlocale.obj
 0001:0006b20e       ??$copy@PA_WV?$ostreambuf_iterator@GU?$char_traits@G@std@@@std@@@std@@YA?AV?$ostreambuf_iterator@GU?$char_traits@G@std@@@0@PA_W0V10@@Z 1006c20e f i libcpmt:wlocale.obj
 0001:0006b23a       ??$copy@PA_WV?$ostreambuf_iterator@_WU?$char_traits@_W@std@@@std@@@std@@YA?AV?$ostreambuf_iterator@_WU?$char_traits@_W@std@@@0@PA_W0V10@@Z 1006c23a f i libcpmt:wlocale.obj
 0001:0006b266       ??$end@$$CBD$0M@@std@@YAPBDAAY0M@$$CBD@Z 1006c266 f i libcpmt:wlocale.obj
 0001:0006b271       ??$forward@AAPAG@std@@YAAAPAGAAPAG@Z 1006c271 f i libcpmt:wlocale.obj
 0001:0006b279       ??$forward@AAPA_W@std@@YAAAPA_WAAPA_W@Z 1006c279 f i libcpmt:wlocale.obj
 0001:0006b281       ??$forward@ABQAG@std@@YAABQAGABQAG@Z 1006c281 f i libcpmt:wlocale.obj
 0001:0006b289       ??$forward@ABQA_W@std@@YAABQA_WABQA_W@Z 1006c289 f i libcpmt:wlocale.obj
 0001:0006b291       ??$forward@V?$allocator@D@std@@@std@@YA$$QAV?$allocator@D@0@AAV10@@Z 1006c291 f i libcpmt:wlocale.obj
 0001:0006b299       ??$forward@V?$allocator@G@std@@@std@@YA$$QAV?$allocator@G@0@AAV10@@Z 1006c299 f i libcpmt:wlocale.obj
 0001:0006b2a1       ??$forward@V?$allocator@_W@std@@@std@@YA$$QAV?$allocator@_W@0@AAV10@@Z 1006c2a1 f i libcpmt:wlocale.obj
 0001:0006b2a9       ??$forward@V?$ostreambuf_iterator@GU?$char_traits@G@std@@@std@@@std@@YA$$QAV?$ostreambuf_iterator@GU?$char_traits@G@std@@@0@AAV10@@Z 1006c2a9 f i libcpmt:wlocale.obj
 0001:0006b2b1       ??$forward@V?$ostreambuf_iterator@_WU?$char_traits@_W@std@@@std@@@std@@YA$$QAV?$ostreambuf_iterator@_WU?$char_traits@_W@std@@@0@AAV10@@Z 1006c2b1 f i libcpmt:wlocale.obj
 0001:0006b2b9       ??$move@AAV?$allocator@G@std@@@std@@YA$$QAV?$allocator@G@0@AAV10@@Z 1006c2b9 f i libcpmt:wlocale.obj
 0001:0006b2c1       ??$move@AAV?$allocator@_W@std@@@std@@YA$$QAV?$allocator@_W@0@AAV10@@Z 1006c2c1 f i libcpmt:wlocale.obj
 0001:0006b2c9       ??$move@AAV?$basic_string@GU?$char_traits@G@std@@V?$allocator@G@2@@std@@@std@@YA$$QAV?$basic_string@GU?$char_traits@G@std@@V?$allocator@G@2@@0@AAV10@@Z 1006c2c9 f i libcpmt:wlocale.obj
 0001:0006b2d1       ??$move@AAV?$basic_string@_WU?$char_traits@_W@std@@V?$allocator@_W@2@@std@@@std@@YA$$QAV?$basic_string@_WU?$char_traits@_W@std@@V?$allocator@_W@2@@0@AAV10@@Z 1006c2d1 f i libcpmt:wlocale.obj
 0001:0006b2d9       ??$move@AAV?$ostreambuf_iterator@GU?$char_traits@G@std@@@std@@@std@@YA$$QAV?$ostreambuf_iterator@GU?$char_traits@G@std@@@0@AAV10@@Z 1006c2d9 f i libcpmt:wlocale.obj
 0001:0006b2e1       ??$move@AAV?$ostreambuf_iterator@_WU?$char_traits@_W@std@@@std@@@std@@YA$$QAV?$ostreambuf_iterator@_WU?$char_traits@_W@std@@@0@AAV10@@Z 1006c2e1 f i libcpmt:wlocale.obj
 0001:0006b2e9       ??$to_address@$$CBG@std@@YAPBGQBG@Z 1006c2e9 f i libcpmt:wlocale.obj
 0001:0006b2f1       ??$to_address@$$CB_W@std@@YAPB_WQB_W@Z 1006c2f1 f i libcpmt:wlocale.obj
 0001:0006b2f9       ??$use_facet@V?$codecvt@GDU_Mbstatet@@@std@@@std@@YAABV?$codecvt@GDU_Mbstatet@@@0@ABVlocale@0@@Z 1006c2f9 f i libcpmt:wlocale.obj
 0001:0006b391       ??$use_facet@V?$codecvt@_WDU_Mbstatet@@@std@@@std@@YAABV?$codecvt@_WDU_Mbstatet@@@0@ABVlocale@0@@Z 1006c391 f i libcpmt:wlocale.obj
 0001:0006b429       ??$use_facet@V?$collate@G@std@@@std@@YAABV?$collate@G@0@ABVlocale@0@@Z 1006c429 f i libcpmt:wlocale.obj
 0001:0006b4c1       ??$use_facet@V?$collate@_W@std@@@std@@YAABV?$collate@_W@0@ABVlocale@0@@Z 1006c4c1 f i libcpmt:wlocale.obj
 0001:0006b559       ??$use_facet@V?$ctype@G@std@@@std@@YAABV?$ctype@G@0@ABVlocale@0@@Z 1006c559 f i libcpmt:wlocale.obj
 0001:0006b5f1       ??$use_facet@V?$ctype@_W@std@@@std@@YAABV?$ctype@_W@0@ABVlocale@0@@Z 1006c5f1 f i libcpmt:wlocale.obj
 0001:0006b689       ??$use_facet@V?$messages@G@std@@@std@@YAABV?$messages@G@0@ABVlocale@0@@Z 1006c689 f i libcpmt:wlocale.obj
 0001:0006b721       ??$use_facet@V?$messages@_W@std@@@std@@YAABV?$messages@_W@0@ABVlocale@0@@Z 1006c721 f i libcpmt:wlocale.obj
 0001:0006b7b9       ??$use_facet@V?$money_get@GV?$istreambuf_iterator@GU?$char_traits@G@std@@@std@@@std@@@std@@YAABV?$money_get@GV?$istreambuf_iterator@GU?$char_traits@G@std@@@std@@@0@ABVlocale@0@@Z 1006c7b9 f i libcpmt:wlocale.obj
 0001:0006b851       ??$use_facet@V?$money_get@_WV?$istreambuf_iterator@_WU?$char_traits@_W@std@@@std@@@std@@@std@@YAABV?$money_get@_WV?$istreambuf_iterator@_WU?$char_traits@_W@std@@@std@@@0@ABVlocale@0@@Z 1006c851 f i libcpmt:wlocale.obj
 0001:0006b8e9       ??$use_facet@V?$money_put@GV?$ostreambuf_iterator@GU?$char_traits@G@std@@@std@@@std@@@std@@YAABV?$money_put@GV?$ostreambuf_iterator@GU?$char_traits@G@std@@@std@@@0@ABVlocale@0@@Z 1006c8e9 f i libcpmt:wlocale.obj
 0001:0006b981       ??$use_facet@V?$money_put@_WV?$ostreambuf_iterator@_WU?$char_traits@_W@std@@@std@@@std@@@std@@YAABV?$money_put@_WV?$ostreambuf_iterator@_WU?$char_traits@_W@std@@@std@@@0@ABVlocale@0@@Z 1006c981 f i libcpmt:wlocale.obj
 0001:0006ba19       ??$use_facet@V?$moneypunct@G$00@std@@@std@@YAABV?$moneypunct@G$00@0@ABVlocale@0@@Z 1006ca19 f i libcpmt:wlocale.obj
 0001:0006bab1       ??$use_facet@V?$moneypunct@G$0A@@std@@@std@@YAABV?$moneypunct@G$0A@@0@ABVlocale@0@@Z 1006cab1 f i libcpmt:wlocale.obj
 0001:0006bb49       ??$use_facet@V?$moneypunct@_W$00@std@@@std@@YAABV?$moneypunct@_W$00@0@ABVlocale@0@@Z 1006cb49 f i libcpmt:wlocale.obj
 0001:0006bbe1       ??$use_facet@V?$moneypunct@_W$0A@@std@@@std@@YAABV?$moneypunct@_W$0A@@0@ABVlocale@0@@Z 1006cbe1 f i libcpmt:wlocale.obj
 0001:0006bc79       ??$use_facet@V?$num_get@GV?$istreambuf_iterator@GU?$char_traits@G@std@@@std@@@std@@@std@@YAABV?$num_get@GV?$istreambuf_iterator@GU?$char_traits@G@std@@@std@@@0@ABVlocale@0@@Z 1006cc79 f i libcpmt:wlocale.obj
 0001:0006bd11       ??$use_facet@V?$num_get@_WV?$istreambuf_iterator@_WU?$char_traits@_W@std@@@std@@@std@@@std@@YAABV?$num_get@_WV?$istreambuf_iterator@_WU?$char_traits@_W@std@@@std@@@0@ABVlocale@0@@Z 1006cd11 f i libcpmt:wlocale.obj
 0001:0006bda9       ??$use_facet@V?$num_put@GV?$ostreambuf_iterator@GU?$char_traits@G@std@@@std@@@std@@@std@@YAABV?$num_put@GV?$ostreambuf_iterator@GU?$char_traits@G@std@@@std@@@0@ABVlocale@0@@Z 1006cda9 f i libcpmt:wlocale.obj
 0001:0006be41       ??$use_facet@V?$num_put@_WV?$ostreambuf_iterator@_WU?$char_traits@_W@std@@@std@@@std@@@std@@YAABV?$num_put@_WV?$ostreambuf_iterator@_WU?$char_traits@_W@std@@@std@@@0@ABVlocale@0@@Z 1006ce41 f i libcpmt:wlocale.obj
 0001:0006bed9       ??$use_facet@V?$numpunct@G@std@@@std@@YAABV?$numpunct@G@0@ABVlocale@0@@Z 1006ced9 f i libcpmt:wlocale.obj
 0001:0006bf71       ??$use_facet@V?$numpunct@_W@std@@@std@@YAABV?$numpunct@_W@0@ABVlocale@0@@Z 1006cf71 f i libcpmt:wlocale.obj
 0001:0006c009       ??$use_facet@V?$time_get@GV?$istreambuf_iterator@GU?$char_traits@G@std@@@std@@@std@@@std@@YAABV?$time_get@GV?$istreambuf_iterator@GU?$char_traits@G@std@@@std@@@0@ABVlocale@0@@Z 1006d009 f i libcpmt:wlocale.obj
 0001:0006c0a1       ??$use_facet@V?$time_get@_WV?$istreambuf_iterator@_WU?$char_traits@_W@std@@@std@@@std@@@std@@YAABV?$time_get@_WV?$istreambuf_iterator@_WU?$char_traits@_W@std@@@std@@@0@ABVlocale@0@@Z 1006d0a1 f i libcpmt:wlocale.obj
 0001:0006c139       ??$use_facet@V?$time_put@GV?$ostreambuf_iterator@GU?$char_traits@G@std@@@std@@@std@@@std@@YAABV?$time_put@GV?$ostreambuf_iterator@GU?$char_traits@G@std@@@std@@@0@ABVlocale@0@@Z 1006d139 f i libcpmt:wlocale.obj
 0001:0006c1d1       ??$use_facet@V?$time_put@_WV?$ostreambuf_iterator@_WU?$char_traits@_W@std@@@std@@@std@@@std@@YAABV?$time_put@_WV?$ostreambuf_iterator@_WU?$char_traits@_W@std@@@std@@@0@ABVlocale@0@@Z 1006d1d1 f i libcpmt:wlocale.obj
 0001:0006c269       ??0?$_Mpunct@G@std@@QAE@ABV_Locinfo@1@I_N1@Z 1006d269 f i libcpmt:wlocale.obj
 0001:0006c2a8       ??0?$_Mpunct@_W@std@@QAE@ABV_Locinfo@1@I_N1@Z 1006d2a8 f i libcpmt:wlocale.obj
 0001:0006c2e7       ??0?$_String_const_iterator@V?$_String_val@U?$_Simple_types@G@std@@@std@@@std@@QAE@PBGPBU_Container_base0@1@@Z 1006d2e7 f i libcpmt:wlocale.obj
 0001:0006c2f5       ??0?$_String_const_iterator@V?$_String_val@U?$_Simple_types@G@std@@@std@@@std@@QAE@XZ 1006d2f5 f i libcpmt:wlocale.obj
 0001:0006c2fe       ??0?$_String_const_iterator@V?$_String_val@U?$_Simple_types@_W@std@@@std@@@std@@QAE@PB_WPBU_Container_base0@1@@Z 1006d2fe f i libcpmt:wlocale.obj
 0001:0006c30c       ??0?$_String_const_iterator@V?$_String_val@U?$_Simple_types@_W@std@@@std@@@std@@QAE@XZ 1006d30c f i libcpmt:wlocale.obj
 0001:0006c315       ??0?$_String_iterator@V?$_String_val@U?$_Simple_types@G@std@@@std@@@std@@QAE@PBGPBU_Container_base0@1@@Z 1006d315 f i libcpmt:wlocale.obj
 0001:0006c323       ??0?$_String_iterator@V?$_String_val@U?$_Simple_types@_W@std@@@std@@@std@@QAE@PB_WPBU_Container_base0@1@@Z 1006d323 f i libcpmt:wlocale.obj
 0001:0006c331       ??0?$_String_val@U?$_Simple_types@G@std@@@std@@QAE@XZ 1006d331 f i libcpmt:wlocale.obj
 0001:0006c34c       ??0?$_String_val@U?$_Simple_types@_W@std@@@std@@QAE@XZ 1006d34c f i libcpmt:wlocale.obj
 0001:0006c367       ??0?$allocator@G@std@@QAE@XZ 1006d367 f i libcpmt:wlocale.obj
 0001:0006c36a       ??0?$allocator@_W@std@@QAE@XZ 1006d36a f i libcpmt:wlocale.obj
 0001:0006c36d       ??0?$basic_string@DU?$char_traits@D@std@@V?$allocator@D@2@@std@@QAE@QBDI@Z 1006d36d f i libcpmt:wlocale.obj
 0001:0006c39d       ??0?$basic_string@GU?$char_traits@G@std@@V?$allocator@G@2@@std@@QAE@ABV01@@Z 1006d39d f i libcpmt:wlocale.obj
 0001:0006c3d9       ??0?$basic_string@GU?$char_traits@G@std@@V?$allocator@G@2@@std@@QAE@QBG@Z 1006d3d9 f i libcpmt:wlocale.obj
 0001:0006c418       ??0?$basic_string@GU?$char_traits@G@std@@V?$allocator@G@2@@std@@QAE@QBGI@Z 1006d418 f i libcpmt:wlocale.obj
 0001:0006c448       ??0?$basic_string@GU?$char_traits@G@std@@V?$allocator@G@2@@std@@QAE@XZ 1006d448 f i libcpmt:wlocale.obj
 0001:0006c468       ??0?$basic_string@_WU?$char_traits@_W@std@@V?$allocator@_W@2@@std@@QAE@$$QAV01@@Z 1006d468 f i libcpmt:wlocale.obj
 0001:0006c495       ??0?$basic_string@_WU?$char_traits@_W@std@@V?$allocator@_W@2@@std@@QAE@ABV01@@Z 1006d495 f i libcpmt:wlocale.obj
 0001:0006c4d1       ??0?$basic_string@_WU?$char_traits@_W@std@@V?$allocator@_W@2@@std@@QAE@I_W@Z 1006d4d1 f i libcpmt:wlocale.obj
 0001:0006c501       ??0?$basic_string@_WU?$char_traits@_W@std@@V?$allocator@_W@2@@std@@QAE@QB_W@Z 1006d501 f i libcpmt:wlocale.obj
 0001:0006c540       ??0?$basic_string@_WU?$char_traits@_W@std@@V?$allocator@_W@2@@std@@QAE@QB_WI@Z 1006d540 f i libcpmt:wlocale.obj
 0001:0006c570       ??0?$basic_string@_WU?$char_traits@_W@std@@V?$allocator@_W@2@@std@@QAE@XZ 1006d570 f i libcpmt:wlocale.obj
 0001:0006c590       ??0?$codecvt@GDU_Mbstatet@@@std@@QAE@ABV_Locinfo@1@I@Z 1006d590 f i libcpmt:wlocale.obj
 0001:0006c5c7       ??0?$codecvt@_WDU_Mbstatet@@@std@@QAE@ABV_Locinfo@1@I@Z 1006d5c7 f i libcpmt:wlocale.obj
 0001:0006c5fe       ??0?$collate@G@std@@QAE@ABV_Locinfo@1@I@Z 1006d5fe f i libcpmt:wlocale.obj
 0001:0006c626       ??0?$collate@_W@std@@QAE@ABV_Locinfo@1@I@Z 1006d626 f i libcpmt:wlocale.obj
 0001:0006c64e       ??0?$ctype@G@std@@QAE@ABV_Locinfo@1@I@Z 1006d64e f i libcpmt:wlocale.obj
 0001:0006c673       ??0?$ctype@_W@std@@QAE@ABV_Locinfo@1@I@Z 1006d673 f i libcpmt:wlocale.obj
 0001:0006c698       ??0?$messages@G@std@@QAE@ABV_Locinfo@1@I@Z 1006d698 f i libcpmt:wlocale.obj
 0001:0006c6b1       ??0?$messages@_W@std@@QAE@ABV_Locinfo@1@I@Z 1006d6b1 f i libcpmt:wlocale.obj
 0001:0006c6ca       ??0?$money_get@GV?$istreambuf_iterator@GU?$char_traits@G@std@@@std@@@std@@QAE@ABV_Locinfo@1@I@Z 1006d6ca f i libcpmt:wlocale.obj
 0001:0006c6e3       ??0?$money_get@_WV?$istreambuf_iterator@_WU?$char_traits@_W@std@@@std@@@std@@QAE@ABV_Locinfo@1@I@Z 1006d6e3 f i libcpmt:wlocale.obj
 0001:0006c6fc       ??0?$money_put@GV?$ostreambuf_iterator@GU?$char_traits@G@std@@@std@@@std@@QAE@ABV_Locinfo@1@I@Z 1006d6fc f i libcpmt:wlocale.obj
 0001:0006c715       ??0?$money_put@_WV?$ostreambuf_iterator@_WU?$char_traits@_W@std@@@std@@@std@@QAE@ABV_Locinfo@1@I@Z 1006d715 f i libcpmt:wlocale.obj
 0001:0006c72e       ??0?$moneypunct@G$00@std@@QAE@ABV_Locinfo@1@I_N@Z 1006d72e f i libcpmt:wlocale.obj
 0001:0006c755       ??0?$moneypunct@G$0A@@std@@QAE@ABV_Locinfo@1@I_N@Z 1006d755 f i libcpmt:wlocale.obj
 0001:0006c77c       ??0?$moneypunct@_W$00@std@@QAE@ABV_Locinfo@1@I_N@Z 1006d77c f i libcpmt:wlocale.obj
 0001:0006c7a3       ??0?$moneypunct@_W$0A@@std@@QAE@ABV_Locinfo@1@I_N@Z 1006d7a3 f i libcpmt:wlocale.obj
 0001:0006c7ca       ??0?$num_get@GV?$istreambuf_iterator@GU?$char_traits@G@std@@@std@@@std@@QAE@ABV_Locinfo@1@I@Z 1006d7ca f i libcpmt:wlocale.obj
 0001:0006c7e3       ??0?$num_get@_WV?$istreambuf_iterator@_WU?$char_traits@_W@std@@@std@@@std@@QAE@ABV_Locinfo@1@I@Z 1006d7e3 f i libcpmt:wlocale.obj
 0001:0006c7fc       ??0?$num_put@GV?$ostreambuf_iterator@GU?$char_traits@G@std@@@std@@@std@@QAE@ABV_Locinfo@1@I@Z 1006d7fc f i libcpmt:wlocale.obj
 0001:0006c815       ??0?$num_put@_WV?$ostreambuf_iterator@_WU?$char_traits@_W@std@@@std@@@std@@QAE@ABV_Locinfo@1@I@Z 1006d815 f i libcpmt:wlocale.obj
 0001:0006c82e       ??0?$numpunct@G@std@@QAE@ABV_Locinfo@1@I_N@Z 1006d82e f i libcpmt:wlocale.obj
 0001:0006c867       ??0?$numpunct@_W@std@@QAE@ABV_Locinfo@1@I_N@Z 1006d867 f i libcpmt:wlocale.obj
 0001:0006c8a0       ??0?$time_get@GV?$istreambuf_iterator@GU?$char_traits@G@std@@@std@@@std@@QAE@ABV_Locinfo@1@I@Z 1006d8a0 f i libcpmt:wlocale.obj
 0001:0006c8d6       ??0?$time_get@_WV?$istreambuf_iterator@_WU?$char_traits@_W@std@@@std@@@std@@QAE@ABV_Locinfo@1@I@Z 1006d8d6 f i libcpmt:wlocale.obj
 0001:0006c90c       ??0?$time_put@GV?$ostreambuf_iterator@GU?$char_traits@G@std@@@std@@@std@@QAE@ABV_Locinfo@1@I@Z 1006d90c f i libcpmt:wlocale.obj
 0001:0006c938       ??0?$time_put@_WV?$ostreambuf_iterator@_WU?$char_traits@_W@std@@@std@@@std@@QAE@ABV_Locinfo@1@I@Z 1006d938 f i libcpmt:wlocale.obj
 0001:0006c964       ??0_Bxty@?$_String_val@U?$_Simple_types@G@std@@@std@@QAE@XZ 1006d964 f i libcpmt:wlocale.obj
 0001:0006c971       ??0_Bxty@?$_String_val@U?$_Simple_types@_W@std@@@std@@QAE@XZ 1006d971 f i libcpmt:wlocale.obj
 0001:0006c97e       ??0_Timevec@std@@QAE@PAX@Z 1006d97e f i libcpmt:wlocale.obj
 0001:0006c98c       ??0error_code@std@@QAE@HABVerror_category@1@@Z 1006d98c f i libcpmt:wlocale.obj
 0001:0006c9a0       ??0error_condition@std@@QAE@HABVerror_category@1@@Z 1006d9a0 f i libcpmt:wlocale.obj
 0001:0006c9b4       ??0messages_base@std@@QAE@I@Z 1006d9b4 f i libcpmt:wlocale.obj
 0001:0006c9c9       ??0money_base@std@@QAE@I@Z 1006d9c9 f i libcpmt:wlocale.obj
 0001:0006c9de       ??0runtime_error@std@@QAE@ABV?$basic_string@DU?$char_traits@D@std@@V?$allocator@D@2@@1@@Z 1006d9de f i libcpmt:wlocale.obj
 0001:0006ca06       ??0system_error@std@@QAE@Verror_code@1@PBD@Z 1006da06 f i libcpmt:wlocale.obj
 0001:0006ca56       ??0time_base@std@@QAE@I@Z  1006da56 f i libcpmt:wlocale.obj
 0001:0006ca6b       ??1?$_Compressed_pair@V?$allocator@G@std@@V?$_String_val@U?$_Simple_types@G@std@@@2@$00@std@@QAE@XZ 1006da6b f i libcpmt:wlocale.obj
 0001:0006ca6e       ??1?$_Compressed_pair@V?$allocator@_W@std@@V?$_String_val@U?$_Simple_types@_W@std@@@2@$00@std@@QAE@XZ 1006da6e f i libcpmt:wlocale.obj
 0001:0006ca71       ??1?$_Mpunct@G@std@@MAE@XZ 1006da71 f i libcpmt:wlocale.obj
 0001:0006ca87       ??1?$_Mpunct@_W@std@@MAE@XZ 1006da87 f i libcpmt:wlocale.obj
 0001:0006ca9d       ??1?$_String_val@U?$_Simple_types@G@std@@@std@@QAE@XZ 1006da9d f i libcpmt:wlocale.obj
 0001:0006caa0       ??1?$_String_val@U?$_Simple_types@_W@std@@@std@@QAE@XZ 1006daa0 f i libcpmt:wlocale.obj
 0001:0006caa3       ??1?$_Tidy_guard@V?$_Mpunct@G@std@@@std@@QAE@XZ 1006daa3 f i libcpmt:wlocale.obj
 0001:0006caae       ??1?$_Tidy_guard@V?$_Mpunct@_W@std@@@std@@QAE@XZ 1006daae f i libcpmt:wlocale.obj
 0001:0006cab9       ??1?$_Tidy_guard@V?$numpunct@G@std@@@std@@QAE@XZ 1006dab9 f i libcpmt:wlocale.obj
 0001:0006cac4       ??1?$_Tidy_guard@V?$numpunct@_W@std@@@std@@QAE@XZ 1006dac4 f i libcpmt:wlocale.obj
 0001:0006cacf       ??1?$_Tidy_guard@V?$time_get@GV?$istreambuf_iterator@GU?$char_traits@G@std@@@std@@@std@@@std@@QAE@XZ 1006dacf f i libcpmt:wlocale.obj
 0001:0006cada       ??1?$_Tidy_guard@V?$time_get@_WV?$istreambuf_iterator@_WU?$char_traits@_W@std@@@std@@@std@@@std@@QAE@XZ 1006dada f i libcpmt:wlocale.obj
 0001:0006cae5       ??1?$basic_string@_WU?$char_traits@_W@std@@V?$allocator@_W@2@@std@@QAE@XZ 1006dae5 f i libcpmt:wlocale.obj
 0001:0006caea       ??1?$codecvt@GDU_Mbstatet@@@std@@MAE@XZ 1006daea f i libcpmt:wlocale.obj
 0001:0006caf1       ??1?$codecvt@_WDU_Mbstatet@@@std@@MAE@XZ 1006daf1 f i libcpmt:wlocale.obj
 0001:0006caf8       ??1?$collate@G@std@@MAE@XZ 1006daf8 f i libcpmt:wlocale.obj
 0001:0006cb12       ??1?$collate@_W@std@@MAE@XZ 1006db12 f i libcpmt:wlocale.obj
 0001:0006cb2c       ??1?$ctype@G@std@@MAE@XZ   1006db2c f i libcpmt:wlocale.obj
 0001:0006cb55       ??1?$ctype@_W@std@@MAE@XZ  1006db55 f i libcpmt:wlocale.obj
 0001:0006cb7e       ??1?$messages@G@std@@MAE@XZ 1006db7e f i libcpmt:wlocale.obj
 0001:0006cb85       ??1?$messages@_W@std@@MAE@XZ 1006db85 f i libcpmt:wlocale.obj
 0001:0006cb8c       ??1?$money_get@GV?$istreambuf_iterator@GU?$char_traits@G@std@@@std@@@std@@MAE@XZ 1006db8c f i libcpmt:wlocale.obj
 0001:0006cb93       ??1?$money_get@_WV?$istreambuf_iterator@_WU?$char_traits@_W@std@@@std@@@std@@MAE@XZ 1006db93 f i libcpmt:wlocale.obj
 0001:0006cb9a       ??1?$money_put@GV?$ostreambuf_iterator@GU?$char_traits@G@std@@@std@@@std@@MAE@XZ 1006db9a f i libcpmt:wlocale.obj
 0001:0006cba1       ??1?$money_put@_WV?$ostreambuf_iterator@_WU?$char_traits@_W@std@@@std@@@std@@MAE@XZ 1006dba1 f i libcpmt:wlocale.obj
 0001:0006cba8       ??1?$moneypunct@G$00@std@@MAE@XZ 1006dba8 f i libcpmt:wlocale.obj
 0001:0006cbbe       ??1?$moneypunct@G$0A@@std@@MAE@XZ 1006dbbe f i libcpmt:wlocale.obj
 0001:0006cbd4       ??1?$moneypunct@_W$00@std@@MAE@XZ 1006dbd4 f i libcpmt:wlocale.obj
 0001:0006cbea       ??1?$moneypunct@_W$0A@@std@@MAE@XZ 1006dbea f i libcpmt:wlocale.obj
 0001:0006cc00       ??1?$num_get@GV?$istreambuf_iterator@GU?$char_traits@G@std@@@std@@@std@@MAE@XZ 1006dc00 f i libcpmt:wlocale.obj
 0001:0006cc07       ??1?$num_get@_WV?$istreambuf_iterator@_WU?$char_traits@_W@std@@@std@@@std@@MAE@XZ 1006dc07 f i libcpmt:wlocale.obj
 0001:0006cc0e       ??1?$num_put@GV?$ostreambuf_iterator@GU?$char_traits@G@std@@@std@@@std@@MAE@XZ 1006dc0e f i libcpmt:wlocale.obj
 0001:0006cc15       ??1?$num_put@_WV?$ostreambuf_iterator@_WU?$char_traits@_W@std@@@std@@@std@@MAE@XZ 1006dc15 f i libcpmt:wlocale.obj
 0001:0006cc1c       ??1?$numpunct@G@std@@MAE@XZ 1006dc1c f i libcpmt:wlocale.obj
 0001:0006cc32       ??1?$numpunct@_W@std@@MAE@XZ 1006dc32 f i libcpmt:wlocale.obj
 0001:0006cc48       ??1?$time_get@GV?$istreambuf_iterator@GU?$char_traits@G@std@@@std@@@std@@MAE@XZ 1006dc48 f i libcpmt:wlocale.obj
 0001:0006cc5e       ??1?$time_get@_WV?$istreambuf_iterator@_WU?$char_traits@_W@std@@@std@@@std@@MAE@XZ 1006dc5e f i libcpmt:wlocale.obj
 0001:0006cc74       ??1?$time_put@GV?$ostreambuf_iterator@GU?$char_traits@G@std@@@std@@@std@@MAE@XZ 1006dc74 f i libcpmt:wlocale.obj
 0001:0006cc8e       ??1?$time_put@_WV?$ostreambuf_iterator@_WU?$char_traits@_W@std@@@std@@@std@@MAE@XZ 1006dc8e f i libcpmt:wlocale.obj
 0001:0006cca8       ??1_Bxty@?$_String_val@U?$_Simple_types@G@std@@@std@@QAE@XZ 1006dca8 f i libcpmt:wlocale.obj
 0001:0006ccab       ??1_Bxty@?$_String_val@U?$_Simple_types@_W@std@@@std@@QAE@XZ 1006dcab f i libcpmt:wlocale.obj
 0001:0006ccae       ??1_Iostream_error_category2@std@@UAE@XZ 1006dcae f i libcpmt:wlocale.obj
 0001:0006ccb1       ??1_Timevec@std@@QAE@XZ    1006dcb1 f i libcpmt:wlocale.obj
 0001:0006ccba       ??1messages_base@std@@UAE@XZ 1006dcba f i libcpmt:wlocale.obj
 0001:0006ccc1       ??1money_base@std@@UAE@XZ  1006dcc1 f i libcpmt:wlocale.obj
 0001:0006ccc8       ??1time_base@std@@UAE@XZ   1006dcc8 f i libcpmt:wlocale.obj
 0001:0006cccf       ??4?$_Yarn@_W@std@@QAEAAV01@PB_W@Z 1006dccf f i libcpmt:wlocale.obj
 0001:0006cd21       ??4?$basic_string@GU?$char_traits@G@std@@V?$allocator@G@2@@std@@QAEAAV01@$$QAV01@@Z 1006dd21 f i libcpmt:wlocale.obj
 0001:0006cd42       ??4?$basic_string@_WU?$char_traits@_W@std@@V?$allocator@_W@2@@std@@QAEAAV01@$$QAV01@@Z 1006dd42 f i libcpmt:wlocale.obj
 0001:0006cd63       ??4?$ostreambuf_iterator@GU?$char_traits@G@std@@@std@@QAEAAV01@G@Z 1006dd63 f i libcpmt:wlocale.obj
 0001:0006cd8c       ??4?$ostreambuf_iterator@_WU?$char_traits@_W@std@@@std@@QAEAAV01@_W@Z 1006dd8c f i libcpmt:wlocale.obj
 0001:0006cdb5       ??4_Timevec@std@@QAEAAV01@ABV01@@Z 1006ddb5 f i libcpmt:wlocale.obj
 0001:0006cddd       ??8?$_String_const_iterator@V?$_String_val@U?$_Simple_types@G@std@@@std@@@std@@QBE_NABV01@@Z 1006dddd f i libcpmt:wlocale.obj
 0001:0006cdee       ??8?$_String_const_iterator@V?$_String_val@U?$_Simple_types@_W@std@@@std@@@std@@QBE_NABV01@@Z 1006ddee f i libcpmt:wlocale.obj
 0001:0006cdff       ??8error_category@std@@QBE_NABV01@@Z 1006ddff f i libcpmt:wlocale.obj
 0001:0006ce12       ??8std@@YA_NABVerror_condition@0@0@Z 1006de12 f i libcpmt:wlocale.obj
 0001:0006ce39       ??A?$basic_string@GU?$char_traits@G@std@@V?$allocator@G@2@@std@@QAEAAGI@Z 1006de39 f i libcpmt:wlocale.obj
 0001:0006ce4e       ??A?$basic_string@GU?$char_traits@G@std@@V?$allocator@G@2@@std@@QBEABGI@Z 1006de4e f i libcpmt:wlocale.obj
 0001:0006ce63       ??A?$basic_string@_WU?$char_traits@_W@std@@V?$allocator@_W@2@@std@@QAEAA_WI@Z 1006de63 f i libcpmt:wlocale.obj
 0001:0006ce78       ??A?$basic_string@_WU?$char_traits@_W@std@@V?$allocator@_W@2@@std@@QBEAB_WI@Z 1006de78 f i libcpmt:wlocale.obj
 0001:0006ce8d       ??D?$_String_const_iterator@V?$_String_val@U?$_Simple_types@G@std@@@std@@@std@@QBEABGXZ 1006de8d f i libcpmt:wlocale.obj
 0001:0006ce90       ??D?$_String_const_iterator@V?$_String_val@U?$_Simple_types@_W@std@@@std@@@std@@QBEAB_WXZ 1006de90 f i libcpmt:wlocale.obj
 0001:0006ce93       ??D?$_String_iterator@V?$_String_val@U?$_Simple_types@G@std@@@std@@@std@@QBEAAGXZ 1006de93 f i libcpmt:wlocale.obj
 0001:0006ce96       ??D?$_String_iterator@V?$_String_val@U?$_Simple_types@_W@std@@@std@@@std@@QBEAA_WXZ 1006de96 f i libcpmt:wlocale.obj
 0001:0006ce99       ??D?$istreambuf_iterator@GU?$char_traits@G@std@@@std@@QBEGXZ 1006de99 f i libcpmt:wlocale.obj
 0001:0006cead       ??D?$istreambuf_iterator@_WU?$char_traits@_W@std@@@std@@QBE_WXZ 1006dead f i libcpmt:wlocale.obj
 0001:0006cec1       ??D?$ostreambuf_iterator@GU?$char_traits@G@std@@@std@@QAEAAV01@XZ 1006dec1 f i libcpmt:wlocale.obj
 0001:0006cec4       ??D?$ostreambuf_iterator@_WU?$char_traits@_W@std@@@std@@QAEAAV01@XZ 1006dec4 f i libcpmt:wlocale.obj
 0001:0006cec7       ??E?$_String_const_iterator@V?$_String_val@U?$_Simple_types@G@std@@@std@@@std@@QAEAAV01@XZ 1006dec7 f i libcpmt:wlocale.obj
 0001:0006cecd       ??E?$_String_const_iterator@V?$_String_val@U?$_Simple_types@_W@std@@@std@@@std@@QAEAAV01@XZ 1006decd f i libcpmt:wlocale.obj
 0001:0006ced3       ??E?$_String_iterator@V?$_String_val@U?$_Simple_types@G@std@@@std@@@std@@QAEAAV01@XZ 1006ded3 f i libcpmt:wlocale.obj
 0001:0006ced9       ??E?$_String_iterator@V?$_String_val@U?$_Simple_types@_W@std@@@std@@@std@@QAEAAV01@XZ 1006ded9 f i libcpmt:wlocale.obj
 0001:0006cedf       ??E?$istreambuf_iterator@GU?$char_traits@G@std@@@std@@QAEAAV01@XZ 1006dedf f i libcpmt:wlocale.obj
 0001:0006ceeb       ??E?$istreambuf_iterator@_WU?$char_traits@_W@std@@@std@@QAEAAV01@XZ 1006deeb f i libcpmt:wlocale.obj
 0001:0006cef7       ??E?$ostreambuf_iterator@GU?$char_traits@G@std@@@std@@QAEAAV01@H@Z 1006def7 f i libcpmt:wlocale.obj
 0001:0006cefc       ??E?$ostreambuf_iterator@GU?$char_traits@G@std@@@std@@QAEAAV01@XZ 1006defc f i libcpmt:wlocale.obj
 0001:0006ceff       ??E?$ostreambuf_iterator@_WU?$char_traits@_W@std@@@std@@QAEAAV01@H@Z 1006deff f i libcpmt:wlocale.obj
 0001:0006cf04       ??E?$ostreambuf_iterator@_WU?$char_traits@_W@std@@@std@@QAEAAV01@XZ 1006df04 f i libcpmt:wlocale.obj
 0001:0006cf07       ??G?$_String_iterator@V?$_String_val@U?$_Simple_types@G@std@@@std@@@std@@QBE?AV01@H@Z 1006df07 f i libcpmt:wlocale.obj
 0001:0006cf1c       ??G?$_String_iterator@V?$_String_val@U?$_Simple_types@_W@std@@@std@@@std@@QBE?AV01@H@Z 1006df1c f i libcpmt:wlocale.obj
 0001:0006cf31       ??H?$_String_iterator@V?$_String_val@U?$_Simple_types@G@std@@@std@@@std@@QBE?AV01@H@Z 1006df31 f i libcpmt:wlocale.obj
 0001:0006cf45       ??H?$_String_iterator@V?$_String_val@U?$_Simple_types@_W@std@@@std@@@std@@QBE?AV01@H@Z 1006df45 f i libcpmt:wlocale.obj
 0001:0006cf59       ??R<lambda_1>@?1??append@?$basic_string@GU?$char_traits@G@std@@V?$allocator@G@2@@std@@QAEAAV23@IG@Z@QBE@QAGQBGIIG@Z 1006df59 f i libcpmt:wlocale.obj
 0001:0006cf95       ??R<lambda_1>@?1??append@?$basic_string@GU?$char_traits@G@std@@V?$allocator@G@2@@std@@QAEAAV23@QBGI@Z@QBE@QAG0I0I@Z 1006df95 f i libcpmt:wlocale.obj
 0001:0006cfd4       ??R<lambda_1>@?1??append@?$basic_string@_WU?$char_traits@_W@std@@V?$allocator@_W@2@@std@@QAEAAV23@I_W@Z@QBE@QA_WQB_WII0@Z 1006dfd4 f i libcpmt:wlocale.obj
 0001:0006d010       ??R<lambda_1>@?1??append@?$basic_string@_WU?$char_traits@_W@std@@V?$allocator@_W@2@@std@@QAEAAV23@QB_WI@Z@QBE@QA_W0I0I@Z 1006e010 f i libcpmt:wlocale.obj
 0001:0006d04f       ??R<lambda_1>@?1??insert@?$basic_string@GU?$char_traits@G@std@@V?$allocator@G@2@@std@@QAEAAV23@IIG@Z@QBE@QAGQBGIIIG@Z 1006e04f f i libcpmt:wlocale.obj
 0001:0006d0a2       ??R<lambda_1>@?1??insert@?$basic_string@_WU?$char_traits@_W@std@@V?$allocator@_W@2@@std@@QAEAAV23@II_W@Z@QBE@QA_WQB_WIII0@Z 1006e0a2 f i libcpmt:wlocale.obj
 0001:0006d0f5       ??R<lambda_1>@?1??push_back@?$basic_string@GU?$char_traits@G@std@@V?$allocator@G@2@@std@@QAEXG@Z@QBE@QAGQBGIG@Z 1006e0f5 f i libcpmt:wlocale.obj
 0001:0006d125       ??R<lambda_1>@?1??push_back@?$basic_string@_WU?$char_traits@_W@std@@V?$allocator@_W@2@@std@@QAEX_W@Z@QBE@QA_WQB_WI0@Z 1006e125 f i libcpmt:wlocale.obj
 0001:0006d155       ??Y?$_String_const_iterator@V?$_String_val@U?$_Simple_types@G@std@@@std@@@std@@QAEAAV01@H@Z 1006e155 f i libcpmt:wlocale.obj
 0001:0006d165       ??Y?$_String_const_iterator@V?$_String_val@U?$_Simple_types@_W@std@@@std@@@std@@QAEAAV01@H@Z 1006e165 f i libcpmt:wlocale.obj
 0001:0006d175       ??Y?$_String_iterator@V?$_String_val@U?$_Simple_types@G@std@@@std@@@std@@QAEAAV01@H@Z 1006e175 f i libcpmt:wlocale.obj
 0001:0006d185       ??Y?$_String_iterator@V?$_String_val@U?$_Simple_types@_W@std@@@std@@@std@@QAEAAV01@H@Z 1006e185 f i libcpmt:wlocale.obj
 0001:0006d195       ??Y?$basic_string@DU?$char_traits@D@std@@V?$allocator@D@2@@std@@QAEAAV01@D@Z 1006e195 f i libcpmt:wlocale.obj
 0001:0006d1aa       ??Y?$basic_string@GU?$char_traits@G@std@@V?$allocator@G@2@@std@@QAEAAV01@ABV01@@Z 1006e1aa f i libcpmt:wlocale.obj
 0001:0006d1b3       ??Y?$basic_string@_WU?$char_traits@_W@std@@V?$allocator@_W@2@@std@@QAEAAV01@ABV01@@Z 1006e1b3 f i libcpmt:wlocale.obj
 0001:0006d1bc       ??Z?$_String_const_iterator@V?$_String_val@U?$_Simple_types@G@std@@@std@@@std@@QAEAAV01@H@Z 1006e1bc f i libcpmt:wlocale.obj
 0001:0006d1ce       ??Z?$_String_const_iterator@V?$_String_val@U?$_Simple_types@_W@std@@@std@@@std@@QAEAAV01@H@Z 1006e1ce f i libcpmt:wlocale.obj
 0001:0006d1e0       ??Z?$_String_iterator@V?$_String_val@U?$_Simple_types@G@std@@@std@@@std@@QAEAAV01@H@Z 1006e1e0 f i libcpmt:wlocale.obj
 0001:0006d1f2       ??Z?$_String_iterator@V?$_String_val@U?$_Simple_types@_W@std@@@std@@@std@@QAEAAV01@H@Z 1006e1f2 f i libcpmt:wlocale.obj
 0001:0006d204       ??_E?$_Mpunct@G@std@@MAEPAXI@Z 1006e204 f i libcpmt:wlocale.obj
 0001:0006d204       ??_G?$_Mpunct@G@std@@MAEPAXI@Z 1006e204 f i libcpmt:wlocale.obj
 0001:0006d232       ??_E?$_Mpunct@_W@std@@MAEPAXI@Z 1006e232 f i libcpmt:wlocale.obj
 0001:0006d232       ??_G?$_Mpunct@_W@std@@MAEPAXI@Z 1006e232 f i libcpmt:wlocale.obj
 0001:0006d260       ??_E?$codecvt@GDU_Mbstatet@@@std@@MAEPAXI@Z 1006e260 f i libcpmt:wlocale.obj
 0001:0006d260       ??_G?$codecvt@GDU_Mbstatet@@@std@@MAEPAXI@Z 1006e260 f i libcpmt:wlocale.obj
 0001:0006d283       ??_E?$codecvt@_WDU_Mbstatet@@@std@@MAEPAXI@Z 1006e283 f i libcpmt:wlocale.obj
 0001:0006d283       ??_G?$codecvt@_WDU_Mbstatet@@@std@@MAEPAXI@Z 1006e283 f i libcpmt:wlocale.obj
 0001:0006d2a6       ??_E?$collate@G@std@@MAEPAXI@Z 1006e2a6 f i libcpmt:wlocale.obj
 0001:0006d2a6       ??_G?$collate@G@std@@MAEPAXI@Z 1006e2a6 f i libcpmt:wlocale.obj
 0001:0006d2c8       ??_E?$collate@_W@std@@MAEPAXI@Z 1006e2c8 f i libcpmt:wlocale.obj
 0001:0006d2c8       ??_G?$collate@_W@std@@MAEPAXI@Z 1006e2c8 f i libcpmt:wlocale.obj
 0001:0006d2ea       ??_E?$ctype@G@std@@MAEPAXI@Z 1006e2ea f i libcpmt:wlocale.obj
 0001:0006d2ea       ??_G?$ctype@G@std@@MAEPAXI@Z 1006e2ea f i libcpmt:wlocale.obj
 0001:0006d30c       ??_E?$ctype@_W@std@@MAEPAXI@Z 1006e30c f i libcpmt:wlocale.obj
 0001:0006d30c       ??_G?$ctype@_W@std@@MAEPAXI@Z 1006e30c f i libcpmt:wlocale.obj
 0001:0006d32e       ??_E?$messages@G@std@@MAEPAXI@Z 1006e32e f i libcpmt:wlocale.obj
 0001:0006d32e       ??_G?$messages@G@std@@MAEPAXI@Z 1006e32e f i libcpmt:wlocale.obj
 0001:0006d351       ??_E?$messages@_W@std@@MAEPAXI@Z 1006e351 f i libcpmt:wlocale.obj
 0001:0006d351       ??_G?$messages@_W@std@@MAEPAXI@Z 1006e351 f i libcpmt:wlocale.obj
 0001:0006d374       ??_E?$money_get@GV?$istreambuf_iterator@GU?$char_traits@G@std@@@std@@@std@@MAEPAXI@Z 1006e374 f i libcpmt:wlocale.obj
 0001:0006d374       ??_G?$money_get@GV?$istreambuf_iterator@GU?$char_traits@G@std@@@std@@@std@@MAEPAXI@Z 1006e374 f i libcpmt:wlocale.obj
 0001:0006d397       ??_E?$money_get@_WV?$istreambuf_iterator@_WU?$char_traits@_W@std@@@std@@@std@@MAEPAXI@Z 1006e397 f i libcpmt:wlocale.obj
 0001:0006d397       ??_G?$money_get@_WV?$istreambuf_iterator@_WU?$char_traits@_W@std@@@std@@@std@@MAEPAXI@Z 1006e397 f i libcpmt:wlocale.obj
 0001:0006d3ba       ??_E?$money_put@GV?$ostreambuf_iterator@GU?$char_traits@G@std@@@std@@@std@@MAEPAXI@Z 1006e3ba f i libcpmt:wlocale.obj
 0001:0006d3ba       ??_G?$money_put@GV?$ostreambuf_iterator@GU?$char_traits@G@std@@@std@@@std@@MAEPAXI@Z 1006e3ba f i libcpmt:wlocale.obj
 0001:0006d3dd       ??_E?$money_put@_WV?$ostreambuf_iterator@_WU?$char_traits@_W@std@@@std@@@std@@MAEPAXI@Z 1006e3dd f i libcpmt:wlocale.obj
 0001:0006d3dd       ??_G?$money_put@_WV?$ostreambuf_iterator@_WU?$char_traits@_W@std@@@std@@@std@@MAEPAXI@Z 1006e3dd f i libcpmt:wlocale.obj
 0001:0006d400       ??_E?$moneypunct@G$00@std@@MAEPAXI@Z 1006e400 f i libcpmt:wlocale.obj
 0001:0006d400       ??_G?$moneypunct@G$00@std@@MAEPAXI@Z 1006e400 f i libcpmt:wlocale.obj
 0001:0006d42e       ??_E?$moneypunct@G$0A@@std@@MAEPAXI@Z 1006e42e f i libcpmt:wlocale.obj
 0001:0006d42e       ??_G?$moneypunct@G$0A@@std@@MAEPAXI@Z 1006e42e f i libcpmt:wlocale.obj
 0001:0006d45c       ??_E?$moneypunct@_W$00@std@@MAEPAXI@Z 1006e45c f i libcpmt:wlocale.obj
 0001:0006d45c       ??_G?$moneypunct@_W$00@std@@MAEPAXI@Z 1006e45c f i libcpmt:wlocale.obj
 0001:0006d48a       ??_E?$moneypunct@_W$0A@@std@@MAEPAXI@Z 1006e48a f i libcpmt:wlocale.obj
 0001:0006d48a       ??_G?$moneypunct@_W$0A@@std@@MAEPAXI@Z 1006e48a f i libcpmt:wlocale.obj
 0001:0006d4b8       ??_E?$num_get@GV?$istreambuf_iterator@GU?$char_traits@G@std@@@std@@@std@@MAEPAXI@Z 1006e4b8 f i libcpmt:wlocale.obj
 0001:0006d4b8       ??_G?$num_get@GV?$istreambuf_iterator@GU?$char_traits@G@std@@@std@@@std@@MAEPAXI@Z 1006e4b8 f i libcpmt:wlocale.obj
 0001:0006d4db       ??_E?$num_get@_WV?$istreambuf_iterator@_WU?$char_traits@_W@std@@@std@@@std@@MAEPAXI@Z 1006e4db f i libcpmt:wlocale.obj
 0001:0006d4db       ??_G?$num_get@_WV?$istreambuf_iterator@_WU?$char_traits@_W@std@@@std@@@std@@MAEPAXI@Z 1006e4db f i libcpmt:wlocale.obj
 0001:0006d4fe       ??_E?$num_put@GV?$ostreambuf_iterator@GU?$char_traits@G@std@@@std@@@std@@MAEPAXI@Z 1006e4fe f i libcpmt:wlocale.obj
 0001:0006d4fe       ??_G?$num_put@GV?$ostreambuf_iterator@GU?$char_traits@G@std@@@std@@@std@@MAEPAXI@Z 1006e4fe f i libcpmt:wlocale.obj
 0001:0006d521       ??_E?$num_put@_WV?$ostreambuf_iterator@_WU?$char_traits@_W@std@@@std@@@std@@MAEPAXI@Z 1006e521 f i libcpmt:wlocale.obj
 0001:0006d521       ??_G?$num_put@_WV?$ostreambuf_iterator@_WU?$char_traits@_W@std@@@std@@@std@@MAEPAXI@Z 1006e521 f i libcpmt:wlocale.obj
 0001:0006d544       ??_E?$numpunct@G@std@@MAEPAXI@Z 1006e544 f i libcpmt:wlocale.obj
 0001:0006d544       ??_G?$numpunct@G@std@@MAEPAXI@Z 1006e544 f i libcpmt:wlocale.obj
 0001:0006d572       ??_E?$numpunct@_W@std@@MAEPAXI@Z 1006e572 f i libcpmt:wlocale.obj
 0001:0006d572       ??_G?$numpunct@_W@std@@MAEPAXI@Z 1006e572 f i libcpmt:wlocale.obj
 0001:0006d5a0       ??_E?$time_get@GV?$istreambuf_iterator@GU?$char_traits@G@std@@@std@@@std@@MAEPAXI@Z 1006e5a0 f i libcpmt:wlocale.obj
 0001:0006d5a0       ??_G?$time_get@GV?$istreambuf_iterator@GU?$char_traits@G@std@@@std@@@std@@MAEPAXI@Z 1006e5a0 f i libcpmt:wlocale.obj
 0001:0006d5ce       ??_E?$time_get@_WV?$istreambuf_iterator@_WU?$char_traits@_W@std@@@std@@@std@@MAEPAXI@Z 1006e5ce f i libcpmt:wlocale.obj
 0001:0006d5ce       ??_G?$time_get@_WV?$istreambuf_iterator@_WU?$char_traits@_W@std@@@std@@@std@@MAEPAXI@Z 1006e5ce f i libcpmt:wlocale.obj
 0001:0006d5fc       ??_E?$time_put@GV?$ostreambuf_iterator@GU?$char_traits@G@std@@@std@@@std@@MAEPAXI@Z 1006e5fc f i libcpmt:wlocale.obj
 0001:0006d5fc       ??_G?$time_put@GV?$ostreambuf_iterator@GU?$char_traits@G@std@@@std@@@std@@MAEPAXI@Z 1006e5fc f i libcpmt:wlocale.obj
 0001:0006d61e       ??_E?$time_put@_WV?$ostreambuf_iterator@_WU?$char_traits@_W@std@@@std@@@std@@MAEPAXI@Z 1006e61e f i libcpmt:wlocale.obj
 0001:0006d61e       ??_G?$time_put@_WV?$ostreambuf_iterator@_WU?$char_traits@_W@std@@@std@@@std@@MAEPAXI@Z 1006e61e f i libcpmt:wlocale.obj
 0001:0006d640       ??_Emessages_base@std@@UAEPAXI@Z 1006e640 f i libcpmt:wlocale.obj
 0001:0006d640       ??_Gmessages_base@std@@UAEPAXI@Z 1006e640 f i libcpmt:wlocale.obj
 0001:0006d663       ??_Emoney_base@std@@UAEPAXI@Z 1006e663 f i libcpmt:wlocale.obj
 0001:0006d663       ??_Gmoney_base@std@@UAEPAXI@Z 1006e663 f i libcpmt:wlocale.obj
 0001:0006d686       ??_Etime_base@std@@UAEPAXI@Z 1006e686 f i libcpmt:wlocale.obj
 0001:0006d686       ??_Gtime_base@std@@UAEPAXI@Z 1006e686 f i libcpmt:wlocale.obj
 0001:0006d6a9       ?_Activate_SSO_buffer@?$_String_val@U?$_Simple_types@G@std@@@std@@QAEXXZ 1006e6a9 f i libcpmt:wlocale.obj
 0001:0006d6ac       ?_Activate_SSO_buffer@?$_String_val@U?$_Simple_types@_W@std@@@std@@QAEXXZ 1006e6ac f i libcpmt:wlocale.obj
 0001:0006d6af       ?_Adopt@_Iterator_base0@std@@QAEXPBX@Z 1006e6af f i libcpmt:wlocale.obj
 0001:0006d6b2       ?_Apply_annotation@?$basic_string@GU?$char_traits@G@std@@V?$allocator@G@2@@std@@CAXQBGIII@Z 1006e6b2 f i libcpmt:wlocale.obj
 0001:0006d701       ?_Apply_annotation@?$basic_string@_WU?$char_traits@_W@std@@V?$allocator@_W@2@@std@@CAXQB_WIII@Z 1006e701 f i libcpmt:wlocale.obj
 0001:0006d750       ?_C_str@?$_Yarn@_W@std@@QBEPB_WXZ 1006e750 f i libcpmt:wlocale.obj
 0001:0006d75a       ?_Calculate_growth@?$basic_string@GU?$char_traits@G@std@@V?$allocator@G@2@@std@@ABEII@Z 1006e75a f i libcpmt:wlocale.obj
 0001:0006d774       ?_Calculate_growth@?$basic_string@GU?$char_traits@G@std@@V?$allocator@G@2@@std@@CAIIII@Z 1006e774 f i libcpmt:wlocale.obj
 0001:0006d7a5       ?_Calculate_growth@?$basic_string@_WU?$char_traits@_W@std@@V?$allocator@_W@2@@std@@ABEII@Z 1006e7a5 f i libcpmt:wlocale.obj
 0001:0006d7bf       ?_Calculate_growth@?$basic_string@_WU?$char_traits@_W@std@@V?$allocator@_W@2@@std@@CAIIII@Z 1006e7bf f i libcpmt:wlocale.obj
 0001:0006d7f0       ?_Check_offset@?$_String_val@U?$_Simple_types@G@std@@@std@@QBEXI@Z 1006e7f0 f i libcpmt:wlocale.obj
 0001:0006d805       ?_Check_offset@?$_String_val@U?$_Simple_types@_W@std@@@std@@QBEXI@Z 1006e805 f i libcpmt:wlocale.obj
 0001:0006d81a       ?_Compat@?$_String_const_iterator@V?$_String_val@U?$_Simple_types@G@std@@@std@@@std@@QBEXABV12@@Z 1006e81a f i libcpmt:wlocale.obj
 0001:0006d81d       ?_Compat@?$_String_const_iterator@V?$_String_val@U?$_Simple_types@_W@std@@@std@@@std@@QBEXABV12@@Z 1006e81d f i libcpmt:wlocale.obj
 0001:0006d820       ?_Construct_empty@?$basic_string@GU?$char_traits@G@std@@V?$allocator@G@2@@std@@AAEXXZ 1006e820 f i libcpmt:wlocale.obj
 0001:0006d834       ?_Construct_empty@?$basic_string@_WU?$char_traits@_W@std@@V?$allocator@_W@2@@std@@AAEXXZ 1006e834 f i libcpmt:wlocale.obj
 0001:0006d848       ?_Create_annotation@?$basic_string@GU?$char_traits@G@std@@V?$allocator@G@2@@std@@ABEXXZ 1006e848 f i libcpmt:wlocale.obj
 0001:0006d862       ?_Create_annotation@?$basic_string@_WU?$char_traits@_W@std@@V?$allocator@_W@2@@std@@ABEXXZ 1006e862 f i libcpmt:wlocale.obj
 0001:0006d87c       ?_Deallocate_for_capacity@?$basic_string@_WU?$char_traits@_W@std@@V?$allocator@_W@2@@std@@CAXAAV?$allocator@_W@2@QA_WI@Z 1006e87c f i libcpmt:wlocale.obj
 0001:0006d896       ?_Donarrow@?$ctype@G@std@@IBEDGD@Z 1006e896 f i libcpmt:wlocale.obj
 0001:0006d8e3       ?_Donarrow@?$ctype@_W@std@@IBED_WD@Z 1006e8e3 f i libcpmt:wlocale.obj
 0001:0006d930       ?_Dowiden@?$ctype@G@std@@IBEGD@Z 1006e930 f i libcpmt:wlocale.obj
 0001:0006d96b       ?_Dowiden@?$ctype@_W@std@@IBE_WD@Z 1006e96b f i libcpmt:wlocale.obj
 0001:0006d9a8       ?_Empty@?$_Yarn@_W@std@@QBE_NXZ 1006e9a8 f i libcpmt:wlocale.obj
 0001:0006d9af       ?_Eos@?$basic_string@GU?$char_traits@G@std@@V?$allocator@G@2@@std@@AAEXI@Z 1006e9af f i libcpmt:wlocale.obj
 0001:0006d9d9       ?_Eos@?$basic_string@_WU?$char_traits@_W@std@@V?$allocator@_W@2@@std@@AAEXI@Z 1006e9d9 f i libcpmt:wlocale.obj
 0001:0006da03       ?_Ffmt@?$num_put@GV?$ostreambuf_iterator@GU?$char_traits@G@std@@@std@@@std@@ABAPADPADDH@Z 1006ea03 f i libcpmt:wlocale.obj
 0001:0006da9c       ?_Ffmt@?$num_put@_WV?$ostreambuf_iterator@_WU?$char_traits@_W@std@@@std@@@std@@ABAPADPADDH@Z 1006ea9c f i libcpmt:wlocale.obj
 0001:0006db35       ?_Fnv1a_append_bytes@std@@YAIIQBEI@Z 1006eb35 f i libcpmt:wlocale.obj
 0001:0006db5d       ?_Get_first@?$_Compressed_pair@V?$allocator@G@std@@V?$_String_val@U?$_Simple_types@G@std@@@2@$00@std@@QAEAAV?$allocator@G@2@XZ 1006eb5d f i libcpmt:wlocale.obj
 0001:0006db60       ?_Get_first@?$_Compressed_pair@V?$allocator@G@std@@V?$_String_val@U?$_Simple_types@G@std@@@2@$00@std@@QBEABV?$allocator@G@2@XZ 1006eb60 f i libcpmt:wlocale.obj
 0001:0006db63       ?_Get_first@?$_Compressed_pair@V?$allocator@_W@std@@V?$_String_val@U?$_Simple_types@_W@std@@@2@$00@std@@QAEAAV?$allocator@_W@2@XZ 1006eb63 f i libcpmt:wlocale.obj
 0001:0006db66       ?_Get_first@?$_Compressed_pair@V?$allocator@_W@std@@V?$_String_val@U?$_Simple_types@_W@std@@@2@$00@std@@QBEABV?$allocator@_W@2@XZ 1006eb66 f i libcpmt:wlocale.obj
 0001:0006db69       ?_Getal@?$basic_string@GU?$char_traits@G@std@@V?$allocator@G@2@@std@@AAEAAV?$allocator@G@2@XZ 1006eb69 f i libcpmt:wlocale.obj
 0001:0006db6c       ?_Getal@?$basic_string@GU?$char_traits@G@std@@V?$allocator@G@2@@std@@ABEABV?$allocator@G@2@XZ 1006eb6c f i libcpmt:wlocale.obj
 0001:0006db6f       ?_Getal@?$basic_string@_WU?$char_traits@_W@std@@V?$allocator@_W@2@@std@@AAEAAV?$allocator@_W@2@XZ 1006eb6f f i libcpmt:wlocale.obj
 0001:0006db72       ?_Getal@?$basic_string@_WU?$char_traits@_W@std@@V?$allocator@_W@2@@std@@ABEABV?$allocator@_W@2@XZ 1006eb72 f i libcpmt:wlocale.obj
 0001:0006db75       ?_Getcat@?$codecvt@GDU_Mbstatet@@@std@@SAIPAPBVfacet@locale@2@PBV42@@Z 1006eb75 f i libcpmt:wlocale.obj
 0001:0006dbdb       ?_Getcat@?$codecvt@_WDU_Mbstatet@@@std@@SAIPAPBVfacet@locale@2@PBV42@@Z 1006ebdb f i libcpmt:wlocale.obj
 0001:0006dc41       ?_Getcat@?$collate@G@std@@SAIPAPBVfacet@locale@2@PBV42@@Z 1006ec41 f i libcpmt:wlocale.obj
 0001:0006dce6       ?_Getcat@?$collate@_W@std@@SAIPAPBVfacet@locale@2@PBV42@@Z 1006ece6 f i libcpmt:wlocale.obj
 0001:0006dd8b       ?_Getcat@?$ctype@G@std@@SAIPAPBVfacet@locale@2@PBV42@@Z 1006ed8b f i libcpmt:wlocale.obj
 0001:0006ddfe       ?_Getcat@?$ctype@_W@std@@SAIPAPBVfacet@locale@2@PBV42@@Z 1006edfe f i libcpmt:wlocale.obj
 0001:0006de71       ?_Getcat@?$messages@G@std@@SAIPAPBVfacet@locale@2@PBV42@@Z 1006ee71 f i libcpmt:wlocale.obj
 0001:0006dedc       ?_Getcat@?$messages@_W@std@@SAIPAPBVfacet@locale@2@PBV42@@Z 1006eedc f i libcpmt:wlocale.obj
 0001:0006df47       ?_Getcat@?$money_get@GV?$istreambuf_iterator@GU?$char_traits@G@std@@@std@@@std@@SAIPAPBVfacet@locale@2@PBV42@@Z 1006ef47 f i libcpmt:wlocale.obj
 0001:0006dfb2       ?_Getcat@?$money_get@_WV?$istreambuf_iterator@_WU?$char_traits@_W@std@@@std@@@std@@SAIPAPBVfacet@locale@2@PBV42@@Z 1006efb2 f i libcpmt:wlocale.obj
 0001:0006e01d       ?_Getcat@?$money_put@GV?$ostreambuf_iterator@GU?$char_traits@G@std@@@std@@@std@@SAIPAPBVfacet@locale@2@PBV42@@Z 1006f01d f i libcpmt:wlocale.obj
 0001:0006e088       ?_Getcat@?$money_put@_WV?$ostreambuf_iterator@_WU?$char_traits@_W@std@@@std@@@std@@SAIPAPBVfacet@locale@2@PBV42@@Z 1006f088 f i libcpmt:wlocale.obj
 0001:0006e0f3       ?_Getcat@?$moneypunct@G$00@std@@SAIPAPBVfacet@locale@2@PBV42@@Z 1006f0f3 f i libcpmt:wlocale.obj
 0001:0006e169       ?_Getcat@?$moneypunct@G$0A@@std@@SAIPAPBVfacet@locale@2@PBV42@@Z 1006f169 f i libcpmt:wlocale.obj
 0001:0006e1e0       ?_Getcat@?$moneypunct@_W$00@std@@SAIPAPBVfacet@locale@2@PBV42@@Z 1006f1e0 f i libcpmt:wlocale.obj
 0001:0006e256       ?_Getcat@?$moneypunct@_W$0A@@std@@SAIPAPBVfacet@locale@2@PBV42@@Z 1006f256 f i libcpmt:wlocale.obj
 0001:0006e2cd       ?_Getcat@?$num_get@GV?$istreambuf_iterator@GU?$char_traits@G@std@@@std@@@std@@SAIPAPBVfacet@locale@2@PBV42@@Z 1006f2cd f i libcpmt:wlocale.obj
 0001:0006e338       ?_Getcat@?$num_get@_WV?$istreambuf_iterator@_WU?$char_traits@_W@std@@@std@@@std@@SAIPAPBVfacet@locale@2@PBV42@@Z 1006f338 f i libcpmt:wlocale.obj
 0001:0006e3a3       ?_Getcat@?$num_put@GV?$ostreambuf_iterator@GU?$char_traits@G@std@@@std@@@std@@SAIPAPBVfacet@locale@2@PBV42@@Z 1006f3a3 f i libcpmt:wlocale.obj
 0001:0006e40e       ?_Getcat@?$num_put@_WV?$ostreambuf_iterator@_WU?$char_traits@_W@std@@@std@@@std@@SAIPAPBVfacet@locale@2@PBV42@@Z 1006f40e f i libcpmt:wlocale.obj
 0001:0006e479       ?_Getcat@?$numpunct@G@std@@SAIPAPBVfacet@locale@2@PBV42@@Z 1006f479 f i libcpmt:wlocale.obj
 0001:0006e4e6       ?_Getcat@?$numpunct@_W@std@@SAIPAPBVfacet@locale@2@PBV42@@Z 1006f4e6 f i libcpmt:wlocale.obj
 0001:0006e553       ?_Getcat@?$time_get@GV?$istreambuf_iterator@GU?$char_traits@G@std@@@std@@@std@@SAIPAPBVfacet@locale@2@PBV42@@Z 1006f553 f i libcpmt:wlocale.obj
 0001:0006e5bf       ?_Getcat@?$time_get@_WV?$istreambuf_iterator@_WU?$char_traits@_W@std@@@std@@@std@@SAIPAPBVfacet@locale@2@PBV42@@Z 1006f5bf f i libcpmt:wlocale.obj
 0001:0006e62b       ?_Getcat@?$time_put@GV?$ostreambuf_iterator@GU?$char_traits@G@std@@@std@@@std@@SAIPAPBVfacet@locale@2@PBV42@@Z 1006f62b f i libcpmt:wlocale.obj
 0001:0006e6a5       ?_Getcat@?$time_put@_WV?$ostreambuf_iterator@_WU?$char_traits@_W@std@@@std@@@std@@SAIPAPBVfacet@locale@2@PBV42@@Z 1006f6a5 f i libcpmt:wlocale.obj
 0001:0006e71f       ?_Getcoll@_Locinfo@std@@QBE?AU_Collvec@@XZ 1006f71f f i libcpmt:wlocale.obj
 0001:0006e735       ?_Getdateorder@_Locinfo@std@@QBEHXZ 1006f735 f i libcpmt:wlocale.obj
 0001:0006e73a       ?_Getdays@_Locinfo@std@@QBEPBDXZ 1006f73a f i libcpmt:wlocale.obj
 0001:0006e769       ?_Getfmt@?$time_get@GV?$istreambuf_iterator@GU?$char_traits@G@std@@@std@@@std@@IBE?AV?$istreambuf_iterator@GU?$char_traits@G@std@@@2@V32@0AAVios_base@2@AAHPAUtm@@PBD@Z 1006f769 f i libcpmt:wlocale.obj
 0001:0006e8db       ?_Getfmt@?$time_get@_WV?$istreambuf_iterator@_WU?$char_traits@_W@std@@@std@@@std@@IBE?AV?$istreambuf_iterator@_WU?$char_traits@_W@std@@@2@V32@0AAVios_base@2@AAHPAUtm@@PBD@Z 1006f8db f i libcpmt:wlocale.obj
 0001:0006ea4d       ?_Getint@?$time_get@GV?$istreambuf_iterator@GU?$char_traits@G@std@@@std@@@std@@ABAHAAV?$istreambuf_iterator@GU?$char_traits@G@std@@@2@0HHAAHABV?$ctype@G@2@@Z 1006fa4d f i libcpmt:wlocale.obj
 0001:0006ea71       ?_Getint@?$time_get@_WV?$istreambuf_iterator@_WU?$char_traits@_W@std@@@std@@@std@@ABAHAAV?$istreambuf_iterator@_WU?$char_traits@_W@std@@@2@0HHAAHABV?$ctype@_W@2@@Z 1006fa71 f i libcpmt:wlocale.obj
 0001:0006ea95       ?_Getmfld@?$money_get@GV?$istreambuf_iterator@GU?$char_traits@G@std@@@std@@@std@@ABE?AV?$basic_string@DU?$char_traits@D@std@@V?$allocator@D@2@@2@AAV?$istreambuf_iterator@GU?$char_traits@G@std@@@2@0_NAAVios_base@2@AAY0M@G@Z 1006fa95 f i libcpmt:wlocale.obj
 0001:0006f6e5       ?_Getmfld@?$money_get@_WV?$istreambuf_iterator@_WU?$char_traits@_W@std@@@std@@@std@@ABE?AV?$basic_string@DU?$char_traits@D@std@@V?$allocator@D@2@@2@AAV?$istreambuf_iterator@_WU?$char_traits@_W@std@@@2@0_NAAVios_base@2@AAY0M@_W@Z 100706e5 f i libcpmt:wlocale.obj
 0001:00070335       ?_Getmonths@_Locinfo@std@@QBEPBDXZ 10071335 f i libcpmt:wlocale.obj
 0001:00070364       ?_Getptr@_Timevec@std@@QBEPAXXZ 10071364 f i libcpmt:wlocale.obj
 0001:00070367       ?_Gnavail@?$basic_streambuf@GU?$char_traits@G@std@@@std@@IBE_JXZ 10071367 f i libcpmt:wlocale.obj
 0001:00070379       ?_Gnavail@?$basic_streambuf@_WU?$char_traits@_W@std@@@std@@IBE_JXZ 10071379 f i libcpmt:wlocale.obj
 0001:0007038b       ?_Gninc@?$basic_streambuf@GU?$char_traits@G@std@@@std@@IAEPAGXZ 1007138b f i libcpmt:wlocale.obj
 0001:0007039b       ?_Gninc@?$basic_streambuf@_WU?$char_traits@_W@std@@@std@@IAEPA_WXZ 1007139b f i libcpmt:wlocale.obj
 0001:000703ab       ?_Ifmt@?$num_put@GV?$ostreambuf_iterator@GU?$char_traits@G@std@@@std@@@std@@ABAPADPADPBDH@Z 100713ab f i libcpmt:wlocale.obj
 0001:00070420       ?_Ifmt@?$num_put@_WV?$ostreambuf_iterator@_WU?$char_traits@_W@std@@@std@@@std@@ABAPADPADPBDH@Z 10071420 f i libcpmt:wlocale.obj
 0001:00070495       ?_Inc@?$istreambuf_iterator@GU?$char_traits@G@std@@@std@@AAEXXZ 10071495 f i libcpmt:wlocale.obj
 0001:000704be       ?_Inc@?$istreambuf_iterator@_WU?$char_traits@_W@std@@@std@@AAEXXZ 100714be f i libcpmt:wlocale.obj
 0001:000704e7       ?_Init@?$_Mpunct@G@std@@IAEXABV_Locinfo@2@_N@Z 100714e7 f i libcpmt:wlocale.obj
 0001:0007061d       ?_Init@?$_Mpunct@_W@std@@IAEXABV_Locinfo@2@_N@Z 1007161d f i libcpmt:wlocale.obj
 0001:00070739       ?_Init@?$codecvt@GDU_Mbstatet@@@std@@IAEXABV_Locinfo@2@@Z 10071739 f i libcpmt:wlocale.obj
 0001:0007075d       ?_Init@?$codecvt@_WDU_Mbstatet@@@std@@IAEXABV_Locinfo@2@@Z 1007175d f i libcpmt:wlocale.obj
 0001:00070781       ?_Init@?$collate@G@std@@IAEXABV_Locinfo@2@@Z 10071781 f i libcpmt:wlocale.obj
 0001:00070793       ?_Init@?$collate@_W@std@@IAEXABV_Locinfo@2@@Z 10071793 f i libcpmt:wlocale.obj
 0001:000707a5       ?_Init@?$ctype@G@std@@IAEXABV_Locinfo@2@@Z 100717a5 f i libcpmt:wlocale.obj
 0001:000707de       ?_Init@?$ctype@_W@std@@IAEXABV_Locinfo@2@@Z 100717de f i libcpmt:wlocale.obj
 0001:00070817       ?_Init@?$messages@G@std@@IAEXABV_Locinfo@2@@Z 10071817 f i libcpmt:wlocale.obj
 0001:0007081a       ?_Init@?$messages@_W@std@@IAEXABV_Locinfo@2@@Z 1007181a f i libcpmt:wlocale.obj
 0001:0007081d       ?_Init@?$money_get@GV?$istreambuf_iterator@GU?$char_traits@G@std@@@std@@@std@@IAEXABV_Locinfo@2@@Z 1007181d f i libcpmt:wlocale.obj
 0001:00070820       ?_Init@?$money_get@_WV?$istreambuf_iterator@_WU?$char_traits@_W@std@@@std@@@std@@IAEXABV_Locinfo@2@@Z 10071820 f i libcpmt:wlocale.obj
 0001:00070823       ?_Init@?$money_put@GV?$ostreambuf_iterator@GU?$char_traits@G@std@@@std@@@std@@IAEXABV_Locinfo@2@@Z 10071823 f i libcpmt:wlocale.obj
 0001:00070826       ?_Init@?$money_put@_WV?$ostreambuf_iterator@_WU?$char_traits@_W@std@@@std@@@std@@IAEXABV_Locinfo@2@@Z 10071826 f i libcpmt:wlocale.obj
 0001:00070829       ?_Init@?$num_get@GV?$istreambuf_iterator@GU?$char_traits@G@std@@@std@@@std@@IAEXABV_Locinfo@2@@Z 10071829 f i libcpmt:wlocale.obj
 0001:0007082c       ?_Init@?$num_get@_WV?$istreambuf_iterator@_WU?$char_traits@_W@std@@@std@@@std@@IAEXABV_Locinfo@2@@Z 1007182c f i libcpmt:wlocale.obj
 0001:0007082f       ?_Init@?$num_put@GV?$ostreambuf_iterator@GU?$char_traits@G@std@@@std@@@std@@IAEXABV_Locinfo@2@@Z 1007182f f i libcpmt:wlocale.obj
 0001:00070832       ?_Init@?$num_put@_WV?$ostreambuf_iterator@_WU?$char_traits@_W@std@@@std@@@std@@IAEXABV_Locinfo@2@@Z 10071832 f i libcpmt:wlocale.obj
 0001:00070835       ?_Init@?$numpunct@G@std@@IAEXABV_Locinfo@2@_N@Z 10071835 f i libcpmt:wlocale.obj
 0001:00070908       ?_Init@?$numpunct@_W@std@@IAEXABV_Locinfo@2@_N@Z 10071908 f i libcpmt:wlocale.obj
 0001:000709cf       ?_Init@?$time_get@GV?$istreambuf_iterator@GU?$char_traits@G@std@@@std@@@std@@IAEXABV_Locinfo@2@@Z 100719cf f i libcpmt:wlocale.obj
 0001:00070a07       ?_Init@?$time_get@_WV?$istreambuf_iterator@_WU?$char_traits@_W@std@@@std@@@std@@IAEXABV_Locinfo@2@@Z 10071a07 f i libcpmt:wlocale.obj
 0001:00070a3f       ?_Init@?$time_put@GV?$ostreambuf_iterator@GU?$char_traits@G@std@@@std@@@std@@IAEXABV_Locinfo@2@@Z 10071a3f f i libcpmt:wlocale.obj
 0001:00070a68       ?_Init@?$time_put@_WV?$ostreambuf_iterator@_WU?$char_traits@_W@std@@@std@@@std@@IAEXABV_Locinfo@2@@Z 10071a68 f i libcpmt:wlocale.obj
 0001:00070a91       ?_Iput@?$num_put@GV?$ostreambuf_iterator@GU?$char_traits@G@std@@@std@@@std@@ABA?AV?$ostreambuf_iterator@GU?$char_traits@G@std@@@2@V32@AAVios_base@2@GPADI@Z 10071a91 f i libcpmt:wlocale.obj
 0001:00070d4f       ?_Iput@?$num_put@_WV?$ostreambuf_iterator@_WU?$char_traits@_W@std@@@std@@@std@@ABA?AV?$ostreambuf_iterator@_WU?$char_traits@_W@std@@@2@V32@AAVios_base@2@_WPADI@Z 10071d4f f i libcpmt:wlocale.obj
 0001:0007100d       ?_Is_constant_evaluated@std@@YA_NXZ 1007200d f i libcpmt:wlocale.obj
 0001:00071010       ?_Large_mode_engaged@?$_String_val@U?$_Simple_types@G@std@@@std@@QBE_NXZ 10072010 f i libcpmt:wlocale.obj
 0001:00071018       ?_Large_mode_engaged@?$_String_val@U?$_Simple_types@_W@std@@@std@@QBE_NXZ 10072018 f i libcpmt:wlocale.obj
 0001:00071020       ?_Makestr@_System_error@std@@CA?AV?$basic_string@DU?$char_traits@D@std@@V?$allocator@D@2@@2@Verror_code@2@V32@@Z 10072020 f i libcpmt:wlocale.obj
 0001:00071096       ?_Makeushloc@_Locimp@locale@std@@CAXABV_Locinfo@3@HPAV123@PBV23@@Z 10072096 f   libcpmt:wlocale.obj
 0001:0007154c       ?_Makewloc@_Locimp@locale@std@@CAXABV_Locinfo@3@HPAV123@PBV23@@Z 1007254c f   libcpmt:wlocale.obj
 0001:00071a02       ?_Maklocwcs@std@@YAPA_WPB_W@Z 10072a02 f i libcpmt:wlocale.obj
 0001:00071a4b       ?_Makpat@?$_Mpunct@G@std@@AAEXAAUpattern@money_base@2@III@Z 10072a4b f i libcpmt:wlocale.obj
 0001:00071a8c       ?_Makpat@?$_Mpunct@_W@std@@AAEXAAUpattern@money_base@2@III@Z 10072a8c f i libcpmt:wlocale.obj
 0001:00071acd       ?_Modify_annotation@?$basic_string@GU?$char_traits@G@std@@V?$allocator@G@2@@std@@ABEXII@Z 10072acd f i libcpmt:wlocale.obj
 0001:00071af4       ?_Modify_annotation@?$basic_string@_WU?$char_traits@_W@std@@V?$allocator@_W@2@@std@@ABEXII@Z 10072af4 f i libcpmt:wlocale.obj
 0001:00071b1b       ?_Myptr@?$_String_val@U?$_Simple_types@G@std@@@std@@QAEPAGXZ 10072b1b f i libcpmt:wlocale.obj
 0001:00071b26       ?_Myptr@?$_String_val@U?$_Simple_types@G@std@@@std@@QBEPBGXZ 10072b26 f i libcpmt:wlocale.obj
 0001:00071b31       ?_Myptr@?$_String_val@U?$_Simple_types@_W@std@@@std@@QAEPA_WXZ 10072b31 f i libcpmt:wlocale.obj
 0001:00071b3c       ?_Myptr@?$_String_val@U?$_Simple_types@_W@std@@@std@@QBEPB_WXZ 10072b3c f i libcpmt:wlocale.obj
 0001:00071b47       ?_Peek@?$istreambuf_iterator@GU?$char_traits@G@std@@@std@@ABEGXZ 10072b47 f i libcpmt:wlocale.obj
 0001:00071b78       ?_Peek@?$istreambuf_iterator@_WU?$char_traits@_W@std@@@std@@ABE_WXZ 10072b78 f i libcpmt:wlocale.obj
 0001:00071ba9       ?_Pnavail@?$basic_streambuf@GU?$char_traits@G@std@@@std@@IBE_JXZ 10072ba9 f i libcpmt:wlocale.obj
 0001:00071bbb       ?_Pnavail@?$basic_streambuf@_WU?$char_traits@_W@std@@@std@@IBE_JXZ 10072bbb f i libcpmt:wlocale.obj
 0001:00071bcd       ?_Pninc@?$basic_streambuf@GU?$char_traits@G@std@@@std@@IAEPAGXZ 10072bcd f i libcpmt:wlocale.obj
 0001:00071bdd       ?_Pninc@?$basic_streambuf@_WU?$char_traits@_W@std@@@std@@IAEPA_WXZ 10072bdd f i libcpmt:wlocale.obj
 0001:00071bed       ?_Put@?$money_put@GV?$ostreambuf_iterator@GU?$char_traits@G@std@@@std@@@std@@CA?AV?$ostreambuf_iterator@GU?$char_traits@G@std@@@2@V32@V?$_String_const_iterator@V?$_String_val@U?$_Simple_types@G@std@@@std@@@2@I@Z 10072bed f i libcpmt:wlocale.obj
 0001:00071c26       ?_Put@?$money_put@_WV?$ostreambuf_iterator@_WU?$char_traits@_W@std@@@std@@@std@@CA?AV?$ostreambuf_iterator@_WU?$char_traits@_W@std@@@2@V32@V?$_String_const_iterator@V?$_String_val@U?$_Simple_types@_W@std@@@std@@@2@I@Z 10072c26 f i libcpmt:wlocale.obj
 0001:00071c5f       ?_Put@?$num_put@GV?$ostreambuf_iterator@GU?$char_traits@G@std@@@std@@@std@@ABA?AV?$ostreambuf_iterator@GU?$char_traits@G@std@@@2@V32@PBGI@Z 10072c5f f i libcpmt:wlocale.obj
 0001:00071c94       ?_Put@?$num_put@_WV?$ostreambuf_iterator@_WU?$char_traits@_W@std@@@std@@@std@@ABA?AV?$ostreambuf_iterator@_WU?$char_traits@_W@std@@@2@V32@PB_WI@Z 10072c94 f i libcpmt:wlocale.obj
 0001:00071cc9       ?_Putmfld@?$money_put@GV?$ostreambuf_iterator@GU?$char_traits@G@std@@@std@@@std@@ABE?AV?$ostreambuf_iterator@GU?$char_traits@G@std@@@2@V32@_NAAVios_base@2@G1V?$basic_string@GU?$char_traits@G@std@@V?$allocator@G@2@@2@G@Z 10072cc9 f i libcpmt:wlocale.obj
 0001:0007227f       ?_Putmfld@?$money_put@_WV?$ostreambuf_iterator@_WU?$char_traits@_W@std@@@std@@@std@@ABE?AV?$ostreambuf_iterator@_WU?$char_traits@_W@std@@@2@V32@_NAAVios_base@2@_W1V?$basic_string@_WU?$char_traits@_W@std@@V?$allocator@_W@2@@2@3@Z 1007327f f i libcpmt:wlocale.obj
 0001:00072835       ?_Remove_annotation@?$basic_string@GU?$char_traits@G@std@@V?$allocator@G@2@@std@@ABEXXZ 10073835 f i libcpmt:wlocale.obj
 0001:0007284f       ?_Remove_annotation@?$basic_string@_WU?$char_traits@_W@std@@V?$allocator@_W@2@@std@@ABEXXZ 1007384f f i libcpmt:wlocale.obj
 0001:00072869       ?_Rep@?$money_put@GV?$ostreambuf_iterator@GU?$char_traits@G@std@@@std@@@std@@CA?AV?$ostreambuf_iterator@GU?$char_traits@G@std@@@2@V32@GI@Z 10073869 f i libcpmt:wlocale.obj
 0001:00072895       ?_Rep@?$money_put@_WV?$ostreambuf_iterator@_WU?$char_traits@_W@std@@@std@@@std@@CA?AV?$ostreambuf_iterator@_WU?$char_traits@_W@std@@@2@V32@_WI@Z 10073895 f i libcpmt:wlocale.obj
 0001:000728c1       ?_Rep@?$num_put@GV?$ostreambuf_iterator@GU?$char_traits@G@std@@@std@@@std@@ABA?AV?$ostreambuf_iterator@GU?$char_traits@G@std@@@2@V32@GI@Z 100738c1 f i libcpmt:wlocale.obj
 0001:000728ed       ?_Rep@?$num_put@_WV?$ostreambuf_iterator@_WU?$char_traits@_W@std@@@std@@@std@@ABA?AV?$ostreambuf_iterator@_WU?$char_traits@_W@std@@@2@V32@_WI@Z 100738ed f i libcpmt:wlocale.obj
 0001:00072919       ?_Swap_proxy_and_iterators@?$basic_string@GU?$char_traits@G@std@@V?$allocator@G@2@@std@@AAEXAAV12@@Z 10073919 f i libcpmt:wlocale.obj
 0001:0007291c       ?_Swap_proxy_and_iterators@?$basic_string@_WU?$char_traits@_W@std@@V?$allocator@_W@2@@std@@AAEXAAV12@@Z 1007391c f i libcpmt:wlocale.obj
 0001:0007291f       ?_Switch_to_buf@_Bxty@?$_String_val@U?$_Simple_types@G@std@@@std@@QAEXXZ 1007391f f i libcpmt:wlocale.obj
 0001:00072922       ?_Switch_to_buf@_Bxty@?$_String_val@U?$_Simple_types@_W@std@@@std@@QAEXXZ 10073922 f i libcpmt:wlocale.obj
 0001:00072925       ?_Take_contents@?$basic_string@GU?$char_traits@G@std@@V?$allocator@G@2@@std@@AAEXAAV12@@Z 10073925 f i libcpmt:wlocale.obj
 0001:00072975       ?_Take_contents@?$basic_string@_WU?$char_traits@_W@std@@V?$allocator@_W@2@@std@@AAEXAAV12@@Z 10073975 f i libcpmt:wlocale.obj
 0001:000729c5       ?_Tidy@?$_Mpunct@G@std@@AAEXXZ 100739c5 f i libcpmt:wlocale.obj
 0001:000729ed       ?_Tidy@?$_Mpunct@_W@std@@AAEXXZ 100739ed f i libcpmt:wlocale.obj
 0001:00072a15       ?_Tidy@?$numpunct@G@std@@AAEXXZ 10073a15 f i libcpmt:wlocale.obj
 0001:00072a35       ?_Tidy@?$numpunct@_W@std@@AAEXXZ 10073a35 f i libcpmt:wlocale.obj
 0001:00072a55       ?_Tidy@?$time_get@GV?$istreambuf_iterator@GU?$char_traits@G@std@@@std@@@std@@AAEXXZ 10073a55 f i libcpmt:wlocale.obj
 0001:00072a75       ?_Tidy@?$time_get@_WV?$istreambuf_iterator@_WU?$char_traits@_W@std@@@std@@@std@@AAEXXZ 10073a75 f i libcpmt:wlocale.obj
 0001:00072a95       ?_Tidy_deallocate@?$basic_string@GU?$char_traits@G@std@@V?$allocator@G@2@@std@@AAEXXZ 10073a95 f i libcpmt:wlocale.obj
 0001:00072acc       ?_Tidy_deallocate@?$basic_string@_WU?$char_traits@_W@std@@V?$allocator@_W@2@@std@@AAEXXZ 10073acc f i libcpmt:wlocale.obj
 0001:00072b03       ?_W_Getdays@_Locinfo@std@@QBEPBGXZ 10073b03 f i libcpmt:wlocale.obj
 0001:00072b32       ?_W_Getmonths@_Locinfo@std@@QBEPBGXZ 10073b32 f i libcpmt:wlocale.obj
 0001:00072b61       ?_W_Gettnames@_Locinfo@std@@QBE?AV_Timevec@2@XZ 10073b61 f i libcpmt:wlocale.obj
 0001:00072b75       ?_Xran@?$_String_val@U?$_Simple_types@G@std@@@std@@SAXXZ 10073b75 f i libcpmt:wlocale.obj
 0001:00072b80       ?_Xran@?$_String_val@U?$_Simple_types@_W@std@@@std@@SAXXZ 10073b80 f i libcpmt:wlocale.obj
 0001:00072b8b       ?allocate@?$allocator@G@std@@QAEPAGI@Z 10073b8b f i libcpmt:wlocale.obj
 0001:00072bab       ?allocate@?$allocator@_W@std@@QAEPA_WI@Z 10073bab f i libcpmt:wlocale.obj
 0001:00072bcb       ?append@?$basic_string@DU?$char_traits@D@std@@V?$allocator@D@2@@std@@QAEAAV12@QBD@Z 10073bcb f i libcpmt:wlocale.obj
 0001:00072bec       ?append@?$basic_string@GU?$char_traits@G@std@@V?$allocator@G@2@@std@@QAEAAV12@ABV12@@Z 10073bec f i libcpmt:wlocale.obj
 0001:00072c08       ?append@?$basic_string@GU?$char_traits@G@std@@V?$allocator@G@2@@std@@QAEAAV12@IG@Z 10073c08 f i libcpmt:wlocale.obj
 0001:00072c76       ?append@?$basic_string@GU?$char_traits@G@std@@V?$allocator@G@2@@std@@QAEAAV12@QBGI@Z 10073c76 f i libcpmt:wlocale.obj
 0001:00072ce5       ?append@?$basic_string@_WU?$char_traits@_W@std@@V?$allocator@_W@2@@std@@QAEAAV12@ABV12@@Z 10073ce5 f i libcpmt:wlocale.obj
 0001:00072d01       ?append@?$basic_string@_WU?$char_traits@_W@std@@V?$allocator@_W@2@@std@@QAEAAV12@I_W@Z 10073d01 f i libcpmt:wlocale.obj
 0001:00072d6f       ?append@?$basic_string@_WU?$char_traits@_W@std@@V?$allocator@_W@2@@std@@QAEAAV12@QB_WI@Z 10073d6f f i libcpmt:wlocale.obj
 0001:00072dde       ?assign@?$_Char_traits@GG@std@@SAPAGQAGIG@Z 10073dde f i libcpmt:wlocale.obj
 0001:00072e08       ?assign@?$_Char_traits@GG@std@@SAXAAGABG@Z 10073e08 f i libcpmt:wlocale.obj
 0001:00072e19       ?assign@?$_Char_traits@_WG@std@@SAPA_WQA_WI_W@Z 10073e19 f i libcpmt:wlocale.obj
 0001:00072e43       ?assign@?$_Char_traits@_WG@std@@SAXAA_WAB_W@Z 10073e43 f i libcpmt:wlocale.obj
 0001:00072e54       ?assign@?$_WChar_traits@G@std@@SAPAGQAGIG@Z 10073e54 f i libcpmt:wlocale.obj
 0001:00072e6a       ?assign@?$_WChar_traits@G@std@@SAXAAGABG@Z 10073e6a f i libcpmt:wlocale.obj
 0001:00072e7b       ?assign@?$_WChar_traits@_W@std@@SAPA_WQA_WI_W@Z 10073e7b f i libcpmt:wlocale.obj
 0001:00072e91       ?assign@?$_WChar_traits@_W@std@@SAXAA_WAB_W@Z 10073e91 f i libcpmt:wlocale.obj
 0001:00072ea2       ?assign@?$basic_string@GU?$char_traits@G@std@@V?$allocator@G@2@@std@@QAEAAV12@$$QAV12@@Z 10073ea2 f i libcpmt:wlocale.obj
 0001:00072eb7       ?assign@?$basic_string@_WU?$char_traits@_W@std@@V?$allocator@_W@2@@std@@QAEAAV12@$$QAV12@@Z 10073eb7 f i libcpmt:wlocale.obj
 0001:00072ecc       ?begin@?$basic_string@GU?$char_traits@G@std@@V?$allocator@G@2@@std@@QAE?AV?$_String_iterator@V?$_String_val@U?$_Simple_types@G@std@@@std@@@2@XZ 10073ecc f i libcpmt:wlocale.obj
 0001:00072ee0       ?begin@?$basic_string@_WU?$char_traits@_W@std@@V?$allocator@_W@2@@std@@QAE?AV?$_String_iterator@V?$_String_val@U?$_Simple_types@_W@std@@@std@@@2@XZ 10073ee0 f i libcpmt:wlocale.obj
 0001:00072ef4       ?c_str@?$basic_string@GU?$char_traits@G@std@@V?$allocator@G@2@@std@@QBEPBGXZ 10073ef4 f i libcpmt:wlocale.obj
 0001:00072eff       ?c_str@?$basic_string@_WU?$char_traits@_W@std@@V?$allocator@_W@2@@std@@QBEPB_WXZ 10073eff f i libcpmt:wlocale.obj
 0001:00072f0a       ?category@error_code@std@@QBEABVerror_category@2@XZ 10073f0a f i libcpmt:wlocale.obj
 0001:00072f0e       ?category@error_condition@std@@QBEABVerror_category@2@XZ 10073f0e f i libcpmt:wlocale.obj
 0001:00072f12       ?copy@?$_Char_traits@GG@std@@SAPAGQAGQBGI@Z 10073f12 f i libcpmt:wlocale.obj
 0001:00072f2e       ?copy@?$_Char_traits@_WG@std@@SAPA_WQA_WQB_WI@Z 10073f2e f i libcpmt:wlocale.obj
 0001:00072f4a       ?curr_symbol@?$_Mpunct@G@std@@QBE?AV?$basic_string@GU?$char_traits@G@std@@V?$allocator@G@2@@2@XZ 10073f4a f i libcpmt:wlocale.obj
 0001:00072f6f       ?curr_symbol@?$_Mpunct@_W@std@@QBE?AV?$basic_string@_WU?$char_traits@_W@std@@V?$allocator@_W@2@@2@XZ 10073f6f f i libcpmt:wlocale.obj
 0001:00072f94       ?date_order@?$time_get@GV?$istreambuf_iterator@GU?$char_traits@G@std@@@std@@@std@@QBE?AW4dateorder@time_base@2@XZ 10073f94 f i libcpmt:wlocale.obj
 0001:00072fac       ?date_order@?$time_get@_WV?$istreambuf_iterator@_WU?$char_traits@_W@std@@@std@@@std@@QBE?AW4dateorder@time_base@2@XZ 10073fac f i libcpmt:wlocale.obj
 0001:00072fc4       ?deallocate@?$allocator@G@std@@QAEXQAGI@Z 10073fc4 f i libcpmt:wlocale.obj
 0001:00072fdb       ?deallocate@?$allocator@_W@std@@QAEXQA_WI@Z 10073fdb f i libcpmt:wlocale.obj
 0001:00072ff2       ?decimal_point@?$_Mpunct@G@std@@QBEGXZ 10073ff2 f i libcpmt:wlocale.obj
 0001:0007300a       ?decimal_point@?$_Mpunct@_W@std@@QBE_WXZ 1007400a f i libcpmt:wlocale.obj
 0001:00073022       ?decimal_point@?$numpunct@G@std@@QBEGXZ 10074022 f i libcpmt:wlocale.obj
 0001:0007303a       ?decimal_point@?$numpunct@_W@std@@QBE_WXZ 1007403a f i libcpmt:wlocale.obj
 0001:00073052       ?do_always_noconv@?$codecvt@GDU_Mbstatet@@@std@@MBE_NXZ 10074052 f i libcpmt:wlocale.obj
 0001:00073055       ?do_always_noconv@?$codecvt@_WDU_Mbstatet@@@std@@MBE_NXZ 10074055 f i libcpmt:wlocale.obj
 0001:00073058       ?do_close@?$messages@G@std@@MBEXH@Z 10074058 f i libcpmt:wlocale.obj
 0001:0007305b       ?do_close@?$messages@_W@std@@MBEXH@Z 1007405b f i libcpmt:wlocale.obj
 0001:0007305e       ?do_compare@?$collate@G@std@@MBEHPBG000@Z 1007405e f i libcpmt:wlocale.obj
 0001:0007308e       ?do_compare@?$collate@_W@std@@MBEHPB_W000@Z 1007408e f i libcpmt:wlocale.obj
 0001:000730be       ?do_curr_symbol@?$_Mpunct@G@std@@MBE?AV?$basic_string@GU?$char_traits@G@std@@V?$allocator@G@2@@2@XZ 100740be f i libcpmt:wlocale.obj
 0001:000730d4       ?do_curr_symbol@?$_Mpunct@_W@std@@MBE?AV?$basic_string@_WU?$char_traits@_W@std@@V?$allocator@_W@2@@2@XZ 100740d4 f i libcpmt:wlocale.obj
 0001:000730ea       ?do_date_order@?$time_get@GV?$istreambuf_iterator@GU?$char_traits@G@std@@@std@@@std@@MBE?AW4dateorder@time_base@2@XZ 100740ea f i libcpmt:wlocale.obj
 0001:000730ee       ?do_date_order@?$time_get@_WV?$istreambuf_iterator@_WU?$char_traits@_W@std@@@std@@@std@@MBE?AW4dateorder@time_base@2@XZ 100740ee f i libcpmt:wlocale.obj
 0001:000730f2       ?do_decimal_point@?$_Mpunct@G@std@@MBEGXZ 100740f2 f i libcpmt:wlocale.obj
 0001:000730f7       ?do_decimal_point@?$_Mpunct@_W@std@@MBE_WXZ 100740f7 f i libcpmt:wlocale.obj
 0001:000730fc       ?do_decimal_point@?$numpunct@G@std@@MBEGXZ 100740fc f i libcpmt:wlocale.obj
 0001:00073101       ?do_decimal_point@?$numpunct@_W@std@@MBE_WXZ 10074101 f i libcpmt:wlocale.obj
 0001:00073106       ?do_encoding@?$codecvt@GDU_Mbstatet@@@std@@MBEHXZ 10074106 f i libcpmt:wlocale.obj
 0001:00073110       ?do_encoding@?$codecvt@_WDU_Mbstatet@@@std@@MBEHXZ 10074110 f i libcpmt:wlocale.obj
 0001:0007311a       ?do_falsename@?$numpunct@G@std@@MBE?AV?$basic_string@GU?$char_traits@G@std@@V?$allocator@G@2@@2@XZ 1007411a f i libcpmt:wlocale.obj
 0001:00073130       ?do_falsename@?$numpunct@_W@std@@MBE?AV?$basic_string@_WU?$char_traits@_W@std@@V?$allocator@_W@2@@2@XZ 10074130 f i libcpmt:wlocale.obj
 0001:00073146       ?do_frac_digits@?$_Mpunct@G@std@@MBEHXZ 10074146 f i libcpmt:wlocale.obj
 0001:0007314a       ?do_frac_digits@?$_Mpunct@_W@std@@MBEHXZ 1007414a f i libcpmt:wlocale.obj
 0001:0007314e       ?do_get@?$messages@G@std@@MBE?AV?$basic_string@GU?$char_traits@G@std@@V?$allocator@G@2@@2@HHHABV32@@Z 1007414e f i libcpmt:wlocale.obj
 0001:00073164       ?do_get@?$messages@_W@std@@MBE?AV?$basic_string@_WU?$char_traits@_W@std@@V?$allocator@_W@2@@2@HHHABV32@@Z 10074164 f i libcpmt:wlocale.obj
 0001:0007317a       ?do_get@?$money_get@GV?$istreambuf_iterator@GU?$char_traits@G@std@@@std@@@std@@MBE?AV?$istreambuf_iterator@GU?$char_traits@G@std@@@2@V32@0_NAAVios_base@2@AAHAAO@Z 1007417a f i libcpmt:wlocale.obj
 0001:0007322d       ?do_get@?$money_get@GV?$istreambuf_iterator@GU?$char_traits@G@std@@@std@@@std@@MBE?AV?$istreambuf_iterator@GU?$char_traits@G@std@@@2@V32@0_NAAVios_base@2@AAHAAV?$basic_string@GU?$char_traits@G@std@@V?$allocator@G@2@@2@@Z 1007422d f i libcpmt:wlocale.obj
 0001:00073305       ?do_get@?$money_get@_WV?$istreambuf_iterator@_WU?$char_traits@_W@std@@@std@@@std@@MBE?AV?$istreambuf_iterator@_WU?$char_traits@_W@std@@@2@V32@0_NAAVios_base@2@AAHAAO@Z 10074305 f i libcpmt:wlocale.obj
 0001:000733b8       ?do_get@?$money_get@_WV?$istreambuf_iterator@_WU?$char_traits@_W@std@@@std@@@std@@MBE?AV?$istreambuf_iterator@_WU?$char_traits@_W@std@@@2@V32@0_NAAVios_base@2@AAHAAV?$basic_string@_WU?$char_traits@_W@std@@V?$allocator@_W@2@@2@@Z 100743b8 f i libcpmt:wlocale.obj
 0001:00073490       ?do_get@?$num_get@GV?$istreambuf_iterator@GU?$char_traits@G@std@@@std@@@std@@MBE?AV?$istreambuf_iterator@GU?$char_traits@G@std@@@2@V32@0AAVios_base@2@AAHAAG@Z 10074490 f i libcpmt:wlocale.obj
 0001:00073589       ?do_get@?$num_get@GV?$istreambuf_iterator@GU?$char_traits@G@std@@@std@@@std@@MBE?AV?$istreambuf_iterator@GU?$char_traits@G@std@@@2@V32@0AAVios_base@2@AAHAAI@Z 10074589 f i libcpmt:wlocale.obj
 0001:000735c9       ?do_get@?$num_get@GV?$istreambuf_iterator@GU?$char_traits@G@std@@@std@@@std@@MBE?AV?$istreambuf_iterator@GU?$char_traits@G@std@@@2@V32@0AAVios_base@2@AAHAAJ@Z 100745c9 f i libcpmt:wlocale.obj
 0001:0007369c       ?do_get@?$num_get@GV?$istreambuf_iterator@GU?$char_traits@G@std@@@std@@@std@@MBE?AV?$istreambuf_iterator@GU?$char_traits@G@std@@@2@V32@0AAVios_base@2@AAHAAK@Z 1007469c f i libcpmt:wlocale.obj
 0001:0007376f       ?do_get@?$num_get@GV?$istreambuf_iterator@GU?$char_traits@G@std@@@std@@@std@@MBE?AV?$istreambuf_iterator@GU?$char_traits@G@std@@@2@V32@0AAVios_base@2@AAHAAM@Z 1007476f f i libcpmt:wlocale.obj
 0001:0007385f       ?do_get@?$num_get@GV?$istreambuf_iterator@GU?$char_traits@G@std@@@std@@@std@@MBE?AV?$istreambuf_iterator@GU?$char_traits@G@std@@@2@V32@0AAVios_base@2@AAHAAN@Z 1007485f f i libcpmt:wlocale.obj
 0001:00073950       ?do_get@?$num_get@GV?$istreambuf_iterator@GU?$char_traits@G@std@@@std@@@std@@MBE?AV?$istreambuf_iterator@GU?$char_traits@G@std@@@2@V32@0AAVios_base@2@AAHAAO@Z 10074950 f i libcpmt:wlocale.obj
 0001:00073992       ?do_get@?$num_get@GV?$istreambuf_iterator@GU?$char_traits@G@std@@@std@@@std@@MBE?AV?$istreambuf_iterator@GU?$char_traits@G@std@@@2@V32@0AAVios_base@2@AAHAAPAX@Z 10074992 f i libcpmt:wlocale.obj
 0001:00073a65       ?do_get@?$num_get@GV?$istreambuf_iterator@GU?$char_traits@G@std@@@std@@@std@@MBE?AV?$istreambuf_iterator@GU?$char_traits@G@std@@@2@V32@0AAVios_base@2@AAHAA_J@Z 10074a65 f i libcpmt:wlocale.obj
 0001:00073b3d       ?do_get@?$num_get@GV?$istreambuf_iterator@GU?$char_traits@G@std@@@std@@@std@@MBE?AV?$istreambuf_iterator@GU?$char_traits@G@std@@@2@V32@0AAVios_base@2@AAHAA_K@Z 10074b3d f i libcpmt:wlocale.obj
 0001:00073c15       ?do_get@?$num_get@GV?$istreambuf_iterator@GU?$char_traits@G@std@@@std@@@std@@MBE?AV?$istreambuf_iterator@GU?$char_traits@G@std@@@2@V32@0AAVios_base@2@AAHAA_N@Z 10074c15 f i libcpmt:wlocale.obj
 0001:00073e18       ?do_get@?$num_get@_WV?$istreambuf_iterator@_WU?$char_traits@_W@std@@@std@@@std@@MBE?AV?$istreambuf_iterator@_WU?$char_traits@_W@std@@@2@V32@0AAVios_base@2@AAHAAG@Z 10074e18 f i libcpmt:wlocale.obj
 0001:00073f11       ?do_get@?$num_get@_WV?$istreambuf_iterator@_WU?$char_traits@_W@std@@@std@@@std@@MBE?AV?$istreambuf_iterator@_WU?$char_traits@_W@std@@@2@V32@0AAVios_base@2@AAHAAI@Z 10074f11 f i libcpmt:wlocale.obj
 0001:00073f51       ?do_get@?$num_get@_WV?$istreambuf_iterator@_WU?$char_traits@_W@std@@@std@@@std@@MBE?AV?$istreambuf_iterator@_WU?$char_traits@_W@std@@@2@V32@0AAVios_base@2@AAHAAJ@Z 10074f51 f i libcpmt:wlocale.obj
 0001:00074024       ?do_get@?$num_get@_WV?$istreambuf_iterator@_WU?$char_traits@_W@std@@@std@@@std@@MBE?AV?$istreambuf_iterator@_WU?$char_traits@_W@std@@@2@V32@0AAVios_base@2@AAHAAK@Z 10075024 f i libcpmt:wlocale.obj
 0001:000740f7       ?do_get@?$num_get@_WV?$istreambuf_iterator@_WU?$char_traits@_W@std@@@std@@@std@@MBE?AV?$istreambuf_iterator@_WU?$char_traits@_W@std@@@2@V32@0AAVios_base@2@AAHAAM@Z 100750f7 f i libcpmt:wlocale.obj
 0001:000741e7       ?do_get@?$num_get@_WV?$istreambuf_iterator@_WU?$char_traits@_W@std@@@std@@@std@@MBE?AV?$istreambuf_iterator@_WU?$char_traits@_W@std@@@2@V32@0AAVios_base@2@AAHAAN@Z 100751e7 f i libcpmt:wlocale.obj
 0001:000742d8       ?do_get@?$num_get@_WV?$istreambuf_iterator@_WU?$char_traits@_W@std@@@std@@@std@@MBE?AV?$istreambuf_iterator@_WU?$char_traits@_W@std@@@2@V32@0AAVios_base@2@AAHAAO@Z 100752d8 f i libcpmt:wlocale.obj
 0001:0007431a       ?do_get@?$num_get@_WV?$istreambuf_iterator@_WU?$char_traits@_W@std@@@std@@@std@@MBE?AV?$istreambuf_iterator@_WU?$char_traits@_W@std@@@2@V32@0AAVios_base@2@AAHAAPAX@Z 1007531a f i libcpmt:wlocale.obj
 0001:000743ed       ?do_get@?$num_get@_WV?$istreambuf_iterator@_WU?$char_traits@_W@std@@@std@@@std@@MBE?AV?$istreambuf_iterator@_WU?$char_traits@_W@std@@@2@V32@0AAVios_base@2@AAHAA_J@Z 100753ed f i libcpmt:wlocale.obj
 0001:000744c5       ?do_get@?$num_get@_WV?$istreambuf_iterator@_WU?$char_traits@_W@std@@@std@@@std@@MBE?AV?$istreambuf_iterator@_WU?$char_traits@_W@std@@@2@V32@0AAVios_base@2@AAHAA_K@Z 100754c5 f i libcpmt:wlocale.obj
 0001:0007459d       ?do_get@?$num_get@_WV?$istreambuf_iterator@_WU?$char_traits@_W@std@@@std@@@std@@MBE?AV?$istreambuf_iterator@_WU?$char_traits@_W@std@@@2@V32@0AAVios_base@2@AAHAA_N@Z 1007559d f i libcpmt:wlocale.obj
 0001:000747a0       ?do_get@?$time_get@GV?$istreambuf_iterator@GU?$char_traits@G@std@@@std@@@std@@MBE?AV?$istreambuf_iterator@GU?$char_traits@G@std@@@2@V32@0AAVios_base@2@AAHPAUtm@@DD@Z 100757a0 f i libcpmt:wlocale.obj
 0001:00074b91       ?do_get@?$time_get@_WV?$istreambuf_iterator@_WU?$char_traits@_W@std@@@std@@@std@@MBE?AV?$istreambuf_iterator@_WU?$char_traits@_W@std@@@2@V32@0AAVios_base@2@AAHPAUtm@@DD@Z 10075b91 f i libcpmt:wlocale.obj
 0001:00074f82       ?do_get_date@?$time_get@GV?$istreambuf_iterator@GU?$char_traits@G@std@@@std@@@std@@MBE?AV?$istreambuf_iterator@GU?$char_traits@G@std@@@2@V32@0AAVios_base@2@AAHPAUtm@@@Z 10075f82 f i libcpmt:wlocale.obj
 0001:00075447       ?do_get_date@?$time_get@_WV?$istreambuf_iterator@_WU?$char_traits@_W@std@@@std@@@std@@MBE?AV?$istreambuf_iterator@_WU?$char_traits@_W@std@@@2@V32@0AAVios_base@2@AAHPAUtm@@@Z 10076447 f i libcpmt:wlocale.obj
 0001:0007590c       ?do_get_monthname@?$time_get@GV?$istreambuf_iterator@GU?$char_traits@G@std@@@std@@@std@@MBE?AV?$istreambuf_iterator@GU?$char_traits@G@std@@@2@V32@0AAVios_base@2@AAHPAUtm@@@Z 1007690c f i libcpmt:wlocale.obj
 0001:0007594e       ?do_get_monthname@?$time_get@_WV?$istreambuf_iterator@_WU?$char_traits@_W@std@@@std@@@std@@MBE?AV?$istreambuf_iterator@_WU?$char_traits@_W@std@@@2@V32@0AAVios_base@2@AAHPAUtm@@@Z 1007694e f i libcpmt:wlocale.obj
 0001:00075990       ?do_get_time@?$time_get@GV?$istreambuf_iterator@GU?$char_traits@G@std@@@std@@@std@@MBE?AV?$istreambuf_iterator@GU?$char_traits@G@std@@@2@V32@0AAVios_base@2@AAHPAUtm@@@Z 10076990 f i libcpmt:wlocale.obj
 0001:00075abc       ?do_get_time@?$time_get@_WV?$istreambuf_iterator@_WU?$char_traits@_W@std@@@std@@@std@@MBE?AV?$istreambuf_iterator@_WU?$char_traits@_W@std@@@2@V32@0AAVios_base@2@AAHPAUtm@@@Z 10076abc f i libcpmt:wlocale.obj
 0001:00075be8       ?do_get_weekday@?$time_get@GV?$istreambuf_iterator@GU?$char_traits@G@std@@@std@@@std@@MBE?AV?$istreambuf_iterator@GU?$char_traits@G@std@@@2@V32@0AAVios_base@2@AAHPAUtm@@@Z 10076be8 f i libcpmt:wlocale.obj
 0001:00075c2a       ?do_get_weekday@?$time_get@_WV?$istreambuf_iterator@_WU?$char_traits@_W@std@@@std@@@std@@MBE?AV?$istreambuf_iterator@_WU?$char_traits@_W@std@@@2@V32@0AAVios_base@2@AAHPAUtm@@@Z 10076c2a f i libcpmt:wlocale.obj
 0001:00075c6c       ?do_get_year@?$time_get@GV?$istreambuf_iterator@GU?$char_traits@G@std@@@std@@@std@@MBE?AV?$istreambuf_iterator@GU?$char_traits@G@std@@@2@V32@0AAVios_base@2@AAHPAUtm@@@Z 10076c6c f i libcpmt:wlocale.obj
 0001:00075d14       ?do_get_year@?$time_get@_WV?$istreambuf_iterator@_WU?$char_traits@_W@std@@@std@@@std@@MBE?AV?$istreambuf_iterator@_WU?$char_traits@_W@std@@@2@V32@0AAVios_base@2@AAHPAUtm@@@Z 10076d14 f i libcpmt:wlocale.obj
 0001:00075dbc       ?do_grouping@?$_Mpunct@G@std@@MBE?AV?$basic_string@DU?$char_traits@D@std@@V?$allocator@D@2@@2@XZ 10076dbc f i libcpmt:wlocale.obj
 0001:00075dd2       ?do_grouping@?$_Mpunct@_W@std@@MBE?AV?$basic_string@DU?$char_traits@D@std@@V?$allocator@D@2@@2@XZ 10076dd2 f i libcpmt:wlocale.obj
 0001:00075de8       ?do_grouping@?$numpunct@G@std@@MBE?AV?$basic_string@DU?$char_traits@D@std@@V?$allocator@D@2@@2@XZ 10076de8 f i libcpmt:wlocale.obj
 0001:00075dfe       ?do_grouping@?$numpunct@_W@std@@MBE?AV?$basic_string@DU?$char_traits@D@std@@V?$allocator@D@2@@2@XZ 10076dfe f i libcpmt:wlocale.obj
 0001:00075e14       ?do_hash@?$collate@G@std@@MBEJPBG0@Z 10076e14 f i libcpmt:wlocale.obj
 0001:00075e35       ?do_hash@?$collate@_W@std@@MBEJPB_W0@Z 10076e35 f i libcpmt:wlocale.obj
 0001:00075e56       ?do_in@?$codecvt@GDU_Mbstatet@@@std@@MBEHAAU_Mbstatet@@PBD1AAPBDPAG3AAPAG@Z 10076e56 f i libcpmt:wlocale.obj
 0001:00075eca       ?do_in@?$codecvt@_WDU_Mbstatet@@@std@@MBEHAAU_Mbstatet@@PBD1AAPBDPA_W3AAPA_W@Z 10076eca f i libcpmt:wlocale.obj
 0001:00075f3e       ?do_is@?$ctype@G@std@@MBEPBGPBG0PAF@Z 10076f3e f i libcpmt:wlocale.obj
 0001:00075f5a       ?do_is@?$ctype@G@std@@MBE_NFG@Z 10076f5a f i libcpmt:wlocale.obj
 0001:00075f76       ?do_is@?$ctype@_W@std@@MBEPB_WPB_W0PAF@Z 10076f76 f i libcpmt:wlocale.obj
 0001:00075f92       ?do_is@?$ctype@_W@std@@MBE_NF_W@Z 10076f92 f i libcpmt:wlocale.obj
 0001:00075fae       ?do_length@?$codecvt@GDU_Mbstatet@@@std@@MBEHAAU_Mbstatet@@PBD1I@Z 10076fae f i libcpmt:wlocale.obj
 0001:00076006       ?do_length@?$codecvt@_WDU_Mbstatet@@@std@@MBEHAAU_Mbstatet@@PBD1I@Z 10077006 f i libcpmt:wlocale.obj
 0001:0007605e       ?do_max_length@?$codecvt@GDU_Mbstatet@@@std@@MBEHXZ 1007705e f i libcpmt:wlocale.obj
 0001:00076062       ?do_max_length@?$codecvt@_WDU_Mbstatet@@@std@@MBEHXZ 10077062 f i libcpmt:wlocale.obj
 0001:00076066       ?do_narrow@?$ctype@G@std@@MBEDGD@Z 10077066 f i libcpmt:wlocale.obj
 0001:0007606f       ?do_narrow@?$ctype@G@std@@MBEPBGPBG0DPAD@Z 1007706f f i libcpmt:wlocale.obj
 0001:000760a4       ?do_narrow@?$ctype@_W@std@@MBED_WD@Z 100770a4 f i libcpmt:wlocale.obj
 0001:000760ad       ?do_narrow@?$ctype@_W@std@@MBEPB_WPB_W0DPAD@Z 100770ad f i libcpmt:wlocale.obj
 0001:000760e2       ?do_neg_format@?$_Mpunct@G@std@@MBE?AUpattern@money_base@2@XZ 100770e2 f i libcpmt:wlocale.obj
 0001:000760f1       ?do_neg_format@?$_Mpunct@_W@std@@MBE?AUpattern@money_base@2@XZ 100770f1 f i libcpmt:wlocale.obj
 0001:00076100       ?do_negative_sign@?$_Mpunct@G@std@@MBE?AV?$basic_string@GU?$char_traits@G@std@@V?$allocator@G@2@@2@XZ 10077100 f i libcpmt:wlocale.obj
 0001:00076116       ?do_negative_sign@?$_Mpunct@_W@std@@MBE?AV?$basic_string@_WU?$char_traits@_W@std@@V?$allocator@_W@2@@2@XZ 10077116 f i libcpmt:wlocale.obj
 0001:0007612c       ?do_open@?$messages@G@std@@MBEHABV?$basic_string@DU?$char_traits@D@std@@V?$allocator@D@2@@2@ABVlocale@2@@Z 1007712c f i libcpmt:wlocale.obj
 0001:00076132       ?do_open@?$messages@_W@std@@MBEHABV?$basic_string@DU?$char_traits@D@std@@V?$allocator@D@2@@2@ABVlocale@2@@Z 10077132 f i libcpmt:wlocale.obj
 0001:00076138       ?do_out@?$codecvt@GDU_Mbstatet@@@std@@MBEHAAU_Mbstatet@@PBG1AAPBGPAD3AAPAD@Z 10077138 f i libcpmt:wlocale.obj
 0001:00076231       ?do_out@?$codecvt@_WDU_Mbstatet@@@std@@MBEHAAU_Mbstatet@@PB_W1AAPB_WPAD3AAPAD@Z 10077231 f i libcpmt:wlocale.obj
 0001:0007632a       ?do_pos_format@?$_Mpunct@G@std@@MBE?AUpattern@money_base@2@XZ 1007732a f i libcpmt:wlocale.obj
 0001:00076339       ?do_pos_format@?$_Mpunct@_W@std@@MBE?AUpattern@money_base@2@XZ 10077339 f i libcpmt:wlocale.obj
 0001:00076348       ?do_positive_sign@?$_Mpunct@G@std@@MBE?AV?$basic_string@GU?$char_traits@G@std@@V?$allocator@G@2@@2@XZ 10077348 f i libcpmt:wlocale.obj
 0001:0007635e       ?do_positive_sign@?$_Mpunct@_W@std@@MBE?AV?$basic_string@_WU?$char_traits@_W@std@@V?$allocator@_W@2@@2@XZ 1007735e f i libcpmt:wlocale.obj
 0001:00076374       ?do_put@?$money_put@GV?$ostreambuf_iterator@GU?$char_traits@G@std@@@std@@@std@@MBE?AV?$ostreambuf_iterator@GU?$char_traits@G@std@@@2@V32@_NAAVios_base@2@GABV?$basic_string@GU?$char_traits@G@std@@V?$allocator@G@2@@2@@Z 10077374 f i libcpmt:wlocale.obj
 0001:000764a5       ?do_put@?$money_put@GV?$ostreambuf_iterator@GU?$char_traits@G@std@@@std@@@std@@MBE?AV?$ostreambuf_iterator@GU?$char_traits@G@std@@@2@V32@_NAAVios_base@2@GO@Z 100774a5 f i libcpmt:wlocale.obj
 0001:0007660e       ?do_put@?$money_put@_WV?$ostreambuf_iterator@_WU?$char_traits@_W@std@@@std@@@std@@MBE?AV?$ostreambuf_iterator@_WU?$char_traits@_W@std@@@2@V32@_NAAVios_base@2@_WABV?$basic_string@_WU?$char_traits@_W@std@@V?$allocator@_W@2@@2@@Z 1007760e f i libcpmt:wlocale.obj
 0001:0007673f       ?do_put@?$money_put@_WV?$ostreambuf_iterator@_WU?$char_traits@_W@std@@@std@@@std@@MBE?AV?$ostreambuf_iterator@_WU?$char_traits@_W@std@@@2@V32@_NAAVios_base@2@_WO@Z 1007773f f i libcpmt:wlocale.obj
 0001:000768a8       ?do_put@?$num_put@GV?$ostreambuf_iterator@GU?$char_traits@G@std@@@std@@@std@@MBE?AV?$ostreambuf_iterator@GU?$char_traits@G@std@@@2@V32@AAVios_base@2@GJ@Z 100778a8 f i libcpmt:wlocale.obj
 0001:00076913       ?do_put@?$num_put@GV?$ostreambuf_iterator@GU?$char_traits@G@std@@@std@@@std@@MBE?AV?$ostreambuf_iterator@GU?$char_traits@G@std@@@2@V32@AAVios_base@2@GK@Z 10077913 f i libcpmt:wlocale.obj
 0001:0007697e       ?do_put@?$num_put@GV?$ostreambuf_iterator@GU?$char_traits@G@std@@@std@@@std@@MBE?AV?$ostreambuf_iterator@GU?$char_traits@G@std@@@2@V32@AAVios_base@2@GN@Z 1007797e f i libcpmt:wlocale.obj
 0001:00076bab       ?do_put@?$num_put@GV?$ostreambuf_iterator@GU?$char_traits@G@std@@@std@@@std@@MBE?AV?$ostreambuf_iterator@GU?$char_traits@G@std@@@2@V32@AAVios_base@2@GO@Z 10077bab f i libcpmt:wlocale.obj
 0001:00076dd8       ?do_put@?$num_put@GV?$ostreambuf_iterator@GU?$char_traits@G@std@@@std@@@std@@MBE?AV?$ostreambuf_iterator@GU?$char_traits@G@std@@@2@V32@AAVios_base@2@GPBX@Z 10077dd8 f i libcpmt:wlocale.obj
 0001:00076e33       ?do_put@?$num_put@GV?$ostreambuf_iterator@GU?$char_traits@G@std@@@std@@@std@@MBE?AV?$ostreambuf_iterator@GU?$char_traits@G@std@@@2@V32@AAVios_base@2@G_J@Z 10077e33 f i libcpmt:wlocale.obj
 0001:00076ea1       ?do_put@?$num_put@GV?$ostreambuf_iterator@GU?$char_traits@G@std@@@std@@@std@@MBE?AV?$ostreambuf_iterator@GU?$char_traits@G@std@@@2@V32@AAVios_base@2@G_K@Z 10077ea1 f i libcpmt:wlocale.obj
 0001:00076f0f       ?do_put@?$num_put@GV?$ostreambuf_iterator@GU?$char_traits@G@std@@@std@@@std@@MBE?AV?$ostreambuf_iterator@GU?$char_traits@G@std@@@2@V32@AAVios_base@2@G_N@Z 10077f0f f i libcpmt:wlocale.obj
 0001:0007711d       ?do_put@?$num_put@_WV?$ostreambuf_iterator@_WU?$char_traits@_W@std@@@std@@@std@@MBE?AV?$ostreambuf_iterator@_WU?$char_traits@_W@std@@@2@V32@AAVios_base@2@_WJ@Z 1007811d f i libcpmt:wlocale.obj
 0001:00077188       ?do_put@?$num_put@_WV?$ostreambuf_iterator@_WU?$char_traits@_W@std@@@std@@@std@@MBE?AV?$ostreambuf_iterator@_WU?$char_traits@_W@std@@@2@V32@AAVios_base@2@_WK@Z 10078188 f i libcpmt:wlocale.obj
 0001:000771f3       ?do_put@?$num_put@_WV?$ostreambuf_iterator@_WU?$char_traits@_W@std@@@std@@@std@@MBE?AV?$ostreambuf_iterator@_WU?$char_traits@_W@std@@@2@V32@AAVios_base@2@_WN@Z 100781f3 f i libcpmt:wlocale.obj
 0001:00077420       ?do_put@?$num_put@_WV?$ostreambuf_iterator@_WU?$char_traits@_W@std@@@std@@@std@@MBE?AV?$ostreambuf_iterator@_WU?$char_traits@_W@std@@@2@V32@AAVios_base@2@_WO@Z 10078420 f i libcpmt:wlocale.obj
 0001:0007764d       ?do_put@?$num_put@_WV?$ostreambuf_iterator@_WU?$char_traits@_W@std@@@std@@@std@@MBE?AV?$ostreambuf_iterator@_WU?$char_traits@_W@std@@@2@V32@AAVios_base@2@_WPBX@Z 1007864d f i libcpmt:wlocale.obj
 0001:000776a8       ?do_put@?$num_put@_WV?$ostreambuf_iterator@_WU?$char_traits@_W@std@@@std@@@std@@MBE?AV?$ostreambuf_iterator@_WU?$char_traits@_W@std@@@2@V32@AAVios_base@2@_W_J@Z 100786a8 f i libcpmt:wlocale.obj
 0001:00077716       ?do_put@?$num_put@_WV?$ostreambuf_iterator@_WU?$char_traits@_W@std@@@std@@@std@@MBE?AV?$ostreambuf_iterator@_WU?$char_traits@_W@std@@@2@V32@AAVios_base@2@_W_K@Z 10078716 f i libcpmt:wlocale.obj
 0001:00077784       ?do_put@?$num_put@_WV?$ostreambuf_iterator@_WU?$char_traits@_W@std@@@std@@@std@@MBE?AV?$ostreambuf_iterator@_WU?$char_traits@_W@std@@@2@V32@AAVios_base@2@_W_N@Z 10078784 f i libcpmt:wlocale.obj
 0001:00077992       ?do_put@?$time_put@GV?$ostreambuf_iterator@GU?$char_traits@G@std@@@std@@@std@@MBE?AV?$ostreambuf_iterator@GU?$char_traits@G@std@@@2@V32@AAVios_base@2@GPBUtm@@DD@Z 10078992 f i libcpmt:wlocale.obj
 0001:00077b9b       ?do_put@?$time_put@_WV?$ostreambuf_iterator@_WU?$char_traits@_W@std@@@std@@@std@@MBE?AV?$ostreambuf_iterator@_WU?$char_traits@_W@std@@@2@V32@AAVios_base@2@_WPBUtm@@DD@Z 10078b9b f i libcpmt:wlocale.obj
 0001:00077da4       ?do_scan_is@?$ctype@G@std@@MBEPBGFPBG0@Z 10078da4 f i libcpmt:wlocale.obj
 0001:00077de1       ?do_scan_is@?$ctype@_W@std@@MBEPB_WFPB_W0@Z 10078de1 f i libcpmt:wlocale.obj
 0001:00077e1e       ?do_scan_not@?$ctype@G@std@@MBEPBGFPBG0@Z 10078e1e f i libcpmt:wlocale.obj
 0001:00077e5b       ?do_scan_not@?$ctype@_W@std@@MBEPB_WFPB_W0@Z 10078e5b f i libcpmt:wlocale.obj
 0001:00077e98       ?do_thousands_sep@?$_Mpunct@G@std@@MBEGXZ 10078e98 f i libcpmt:wlocale.obj
 0001:00077e9d       ?do_thousands_sep@?$_Mpunct@_W@std@@MBE_WXZ 10078e9d f i libcpmt:wlocale.obj
 0001:00077ea2       ?do_thousands_sep@?$numpunct@G@std@@MBEGXZ 10078ea2 f i libcpmt:wlocale.obj
 0001:00077ea7       ?do_thousands_sep@?$numpunct@_W@std@@MBE_WXZ 10078ea7 f i libcpmt:wlocale.obj
 0001:00077eac       ?do_tolower@?$ctype@G@std@@MBEGG@Z 10078eac f i libcpmt:wlocale.obj
 0001:00077ec1       ?do_tolower@?$ctype@G@std@@MBEPBGPAGPBG@Z 10078ec1 f i libcpmt:wlocale.obj
 0001:00077ef0       ?do_tolower@?$ctype@_W@std@@MBEPB_WPA_WPB_W@Z 10078ef0 f i libcpmt:wlocale.obj
 0001:00077f1f       ?do_tolower@?$ctype@_W@std@@MBE_W_W@Z 10078f1f f i libcpmt:wlocale.obj
 0001:00077f34       ?do_toupper@?$ctype@G@std@@MBEGG@Z 10078f34 f i libcpmt:wlocale.obj
 0001:00077f49       ?do_toupper@?$ctype@G@std@@MBEPBGPAGPBG@Z 10078f49 f i libcpmt:wlocale.obj
 0001:00077f78       ?do_toupper@?$ctype@_W@std@@MBEPB_WPA_WPB_W@Z 10078f78 f i libcpmt:wlocale.obj
 0001:00077fa7       ?do_toupper@?$ctype@_W@std@@MBE_W_W@Z 10078fa7 f i libcpmt:wlocale.obj
 0001:00077fbc       ?do_transform@?$collate@G@std@@MBE?AV?$basic_string@GU?$char_traits@G@std@@V?$allocator@G@2@@2@PBG0@Z 10078fbc f i libcpmt:wlocale.obj
 0001:0007803c       ?do_transform@?$collate@_W@std@@MBE?AV?$basic_string@_WU?$char_traits@_W@std@@V?$allocator@_W@2@@2@PB_W0@Z 1007903c f i libcpmt:wlocale.obj
 0001:000780bc       ?do_truename@?$numpunct@G@std@@MBE?AV?$basic_string@GU?$char_traits@G@std@@V?$allocator@G@2@@2@XZ 100790bc f i libcpmt:wlocale.obj
 0001:000780d2       ?do_truename@?$numpunct@_W@std@@MBE?AV?$basic_string@_WU?$char_traits@_W@std@@V?$allocator@_W@2@@2@XZ 100790d2 f i libcpmt:wlocale.obj
 0001:000780e8       ?do_unshift@?$codecvt@GDU_Mbstatet@@@std@@MBEHAAU_Mbstatet@@PAD1AAPAD@Z 100790e8 f i libcpmt:wlocale.obj
 0001:00078178       ?do_unshift@?$codecvt@_WDU_Mbstatet@@@std@@MBEHAAU_Mbstatet@@PAD1AAPAD@Z 10079178 f i libcpmt:wlocale.obj
 0001:00078208       ?do_widen@?$ctype@G@std@@MBEGD@Z 10079208 f i libcpmt:wlocale.obj
 0001:00078211       ?do_widen@?$ctype@G@std@@MBEPBDPBD0PAG@Z 10079211 f i libcpmt:wlocale.obj
 0001:00078244       ?do_widen@?$ctype@_W@std@@MBEPBDPBD0PA_W@Z 10079244 f i libcpmt:wlocale.obj
 0001:00078277       ?do_widen@?$ctype@_W@std@@MBE_WD@Z 10079277 f i libcpmt:wlocale.obj
 0001:00078280       ?empty@?$basic_string@GU?$char_traits@G@std@@V?$allocator@G@2@@std@@QBE_NXZ 10079280 f i libcpmt:wlocale.obj
 0001:00078288       ?empty@?$basic_string@_WU?$char_traits@_W@std@@V?$allocator@_W@2@@std@@QBE_NXZ 10079288 f i libcpmt:wlocale.obj
 0001:00078290       ?end@?$basic_string@GU?$char_traits@G@std@@V?$allocator@G@2@@std@@QAE?AV?$_String_iterator@V?$_String_val@U?$_Simple_types@G@std@@@std@@@2@XZ 10079290 f i libcpmt:wlocale.obj
 0001:000782ac       ?end@?$basic_string@_WU?$char_traits@_W@std@@V?$allocator@_W@2@@std@@QAE?AV?$_String_iterator@V?$_String_val@U?$_Simple_types@_W@std@@@std@@@2@XZ 100792ac f i libcpmt:wlocale.obj
 0001:000782c8       ?eof@?$_WChar_traits@G@std@@SAGXZ 100792c8 f i libcpmt:wlocale.obj
 0001:000782ce       ?eof@?$_WChar_traits@_W@std@@SAGXZ 100792ce f i libcpmt:wlocale.obj
 0001:000782d4       ?eq_int_type@?$_WChar_traits@G@std@@SA_NGG@Z 100792d4 f i libcpmt:wlocale.obj
 0001:000782e4       ?eq_int_type@?$_WChar_traits@_W@std@@SA_NGG@Z 100792e4 f i libcpmt:wlocale.obj
 0001:000782f4       ?equal@?$istreambuf_iterator@GU?$char_traits@G@std@@@std@@QBE_NABV12@@Z 100792f4 f i libcpmt:wlocale.obj
 0001:0007832e       ?equal@?$istreambuf_iterator@_WU?$char_traits@_W@std@@@std@@QBE_NABV12@@Z 1007932e f i libcpmt:wlocale.obj
 0001:00078368       ?erase@?$basic_string@DU?$char_traits@D@std@@V?$allocator@D@2@@std@@QAEAAV12@I@Z 10079368 f i libcpmt:wlocale.obj
 0001:00078389       ?erase@?$basic_string@GU?$char_traits@G@std@@V?$allocator@G@2@@std@@QAEAAV12@I@Z 10079389 f i libcpmt:wlocale.obj
 0001:000783aa       ?erase@?$basic_string@_WU?$char_traits@_W@std@@V?$allocator@_W@2@@std@@QAEAAV12@I@Z 100793aa f i libcpmt:wlocale.obj
 0001:000783cb       ?falsename@?$numpunct@G@std@@QBE?AV?$basic_string@GU?$char_traits@G@std@@V?$allocator@G@2@@2@XZ 100793cb f i libcpmt:wlocale.obj
 0001:000783f0       ?falsename@?$numpunct@_W@std@@QBE?AV?$basic_string@_WU?$char_traits@_W@std@@V?$allocator@_W@2@@2@XZ 100793f0 f i libcpmt:wlocale.obj
 0001:00078415       ?frac_digits@?$_Mpunct@G@std@@QBEHXZ 10079415 f i libcpmt:wlocale.obj
 0001:0007842d       ?frac_digits@?$_Mpunct@_W@std@@QBEHXZ 1007942d f i libcpmt:wlocale.obj
 0001:00078445       ?get_monthname@?$time_get@GV?$istreambuf_iterator@GU?$char_traits@G@std@@@std@@@std@@QBE?AV?$istreambuf_iterator@GU?$char_traits@G@std@@@2@V32@0AAVios_base@2@AAHPAUtm@@@Z 10079445 f i libcpmt:wlocale.obj
 0001:0007847d       ?get_monthname@?$time_get@_WV?$istreambuf_iterator@_WU?$char_traits@_W@std@@@std@@@std@@QBE?AV?$istreambuf_iterator@_WU?$char_traits@_W@std@@@2@V32@0AAVios_base@2@AAHPAUtm@@@Z 1007947d f i libcpmt:wlocale.obj
 0001:000784b5       ?get_weekday@?$time_get@GV?$istreambuf_iterator@GU?$char_traits@G@std@@@std@@@std@@QBE?AV?$istreambuf_iterator@GU?$char_traits@G@std@@@2@V32@0AAVios_base@2@AAHPAUtm@@@Z 100794b5 f i libcpmt:wlocale.obj
 0001:000784ed       ?get_weekday@?$time_get@_WV?$istreambuf_iterator@_WU?$char_traits@_W@std@@@std@@@std@@QBE?AV?$istreambuf_iterator@_WU?$char_traits@_W@std@@@2@V32@0AAVios_base@2@AAHPAUtm@@@Z 100794ed f i libcpmt:wlocale.obj
 0001:00078525       ?get_year@?$time_get@GV?$istreambuf_iterator@GU?$char_traits@G@std@@@std@@@std@@QBE?AV?$istreambuf_iterator@GU?$char_traits@G@std@@@2@V32@0AAVios_base@2@AAHPAUtm@@@Z 10079525 f i libcpmt:wlocale.obj
 0001:0007855d       ?get_year@?$time_get@_WV?$istreambuf_iterator@_WU?$char_traits@_W@std@@@std@@@std@@QBE?AV?$istreambuf_iterator@_WU?$char_traits@_W@std@@@2@V32@0AAVios_base@2@AAHPAUtm@@@Z 1007955d f i libcpmt:wlocale.obj
 0001:00078595       ?gptr@?$basic_streambuf@GU?$char_traits@G@std@@@std@@IBEPAGXZ 10079595 f i libcpmt:wlocale.obj
 0001:0007859b       ?gptr@?$basic_streambuf@_WU?$char_traits@_W@std@@@std@@IBEPA_WXZ 1007959b f i libcpmt:wlocale.obj
 0001:000785a1       ?grouping@?$_Mpunct@G@std@@QBE?AV?$basic_string@DU?$char_traits@D@std@@V?$allocator@D@2@@2@XZ 100795a1 f i libcpmt:wlocale.obj
 0001:000785c6       ?grouping@?$_Mpunct@_W@std@@QBE?AV?$basic_string@DU?$char_traits@D@std@@V?$allocator@D@2@@2@XZ 100795c6 f i libcpmt:wlocale.obj
 0001:000785eb       ?grouping@?$numpunct@G@std@@QBE?AV?$basic_string@DU?$char_traits@D@std@@V?$allocator@D@2@@2@XZ 100795eb f i libcpmt:wlocale.obj
 0001:00078610       ?grouping@?$numpunct@_W@std@@QBE?AV?$basic_string@DU?$char_traits@D@std@@V?$allocator@D@2@@2@XZ 10079610 f i libcpmt:wlocale.obj
 0001:00078635       ?insert@?$basic_string@GU?$char_traits@G@std@@V?$allocator@G@2@@std@@QAEAAV12@IIG@Z 10079635 f i libcpmt:wlocale.obj
 0001:000786ba       ?insert@?$basic_string@_WU?$char_traits@_W@std@@V?$allocator@_W@2@@std@@QAEAAV12@II_W@Z 100796ba f i libcpmt:wlocale.obj
 0001:0007873f       ?iostream_category@std@@YAABVerror_category@1@XZ 1007973f f i libcpmt:wlocale.obj
 0001:00078745       ?is@?$ctype@G@std@@QBE_NFG@Z 10079745 f i libcpmt:wlocale.obj
 0001:00078769       ?is@?$ctype@_W@std@@QBE_NF_W@Z 10079769 f i libcpmt:wlocale.obj
 0001:0007878d       ?length@?$_Char_traits@GG@std@@SAIPBG@Z 1007978d f i libcpmt:wlocale.obj
 0001:000787a4       ?length@?$_WChar_traits@G@std@@SAIPBG@Z 100797a4 f i libcpmt:wlocale.obj
 0001:000787be       ?length@?$_WChar_traits@_W@std@@SAIPB_W@Z 100797be f i libcpmt:wlocale.obj
 0001:000787d8       ?max_size@?$_Default_allocator_traits@V?$allocator@G@std@@@std@@SAIABV?$allocator@G@2@@Z 100797d8 f i libcpmt:wlocale.obj
 0001:000787de       ?max_size@?$_Default_allocator_traits@V?$allocator@_W@std@@@std@@SAIABV?$allocator@_W@2@@Z 100797de f i libcpmt:wlocale.obj
 0001:000787e4       ?max_size@?$basic_string@GU?$char_traits@G@std@@V?$allocator@G@2@@std@@QBEIXZ 100797e4 f i libcpmt:wlocale.obj
 0001:000787ea       ?max_size@?$basic_string@_WU?$char_traits@_W@std@@V?$allocator@_W@2@@std@@QBEIXZ 100797ea f i libcpmt:wlocale.obj
 0001:000787f0       ?message@error_code@std@@QBE?AV?$basic_string@DU?$char_traits@D@std@@V?$allocator@D@2@@2@XZ 100797f0 f i libcpmt:wlocale.obj
 0001:00078818       ?move@?$_Char_traits@GG@std@@SAPAGQAGQBGI@Z 10079818 f i libcpmt:wlocale.obj
 0001:00078834       ?move@?$_Char_traits@_WG@std@@SAPA_WQA_WQB_WI@Z 10079834 f i libcpmt:wlocale.obj
 0001:00078850       ?name@locale@std@@QBE?AV?$basic_string@DU?$char_traits@D@std@@V?$allocator@D@2@@2@XZ 10079850 f i libcpmt:wlocale.obj
 0001:00078965       ?narrow@?$ctype@G@std@@QBEDGD@Z 10079965 f i libcpmt:wlocale.obj
 0001:00078989       ?narrow@?$ctype@_W@std@@QBED_WD@Z 10079989 f i libcpmt:wlocale.obj
 0001:000789ad       ?neg_format@?$_Mpunct@G@std@@QBE?AUpattern@money_base@2@XZ 100799ad f i libcpmt:wlocale.obj
 0001:000789d1       ?neg_format@?$_Mpunct@_W@std@@QBE?AUpattern@money_base@2@XZ 100799d1 f i libcpmt:wlocale.obj
 0001:000789f5       ?negative_sign@?$_Mpunct@G@std@@QBE?AV?$basic_string@GU?$char_traits@G@std@@V?$allocator@G@2@@2@XZ 100799f5 f i libcpmt:wlocale.obj
 0001:00078a1a       ?negative_sign@?$_Mpunct@_W@std@@QBE?AV?$basic_string@_WU?$char_traits@_W@std@@V?$allocator@_W@2@@2@XZ 10079a1a f i libcpmt:wlocale.obj
 0001:00078a3f       ?pos_format@?$_Mpunct@G@std@@QBE?AUpattern@money_base@2@XZ 10079a3f f i libcpmt:wlocale.obj
 0001:00078a63       ?pos_format@?$_Mpunct@_W@std@@QBE?AUpattern@money_base@2@XZ 10079a63 f i libcpmt:wlocale.obj
 0001:00078a87       ?positive_sign@?$_Mpunct@G@std@@QBE?AV?$basic_string@GU?$char_traits@G@std@@V?$allocator@G@2@@2@XZ 10079a87 f i libcpmt:wlocale.obj
 0001:00078aac       ?positive_sign@?$_Mpunct@_W@std@@QBE?AV?$basic_string@_WU?$char_traits@_W@std@@V?$allocator@_W@2@@2@XZ 10079aac f i libcpmt:wlocale.obj
 0001:00078ad1       ?push_back@?$basic_string@GU?$char_traits@G@std@@V?$allocator@G@2@@std@@QAEXG@Z 10079ad1 f i libcpmt:wlocale.obj
 0001:00078b1c       ?push_back@?$basic_string@_WU?$char_traits@_W@std@@V?$allocator@_W@2@@std@@QAEX_W@Z 10079b1c f i libcpmt:wlocale.obj
 0001:00078b67       ?rdstate@ios_base@std@@QBEHXZ 10079b67 f i libcpmt:wlocale.obj
 0001:00078b6b       ?resize@?$basic_string@GU?$char_traits@G@std@@V?$allocator@G@2@@std@@QAEXIG@Z 10079b6b f i libcpmt:wlocale.obj
 0001:00078b8e       ?resize@?$basic_string@_WU?$char_traits@_W@std@@V?$allocator@_W@2@@std@@QAEXI_W@Z 10079b8e f i libcpmt:wlocale.obj
 0001:00078bb1       ?sbumpc@?$basic_streambuf@GU?$char_traits@G@std@@@std@@QAEGXZ 10079bb1 f i libcpmt:wlocale.obj
 0001:00078bed       ?sbumpc@?$basic_streambuf@_WU?$char_traits@_W@std@@@std@@QAEGXZ 10079bed f i libcpmt:wlocale.obj
 0001:00078c29       ?select_on_container_copy_construction@?$_Default_allocator_traits@V?$allocator@D@std@@@std@@SA?AV?$allocator@D@2@ABV32@@Z 10079c29 f i libcpmt:wlocale.obj
 0001:00078c31       ?select_on_container_copy_construction@?$_Default_allocator_traits@V?$allocator@G@std@@@std@@SA?AV?$allocator@G@2@ABV32@@Z 10079c31 f i libcpmt:wlocale.obj
 0001:00078c39       ?select_on_container_copy_construction@?$_Default_allocator_traits@V?$allocator@_W@std@@@std@@SA?AV?$allocator@_W@2@ABV32@@Z 10079c39 f i libcpmt:wlocale.obj
 0001:00078c41       ?setstate@ios_base@std@@QAEXH@Z 10079c41 f i libcpmt:wlocale.obj
 0001:00078c56       ?sgetc@?$basic_streambuf@GU?$char_traits@G@std@@@std@@QAEGXZ 10079c56 f i libcpmt:wlocale.obj
 0001:00078c87       ?sgetc@?$basic_streambuf@_WU?$char_traits@_W@std@@@std@@QAEGXZ 10079c87 f i libcpmt:wlocale.obj
 0001:00078cb8       ?size@?$basic_string@GU?$char_traits@G@std@@V?$allocator@G@2@@std@@QBEIXZ 10079cb8 f i libcpmt:wlocale.obj
 0001:00078cbc       ?size@?$basic_string@_WU?$char_traits@_W@std@@V?$allocator@_W@2@@std@@QBEIXZ 10079cbc f i libcpmt:wlocale.obj
 0001:00078cc0       ?sputc@?$basic_streambuf@GU?$char_traits@G@std@@@std@@QAEGG@Z 10079cc0 f i libcpmt:wlocale.obj
 0001:00078d08       ?sputc@?$basic_streambuf@_WU?$char_traits@_W@std@@@std@@QAEG_W@Z 10079d08 f i libcpmt:wlocale.obj
 0001:00078d50       ?thousands_sep@?$_Mpunct@G@std@@QBEGXZ 10079d50 f i libcpmt:wlocale.obj
 0001:00078d68       ?thousands_sep@?$_Mpunct@_W@std@@QBE_WXZ 10079d68 f i libcpmt:wlocale.obj
 0001:00078d80       ?thousands_sep@?$numpunct@G@std@@QBEGXZ 10079d80 f i libcpmt:wlocale.obj
 0001:00078d98       ?thousands_sep@?$numpunct@_W@std@@QBE_WXZ 10079d98 f i libcpmt:wlocale.obj
 0001:00078db0       ?to_char_type@?$_WChar_traits@G@std@@SAGG@Z 10079db0 f i libcpmt:wlocale.obj
 0001:00078db9       ?to_char_type@?$_WChar_traits@_W@std@@SA_WG@Z 10079db9 f i libcpmt:wlocale.obj
 0001:00078dc2       ?to_int_type@?$_WChar_traits@G@std@@SAGG@Z 10079dc2 f i libcpmt:wlocale.obj
 0001:00078dcb       ?to_int_type@?$_WChar_traits@_W@std@@SAG_W@Z 10079dcb f i libcpmt:wlocale.obj
 0001:00078dd4       ?tolower@?$ctype@G@std@@QBEGG@Z 10079dd4 f i libcpmt:wlocale.obj
 0001:00078df5       ?tolower@?$ctype@_W@std@@QBE_W_W@Z 10079df5 f i libcpmt:wlocale.obj
 0001:00078e16       ?truename@?$numpunct@G@std@@QBE?AV?$basic_string@GU?$char_traits@G@std@@V?$allocator@G@2@@2@XZ 10079e16 f i libcpmt:wlocale.obj
 0001:00078e3b       ?truename@?$numpunct@_W@std@@QBE?AV?$basic_string@_WU?$char_traits@_W@std@@V?$allocator@_W@2@@2@XZ 10079e3b f i libcpmt:wlocale.obj
 0001:00078e60       ?value@error_code@std@@QBEHXZ 10079e60 f i libcpmt:wlocale.obj
 0001:00078e63       ?value@error_condition@std@@QBEHXZ 10079e63 f i libcpmt:wlocale.obj
 0001:00078e66       ?widen@?$ctype@G@std@@QBEGD@Z 10079e66 f i libcpmt:wlocale.obj
 0001:00078e87       ?widen@?$ctype@G@std@@QBEPBDPBD0PAG@Z 10079e87 f i libcpmt:wlocale.obj
 0001:00078eae       ?widen@?$ctype@_W@std@@QBEPBDPBD0PA_W@Z 10079eae f i libcpmt:wlocale.obj
 0001:00078ed5       ?widen@?$ctype@_W@std@@QBE_WD@Z 10079ed5 f i libcpmt:wlocale.obj
 0001:00078ef6       _wmemcpy                   10079ef6 f i libcpmt:wlocale.obj
 0001:00078f0f       _wmemset                   10079f0f f i libcpmt:wlocale.obj
 0001:00078f39       ??$_Copy_unchecked@PADPADV?$ostreambuf_iterator@DU?$char_traits@D@std@@@std@@@std@@YA?AV?$ostreambuf_iterator@DU?$char_traits@D@std@@@0@PAD0V10@@Z 10079f39 f i libcpmt:xlocale.obj
 0001:00078f65       ??$_Find_elem@D$0M@@std@@YAIAAY0M@$$CBDD@Z 10079f65 f i libcpmt:xlocale.obj
 0001:00078f7e       ??$_Get_unwrapped@AAPAD@std@@YA?A_TAAPAD@Z 10079f7e f i libcpmt:xlocale.obj
 0001:00078f88       ??$_Get_unwrapped_n@V?$ostreambuf_iterator@DU?$char_traits@D@std@@@std@@H@std@@YA?A_T$$QAV?$ostreambuf_iterator@DU?$char_traits@D@std@@@0@H@Z 10079f88 f i libcpmt:xlocale.obj
 0001:00078f90       ??$_Getint_v2@V?$istreambuf_iterator@DU?$char_traits@D@std@@@std@@D@std@@YAHAAV?$istreambuf_iterator@DU?$char_traits@D@std@@@0@0HHAAH1ABV?$ctype@D@0@@Z 10079f90 f i libcpmt:xlocale.obj
 0001:000791bc       ??$_Getvals@D@?$time_get@DV?$istreambuf_iterator@DU?$char_traits@D@std@@@std@@@std@@IAEXDABV_Locinfo@1@@Z 1007a1bc f i libcpmt:xlocale.obj
 0001:00079227       ??$_Idl_distance@PADPAD@std@@YA?A_PABQAD0@Z 1007a227 f i libcpmt:xlocale.obj
 0001:00079236       ??$_LStrcoll@D@std@@YAHPBD000PBU_Collvec@@@Z 1007a236 f i libcpmt:xlocale.obj
 0001:0007923f       ??$_LStrxfrm@D@std@@YAIPAD0PBD1PBU_Collvec@@@Z 1007a23f f i libcpmt:xlocale.obj
 0001:00079248       ??$_Refancy@PAD$0A@@std@@YAPADPAD@Z 1007a248 f i libcpmt:xlocale.obj
 0001:00079250       ??$_Seek_wrapped@V?$ostreambuf_iterator@DU?$char_traits@D@std@@@std@@V12@@std@@YAXAAV?$ostreambuf_iterator@DU?$char_traits@D@std@@@0@$$QAV10@@Z 1007a250 f i libcpmt:xlocale.obj
 0001:00079265       ??$addressof@$$CBV?$moneypunct@D$00@std@@@std@@YAPBV?$moneypunct@D$00@0@ABV10@@Z 1007a265 f i libcpmt:xlocale.obj
 0001:0007926d       ??$addressof@$$CBV?$moneypunct@D$0A@@std@@@std@@YAPBV?$moneypunct@D$0A@@0@ABV10@@Z 1007a26d f i libcpmt:xlocale.obj
 0001:00079275       ??$addressof@V?$_String_val@U?$_Simple_types@D@std@@@std@@@std@@YAPAV?$_String_val@U?$_Simple_types@D@std@@@0@AAV10@@Z 1007a275 f i libcpmt:xlocale.obj
 0001:0007927d       ??$copy@PADV?$ostreambuf_iterator@DU?$char_traits@D@std@@@std@@@std@@YA?AV?$ostreambuf_iterator@DU?$char_traits@D@std@@@0@PAD0V10@@Z 1007a27d f i libcpmt:xlocale.obj
 0001:000792a9       ??$forward@V?$ostreambuf_iterator@DU?$char_traits@D@std@@@std@@@std@@YA$$QAV?$ostreambuf_iterator@DU?$char_traits@D@std@@@0@AAV10@@Z 1007a2a9 f i libcpmt:xlocale.obj
 0001:000792b1       ??$move@AAV?$ostreambuf_iterator@DU?$char_traits@D@std@@@std@@@std@@YA$$QAV?$ostreambuf_iterator@DU?$char_traits@D@std@@@0@AAV10@@Z 1007a2b1 f i libcpmt:xlocale.obj
 0001:000792b9       ??$use_facet@V?$collate@D@std@@@std@@YAABV?$collate@D@0@ABVlocale@0@@Z 1007a2b9 f i libcpmt:xlocale.obj
 0001:00079351       ??$use_facet@V?$messages@D@std@@@std@@YAABV?$messages@D@0@ABVlocale@0@@Z 1007a351 f i libcpmt:xlocale.obj
 0001:000793e9       ??$use_facet@V?$money_get@DV?$istreambuf_iterator@DU?$char_traits@D@std@@@std@@@std@@@std@@YAABV?$money_get@DV?$istreambuf_iterator@DU?$char_traits@D@std@@@std@@@0@ABVlocale@0@@Z 1007a3e9 f i libcpmt:xlocale.obj
 0001:00079481       ??$use_facet@V?$money_put@DV?$ostreambuf_iterator@DU?$char_traits@D@std@@@std@@@std@@@std@@YAABV?$money_put@DV?$ostreambuf_iterator@DU?$char_traits@D@std@@@std@@@0@ABVlocale@0@@Z 1007a481 f i libcpmt:xlocale.obj
 0001:00079519       ??$use_facet@V?$moneypunct@D$00@std@@@std@@YAABV?$moneypunct@D$00@0@ABVlocale@0@@Z 1007a519 f i libcpmt:xlocale.obj
 0001:000795b1       ??$use_facet@V?$moneypunct@D$0A@@std@@@std@@YAABV?$moneypunct@D$0A@@0@ABVlocale@0@@Z 1007a5b1 f i libcpmt:xlocale.obj
 0001:00079649       ??$use_facet@V?$time_get@DV?$istreambuf_iterator@DU?$char_traits@D@std@@@std@@@std@@@std@@YAABV?$time_get@DV?$istreambuf_iterator@DU?$char_traits@D@std@@@std@@@0@ABVlocale@0@@Z 1007a649 f i libcpmt:xlocale.obj
 0001:000796e1       ??$use_facet@V?$time_put@DV?$ostreambuf_iterator@DU?$char_traits@D@std@@@std@@@std@@@std@@YAABV?$time_put@DV?$ostreambuf_iterator@DU?$char_traits@D@std@@@std@@@0@ABVlocale@0@@Z 1007a6e1 f i libcpmt:xlocale.obj
 0001:00079779       ??0?$_Mpunct@D@std@@QAE@ABV_Locinfo@1@I_N1@Z 1007a779 f i libcpmt:xlocale.obj
 0001:000797b8       ??0?$_String_const_iterator@V?$_String_val@U?$_Simple_types@D@std@@@std@@@std@@QAE@PBDPBU_Container_base0@1@@Z 1007a7b8 f i libcpmt:xlocale.obj
 0001:000797c6       ??0?$_String_const_iterator@V?$_String_val@U?$_Simple_types@D@std@@@std@@@std@@QAE@XZ 1007a7c6 f i libcpmt:xlocale.obj
 0001:000797cf       ??0?$_String_iterator@V?$_String_val@U?$_Simple_types@D@std@@@std@@@std@@QAE@PBDPBU_Container_base0@1@@Z 1007a7cf f i libcpmt:xlocale.obj
 0001:000797dd       ??0?$collate@D@std@@QAE@ABV_Locinfo@1@I@Z 1007a7dd f i libcpmt:xlocale.obj
 0001:00079805       ??0?$messages@D@std@@QAE@ABV_Locinfo@1@I@Z 1007a805 f i libcpmt:xlocale.obj
 0001:0007981e       ??0?$money_get@DV?$istreambuf_iterator@DU?$char_traits@D@std@@@std@@@std@@QAE@ABV_Locinfo@1@I@Z 1007a81e f i libcpmt:xlocale.obj
 0001:00079837       ??0?$money_put@DV?$ostreambuf_iterator@DU?$char_traits@D@std@@@std@@@std@@QAE@ABV_Locinfo@1@I@Z 1007a837 f i libcpmt:xlocale.obj
 0001:00079850       ??0?$moneypunct@D$00@std@@QAE@ABV_Locinfo@1@I_N@Z 1007a850 f i libcpmt:xlocale.obj
 0001:00079877       ??0?$moneypunct@D$0A@@std@@QAE@ABV_Locinfo@1@I_N@Z 1007a877 f i libcpmt:xlocale.obj
 0001:0007989e       ??0?$time_get@DV?$istreambuf_iterator@DU?$char_traits@D@std@@@std@@@std@@QAE@ABV_Locinfo@1@I@Z 1007a89e f i libcpmt:xlocale.obj
 0001:000798d4       ??0?$time_put@DV?$ostreambuf_iterator@DU?$char_traits@D@std@@@std@@@std@@QAE@ABV_Locinfo@1@I@Z 1007a8d4 f i libcpmt:xlocale.obj
 0001:00079900       ??1?$_Mpunct@D@std@@MAE@XZ 1007a900 f i libcpmt:xlocale.obj
 0001:00079916       ??1?$_Tidy_guard@V?$_Mpunct@D@std@@@std@@QAE@XZ 1007a916 f i libcpmt:xlocale.obj
 0001:00079921       ??1?$_Tidy_guard@V?$time_get@DV?$istreambuf_iterator@DU?$char_traits@D@std@@@std@@@std@@@std@@QAE@XZ 1007a921 f i libcpmt:xlocale.obj
 0001:0007992c       ??1?$collate@D@std@@MAE@XZ 1007a92c f i libcpmt:xlocale.obj
 0001:00079946       ??1?$messages@D@std@@MAE@XZ 1007a946 f i libcpmt:xlocale.obj
 0001:0007994d       ??1?$money_get@DV?$istreambuf_iterator@DU?$char_traits@D@std@@@std@@@std@@MAE@XZ 1007a94d f i libcpmt:xlocale.obj
 0001:00079954       ??1?$money_put@DV?$ostreambuf_iterator@DU?$char_traits@D@std@@@std@@@std@@MAE@XZ 1007a954 f i libcpmt:xlocale.obj
 0001:0007995b       ??1?$moneypunct@D$00@std@@MAE@XZ 1007a95b f i libcpmt:xlocale.obj
 0001:00079971       ??1?$moneypunct@D$0A@@std@@MAE@XZ 1007a971 f i libcpmt:xlocale.obj
 0001:00079987       ??1?$time_get@DV?$istreambuf_iterator@DU?$char_traits@D@std@@@std@@@std@@MAE@XZ 1007a987 f i libcpmt:xlocale.obj
 0001:0007999d       ??1?$time_put@DV?$ostreambuf_iterator@DU?$char_traits@D@std@@@std@@@std@@MAE@XZ 1007a99d f i libcpmt:xlocale.obj
 0001:000799b7       ??8?$_String_const_iterator@V?$_String_val@U?$_Simple_types@D@std@@@std@@@std@@QBE_NABV01@@Z 1007a9b7 f i libcpmt:xlocale.obj
 0001:000799c8       ??D?$_String_const_iterator@V?$_String_val@U?$_Simple_types@D@std@@@std@@@std@@QBEABDXZ 1007a9c8 f i libcpmt:xlocale.obj
 0001:000799cb       ??D?$_String_iterator@V?$_String_val@U?$_Simple_types@D@std@@@std@@@std@@QBEAADXZ 1007a9cb f i libcpmt:xlocale.obj
 0001:000799ce       ??E?$_String_const_iterator@V?$_String_val@U?$_Simple_types@D@std@@@std@@@std@@QAEAAV01@XZ 1007a9ce f i libcpmt:xlocale.obj
 0001:000799d3       ??E?$_String_iterator@V?$_String_val@U?$_Simple_types@D@std@@@std@@@std@@QAEAAV01@XZ 1007a9d3 f i libcpmt:xlocale.obj
 0001:000799d8       ??E?$ostreambuf_iterator@DU?$char_traits@D@std@@@std@@QAEAAV01@H@Z 1007a9d8 f i libcpmt:xlocale.obj
 0001:000799dd       ??G?$_String_iterator@V?$_String_val@U?$_Simple_types@D@std@@@std@@@std@@QBE?AV01@H@Z 1007a9dd f i libcpmt:xlocale.obj
 0001:000799ee       ??H?$_String_iterator@V?$_String_val@U?$_Simple_types@D@std@@@std@@@std@@QBE?AV01@H@Z 1007a9ee f i libcpmt:xlocale.obj
 0001:000799ff       ??Y?$_String_const_iterator@V?$_String_val@U?$_Simple_types@D@std@@@std@@@std@@QAEAAV01@H@Z 1007a9ff f i libcpmt:xlocale.obj
 0001:00079a0d       ??Y?$_String_iterator@V?$_String_val@U?$_Simple_types@D@std@@@std@@@std@@QAEAAV01@H@Z 1007aa0d f i libcpmt:xlocale.obj
 0001:00079a1b       ??Z?$_String_const_iterator@V?$_String_val@U?$_Simple_types@D@std@@@std@@@std@@QAEAAV01@H@Z 1007aa1b f i libcpmt:xlocale.obj
 0001:00079a29       ??Z?$_String_iterator@V?$_String_val@U?$_Simple_types@D@std@@@std@@@std@@QAEAAV01@H@Z 1007aa29 f i libcpmt:xlocale.obj
 0001:00079a37       ??_E?$_Mpunct@D@std@@MAEPAXI@Z 1007aa37 f i libcpmt:xlocale.obj
 0001:00079a37       ??_G?$_Mpunct@D@std@@MAEPAXI@Z 1007aa37 f i libcpmt:xlocale.obj
 0001:00079a65       ??_E?$collate@D@std@@MAEPAXI@Z 1007aa65 f i libcpmt:xlocale.obj
 0001:00079a65       ??_G?$collate@D@std@@MAEPAXI@Z 1007aa65 f i libcpmt:xlocale.obj
 0001:00079a87       ??_E?$messages@D@std@@MAEPAXI@Z 1007aa87 f i libcpmt:xlocale.obj
 0001:00079a87       ??_G?$messages@D@std@@MAEPAXI@Z 1007aa87 f i libcpmt:xlocale.obj
 0001:00079aaa       ??_E?$money_get@DV?$istreambuf_iterator@DU?$char_traits@D@std@@@std@@@std@@MAEPAXI@Z 1007aaaa f i libcpmt:xlocale.obj
 0001:00079aaa       ??_G?$money_get@DV?$istreambuf_iterator@DU?$char_traits@D@std@@@std@@@std@@MAEPAXI@Z 1007aaaa f i libcpmt:xlocale.obj
 0001:00079acd       ??_E?$money_put@DV?$ostreambuf_iterator@DU?$char_traits@D@std@@@std@@@std@@MAEPAXI@Z 1007aacd f i libcpmt:xlocale.obj
 0001:00079acd       ??_G?$money_put@DV?$ostreambuf_iterator@DU?$char_traits@D@std@@@std@@@std@@MAEPAXI@Z 1007aacd f i libcpmt:xlocale.obj
 0001:00079af0       ??_E?$moneypunct@D$00@std@@MAEPAXI@Z 1007aaf0 f i libcpmt:xlocale.obj
 0001:00079af0       ??_G?$moneypunct@D$00@std@@MAEPAXI@Z 1007aaf0 f i libcpmt:xlocale.obj
 0001:00079b1e       ??_E?$moneypunct@D$0A@@std@@MAEPAXI@Z 1007ab1e f i libcpmt:xlocale.obj
 0001:00079b1e       ??_G?$moneypunct@D$0A@@std@@MAEPAXI@Z 1007ab1e f i libcpmt:xlocale.obj
 0001:00079b4c       ??_E?$time_get@DV?$istreambuf_iterator@DU?$char_traits@D@std@@@std@@@std@@MAEPAXI@Z 1007ab4c f i libcpmt:xlocale.obj
 0001:00079b4c       ??_G?$time_get@DV?$istreambuf_iterator@DU?$char_traits@D@std@@@std@@@std@@MAEPAXI@Z 1007ab4c f i libcpmt:xlocale.obj
 0001:00079b7a       ??_E?$time_put@DV?$ostreambuf_iterator@DU?$char_traits@D@std@@@std@@@std@@MAEPAXI@Z 1007ab7a f i libcpmt:xlocale.obj
 0001:00079b7a       ??_G?$time_put@DV?$ostreambuf_iterator@DU?$char_traits@D@std@@@std@@@std@@MAEPAXI@Z 1007ab7a f i libcpmt:xlocale.obj
 0001:00079b9c       ?_Compat@?$_String_const_iterator@V?$_String_val@U?$_Simple_types@D@std@@@std@@@std@@QBEXABV12@@Z 1007ab9c f i libcpmt:xlocale.obj
 0001:00079b9f       ?_Getcat@?$collate@D@std@@SAIPAPBVfacet@locale@2@PBV42@@Z 1007ab9f f i libcpmt:xlocale.obj
 0001:00079c44       ?_Getcat@?$messages@D@std@@SAIPAPBVfacet@locale@2@PBV42@@Z 1007ac44 f i libcpmt:xlocale.obj
 0001:00079caf       ?_Getcat@?$money_get@DV?$istreambuf_iterator@DU?$char_traits@D@std@@@std@@@std@@SAIPAPBVfacet@locale@2@PBV42@@Z 1007acaf f i libcpmt:xlocale.obj
 0001:00079d1a       ?_Getcat@?$money_put@DV?$ostreambuf_iterator@DU?$char_traits@D@std@@@std@@@std@@SAIPAPBVfacet@locale@2@PBV42@@Z 1007ad1a f i libcpmt:xlocale.obj
 0001:00079d85       ?_Getcat@?$moneypunct@D$00@std@@SAIPAPBVfacet@locale@2@PBV42@@Z 1007ad85 f i libcpmt:xlocale.obj
 0001:00079dfb       ?_Getcat@?$moneypunct@D$0A@@std@@SAIPAPBVfacet@locale@2@PBV42@@Z 1007adfb f i libcpmt:xlocale.obj
 0001:00079e72       ?_Getcat@?$time_get@DV?$istreambuf_iterator@DU?$char_traits@D@std@@@std@@@std@@SAIPAPBVfacet@locale@2@PBV42@@Z 1007ae72 f i libcpmt:xlocale.obj
 0001:00079ede       ?_Getcat@?$time_put@DV?$ostreambuf_iterator@DU?$char_traits@D@std@@@std@@@std@@SAIPAPBVfacet@locale@2@PBV42@@Z 1007aede f i libcpmt:xlocale.obj
 0001:00079f58       ?_Getfmt@?$time_get@DV?$istreambuf_iterator@DU?$char_traits@D@std@@@std@@@std@@IBE?AV?$istreambuf_iterator@DU?$char_traits@D@std@@@2@V32@0AAVios_base@2@AAHPAUtm@@PBD@Z 1007af58 f i libcpmt:xlocale.obj
 0001:0007a0aa       ?_Getint@?$time_get@DV?$istreambuf_iterator@DU?$char_traits@D@std@@@std@@@std@@ABAHAAV?$istreambuf_iterator@DU?$char_traits@D@std@@@2@0HHAAHABV?$ctype@D@2@@Z 1007b0aa f i libcpmt:xlocale.obj
 0001:0007a0ce       ?_Getmfld@?$money_get@DV?$istreambuf_iterator@DU?$char_traits@D@std@@@std@@@std@@ABE?AV?$basic_string@DU?$char_traits@D@std@@V?$allocator@D@2@@2@AAV?$istreambuf_iterator@DU?$char_traits@D@std@@@2@0_NAAVios_base@2@AAY0M@D@Z 1007b0ce f i libcpmt:xlocale.obj
 0001:0007add1       ?_Gettnames@_Locinfo@std@@QBE?AV_Timevec@2@XZ 1007bdd1 f i libcpmt:xlocale.obj
 0001:0007ade5       ?_Init@?$_Mpunct@D@std@@IAEXABV_Locinfo@2@_N@Z 1007bde5 f i libcpmt:xlocale.obj
 0001:0007af05       ?_Init@?$collate@D@std@@IAEXABV_Locinfo@2@@Z 1007bf05 f i libcpmt:xlocale.obj
 0001:0007af17       ?_Init@?$messages@D@std@@IAEXABV_Locinfo@2@@Z 1007bf17 f i libcpmt:xlocale.obj
 0001:0007af1a       ?_Init@?$money_get@DV?$istreambuf_iterator@DU?$char_traits@D@std@@@std@@@std@@IAEXABV_Locinfo@2@@Z 1007bf1a f i libcpmt:xlocale.obj
 0001:0007af1d       ?_Init@?$money_put@DV?$ostreambuf_iterator@DU?$char_traits@D@std@@@std@@@std@@IAEXABV_Locinfo@2@@Z 1007bf1d f i libcpmt:xlocale.obj
 0001:0007af20       ?_Init@?$time_get@DV?$istreambuf_iterator@DU?$char_traits@D@std@@@std@@@std@@IAEXABV_Locinfo@2@@Z 1007bf20 f i libcpmt:xlocale.obj
 0001:0007af58       ?_Init@?$time_put@DV?$ostreambuf_iterator@DU?$char_traits@D@std@@@std@@@std@@IAEXABV_Locinfo@2@@Z 1007bf58 f i libcpmt:xlocale.obj
 0001:0007af81       ?_Makexloc@_Locimp@locale@std@@CAXABV_Locinfo@3@HPAV123@PBV23@@Z 1007bf81 f   libcpmt:xlocale.obj
 0001:0007b280       ?_Makpat@?$_Mpunct@D@std@@AAEXAAUpattern@money_base@2@III@Z 1007c280 f i libcpmt:xlocale.obj
 0001:0007b2c1       ?_Put@?$money_put@DV?$ostreambuf_iterator@DU?$char_traits@D@std@@@std@@@std@@CA?AV?$ostreambuf_iterator@DU?$char_traits@D@std@@@2@V32@V?$_String_const_iterator@V?$_String_val@U?$_Simple_types@D@std@@@std@@@2@I@Z 1007c2c1 f i libcpmt:xlocale.obj
 0001:0007b2f8       ?_Putmfld@?$money_put@DV?$ostreambuf_iterator@DU?$char_traits@D@std@@@std@@@std@@ABE?AV?$ostreambuf_iterator@DU?$char_traits@D@std@@@2@V32@_NAAVios_base@2@D1V?$basic_string@DU?$char_traits@D@std@@V?$allocator@D@2@@2@D@Z 1007c2f8 f i libcpmt:xlocale.obj
 0001:0007b96a       ?_Rep@?$money_put@DV?$ostreambuf_iterator@DU?$char_traits@D@std@@@std@@@std@@CA?AV?$ostreambuf_iterator@DU?$char_traits@D@std@@@2@V32@DI@Z 1007c96a f i libcpmt:xlocale.obj
 0001:0007b996       ?_Tidy@?$_Mpunct@D@std@@AAEXXZ 1007c996 f i libcpmt:xlocale.obj
 0001:0007b9be       ?_Tidy@?$time_get@DV?$istreambuf_iterator@DU?$char_traits@D@std@@@std@@@std@@AAEXXZ 1007c9be f i libcpmt:xlocale.obj
 0001:0007b9de       ?begin@?$basic_string@DU?$char_traits@D@std@@V?$allocator@D@2@@std@@QAE?AV?$_String_iterator@V?$_String_val@U?$_Simple_types@D@std@@@std@@@2@XZ 1007c9de f i libcpmt:xlocale.obj
 0001:0007b9f2       ?curr_symbol@?$_Mpunct@D@std@@QBE?AV?$basic_string@DU?$char_traits@D@std@@V?$allocator@D@2@@2@XZ 1007c9f2 f i libcpmt:xlocale.obj
 0001:0007ba17       ?date_order@?$time_get@DV?$istreambuf_iterator@DU?$char_traits@D@std@@@std@@@std@@QBE?AW4dateorder@time_base@2@XZ 1007ca17 f i libcpmt:xlocale.obj
 0001:0007ba2f       ?decimal_point@?$_Mpunct@D@std@@QBEDXZ 1007ca2f f i libcpmt:xlocale.obj
 0001:0007ba47       ?do_close@?$messages@D@std@@MBEXH@Z 1007ca47 f i libcpmt:xlocale.obj
 0001:0007ba4a       ?do_compare@?$collate@D@std@@MBEHPBD000@Z 1007ca4a f i libcpmt:xlocale.obj
 0001:0007ba7a       ?do_curr_symbol@?$_Mpunct@D@std@@MBE?AV?$basic_string@DU?$char_traits@D@std@@V?$allocator@D@2@@2@XZ 1007ca7a f i libcpmt:xlocale.obj
 0001:0007ba90       ?do_date_order@?$time_get@DV?$istreambuf_iterator@DU?$char_traits@D@std@@@std@@@std@@MBE?AW4dateorder@time_base@2@XZ 1007ca90 f i libcpmt:xlocale.obj
 0001:0007ba94       ?do_decimal_point@?$_Mpunct@D@std@@MBEDXZ 1007ca94 f i libcpmt:xlocale.obj
 0001:0007ba98       ?do_frac_digits@?$_Mpunct@D@std@@MBEHXZ 1007ca98 f i libcpmt:xlocale.obj
 0001:0007ba9c       ?do_get@?$messages@D@std@@MBE?AV?$basic_string@DU?$char_traits@D@std@@V?$allocator@D@2@@2@HHHABV32@@Z 1007ca9c f i libcpmt:xlocale.obj
 0001:0007bab2       ?do_get@?$money_get@DV?$istreambuf_iterator@DU?$char_traits@D@std@@@std@@@std@@MBE?AV?$istreambuf_iterator@DU?$char_traits@D@std@@@2@V32@0_NAAVios_base@2@AAHAAO@Z 1007cab2 f i libcpmt:xlocale.obj
 0001:0007bb65       ?do_get@?$money_get@DV?$istreambuf_iterator@DU?$char_traits@D@std@@@std@@@std@@MBE?AV?$istreambuf_iterator@DU?$char_traits@D@std@@@2@V32@0_NAAVios_base@2@AAHAAV?$basic_string@DU?$char_traits@D@std@@V?$allocator@D@2@@2@@Z 1007cb65 f i libcpmt:xlocale.obj
 0001:0007bc35       ?do_get@?$time_get@DV?$istreambuf_iterator@DU?$char_traits@D@std@@@std@@@std@@MBE?AV?$istreambuf_iterator@DU?$char_traits@D@std@@@2@V32@0AAVios_base@2@AAHPAUtm@@DD@Z 1007cc35 f i libcpmt:xlocale.obj
 0001:0007c026       ?do_get_date@?$time_get@DV?$istreambuf_iterator@DU?$char_traits@D@std@@@std@@@std@@MBE?AV?$istreambuf_iterator@DU?$char_traits@D@std@@@2@V32@0AAVios_base@2@AAHPAUtm@@@Z 1007d026 f i libcpmt:xlocale.obj
 0001:0007c493       ?do_get_monthname@?$time_get@DV?$istreambuf_iterator@DU?$char_traits@D@std@@@std@@@std@@MBE?AV?$istreambuf_iterator@DU?$char_traits@D@std@@@2@V32@0AAVios_base@2@AAHPAUtm@@@Z 1007d493 f i libcpmt:xlocale.obj
 0001:0007c4d5       ?do_get_time@?$time_get@DV?$istreambuf_iterator@DU?$char_traits@D@std@@@std@@@std@@MBE?AV?$istreambuf_iterator@DU?$char_traits@D@std@@@2@V32@0AAVios_base@2@AAHPAUtm@@@Z 1007d4d5 f i libcpmt:xlocale.obj
 0001:0007c609       ?do_get_weekday@?$time_get@DV?$istreambuf_iterator@DU?$char_traits@D@std@@@std@@@std@@MBE?AV?$istreambuf_iterator@DU?$char_traits@D@std@@@2@V32@0AAVios_base@2@AAHPAUtm@@@Z 1007d609 f i libcpmt:xlocale.obj
 0001:0007c64b       ?do_get_year@?$time_get@DV?$istreambuf_iterator@DU?$char_traits@D@std@@@std@@@std@@MBE?AV?$istreambuf_iterator@DU?$char_traits@D@std@@@2@V32@0AAVios_base@2@AAHPAUtm@@@Z 1007d64b f i libcpmt:xlocale.obj
 0001:0007c6f3       ?do_grouping@?$_Mpunct@D@std@@MBE?AV?$basic_string@DU?$char_traits@D@std@@V?$allocator@D@2@@2@XZ 1007d6f3 f i libcpmt:xlocale.obj
 0001:0007c709       ?do_hash@?$collate@D@std@@MBEJPBD0@Z 1007d709 f i libcpmt:xlocale.obj
 0001:0007c727       ?do_neg_format@?$_Mpunct@D@std@@MBE?AUpattern@money_base@2@XZ 1007d727 f i libcpmt:xlocale.obj
 0001:0007c736       ?do_negative_sign@?$_Mpunct@D@std@@MBE?AV?$basic_string@DU?$char_traits@D@std@@V?$allocator@D@2@@2@XZ 1007d736 f i libcpmt:xlocale.obj
 0001:0007c74c       ?do_open@?$messages@D@std@@MBEHABV?$basic_string@DU?$char_traits@D@std@@V?$allocator@D@2@@2@ABVlocale@2@@Z 1007d74c f i libcpmt:xlocale.obj
 0001:0007c752       ?do_pos_format@?$_Mpunct@D@std@@MBE?AUpattern@money_base@2@XZ 1007d752 f i libcpmt:xlocale.obj
 0001:0007c761       ?do_positive_sign@?$_Mpunct@D@std@@MBE?AV?$basic_string@DU?$char_traits@D@std@@V?$allocator@D@2@@2@XZ 1007d761 f i libcpmt:xlocale.obj
 0001:0007c777       ?do_put@?$money_put@DV?$ostreambuf_iterator@DU?$char_traits@D@std@@@std@@@std@@MBE?AV?$ostreambuf_iterator@DU?$char_traits@D@std@@@2@V32@_NAAVios_base@2@DABV?$basic_string@DU?$char_traits@D@std@@V?$allocator@D@2@@2@@Z 1007d777 f i libcpmt:xlocale.obj
 0001:0007c8a6       ?do_put@?$money_put@DV?$ostreambuf_iterator@DU?$char_traits@D@std@@@std@@@std@@MBE?AV?$ostreambuf_iterator@DU?$char_traits@D@std@@@2@V32@_NAAVios_base@2@DO@Z 1007d8a6 f i libcpmt:xlocale.obj
 0001:0007ca0c       ?do_put@?$time_put@DV?$ostreambuf_iterator@DU?$char_traits@D@std@@@std@@@std@@MBE?AV?$ostreambuf_iterator@DU?$char_traits@D@std@@@2@V32@AAVios_base@2@DPBUtm@@DD@Z 1007da0c f i libcpmt:xlocale.obj
 0001:0007cbfd       ?do_thousands_sep@?$_Mpunct@D@std@@MBEDXZ 1007dbfd f i libcpmt:xlocale.obj
 0001:0007cc01       ?do_transform@?$collate@D@std@@MBE?AV?$basic_string@DU?$char_traits@D@std@@V?$allocator@D@2@@2@PBD0@Z 1007dc01 f i libcpmt:xlocale.obj
 0001:0007cc8d       ?end@?$basic_string@DU?$char_traits@D@std@@V?$allocator@D@2@@std@@QAE?AV?$_String_iterator@V?$_String_val@U?$_Simple_types@D@std@@@std@@@2@XZ 1007dc8d f i libcpmt:xlocale.obj
 0001:0007cca8       ?frac_digits@?$_Mpunct@D@std@@QBEHXZ 1007dca8 f i libcpmt:xlocale.obj
 0001:0007ccc0       ?get_monthname@?$time_get@DV?$istreambuf_iterator@DU?$char_traits@D@std@@@std@@@std@@QBE?AV?$istreambuf_iterator@DU?$char_traits@D@std@@@2@V32@0AAVios_base@2@AAHPAUtm@@@Z 1007dcc0 f i libcpmt:xlocale.obj
 0001:0007ccf8       ?get_weekday@?$time_get@DV?$istreambuf_iterator@DU?$char_traits@D@std@@@std@@@std@@QBE?AV?$istreambuf_iterator@DU?$char_traits@D@std@@@2@V32@0AAVios_base@2@AAHPAUtm@@@Z 1007dcf8 f i libcpmt:xlocale.obj
 0001:0007cd30       ?get_year@?$time_get@DV?$istreambuf_iterator@DU?$char_traits@D@std@@@std@@@std@@QBE?AV?$istreambuf_iterator@DU?$char_traits@D@std@@@2@V32@0AAVios_base@2@AAHPAUtm@@@Z 1007dd30 f i libcpmt:xlocale.obj
 0001:0007cd68       ?grouping@?$_Mpunct@D@std@@QBE?AV?$basic_string@DU?$char_traits@D@std@@V?$allocator@D@2@@2@XZ 1007dd68 f i libcpmt:xlocale.obj
 0001:0007cd8d       ?is@?$ctype@D@std@@QBE_NFD@Z 1007dd8d f i libcpmt:xlocale.obj
 0001:0007cda6       ?narrow@?$ctype@D@std@@QBEDDD@Z 1007dda6 f i libcpmt:xlocale.obj
 0001:0007cdca       ?neg_format@?$_Mpunct@D@std@@QBE?AUpattern@money_base@2@XZ 1007ddca f i libcpmt:xlocale.obj
 0001:0007cdee       ?negative_sign@?$_Mpunct@D@std@@QBE?AV?$basic_string@DU?$char_traits@D@std@@V?$allocator@D@2@@2@XZ 1007ddee f i libcpmt:xlocale.obj
 0001:0007ce13       ?pos_format@?$_Mpunct@D@std@@QBE?AUpattern@money_base@2@XZ 1007de13 f i libcpmt:xlocale.obj
 0001:0007ce37       ?positive_sign@?$_Mpunct@D@std@@QBE?AV?$basic_string@DU?$char_traits@D@std@@V?$allocator@D@2@@2@XZ 1007de37 f i libcpmt:xlocale.obj
 0001:0007ce5c       ?thousands_sep@?$_Mpunct@D@std@@QBEDXZ 1007de5c f i libcpmt:xlocale.obj
 0001:0007ce74       ?widen@?$ctype@D@std@@QBEDD@Z 1007de74 f i libcpmt:xlocale.obj
 0001:0007ce95       __Stolx                    1007de95 f   libcpmt:xstol.obj
 0001:0007cf48       __Stoul                    1007df48 f   libcpmt:xstoul.obj
 0001:0007cf60       __Stoulx                   1007df60 f   libcpmt:xstoul.obj
 0001:0007d0d4       __Stoll                    1007e0d4 f   libcpmt:xstoll.obj
 0001:0007d0ec       __Stollx                   1007e0ec f   libcpmt:xstoll.obj
 0001:0007d1cc       __Stoull                   1007e1cc f   libcpmt:xstoull.obj
 0001:0007d1e4       __Stoullx                  1007e1e4 f   libcpmt:xstoull.obj
 0001:0007d3e6       __Getcoll                  1007e3e6 f   libcpmt:xstrcoll.obj
 0001:0007d407       __Strcoll                  1007e407 f   libcpmt:xstrcoll.obj
 0001:0007d496       __Getdateorder             1007e496 f   libcpmt:xdateord.obj
 0001:0007d50a       __Mbrtowc                  1007e50a f   libcpmt:xmbtowc.obj
 0001:0007d693       __Wcscoll                  1007e693 f   libcpmt:xwcscoll.obj
 0001:0007d717       ??$?RE@__crt_internal_free_policy@@QBEXQBE@Z 1007e717 f i libcpmt:xwcsxfrm.obj
 0001:0007d727       ??0?$__crt_unique_heap_ptr@EU__crt_internal_free_policy@@@@QAE@QAE@Z 1007e727 f i libcpmt:xwcsxfrm.obj
 0001:0007d735       ??1?$__crt_unique_heap_ptr@EU__crt_internal_free_policy@@@@QAE@XZ 1007e735 f i libcpmt:xwcsxfrm.obj
 0001:0007d748       ??B?$__crt_unique_heap_ptr@EU__crt_internal_free_policy@@@@QBE_NXZ 1007e748 f i libcpmt:xwcsxfrm.obj
 0001:0007d74f       ?get@?$__crt_unique_heap_ptr@EU__crt_internal_free_policy@@@@QBEPAEXZ 1007e74f f i libcpmt:xwcsxfrm.obj
 0001:0007d752       ?is_valid@?$__crt_unique_heap_ptr@EU__crt_internal_free_policy@@@@QBE_NXZ 1007e752 f i libcpmt:xwcsxfrm.obj
 0001:0007d759       ?release@?$__crt_unique_heap_ptr@EU__crt_internal_free_policy@@@@QAEXXZ 1007e759 f i libcpmt:xwcsxfrm.obj
 0001:0007d76c       __Wcsxfrm                  1007e76c f   libcpmt:xwcsxfrm.obj
 0001:0007d833       __Getwctype                1007e833 f   libcpmt:xgetwctype.obj
 0001:0007d853       __Getwctypes               1007e853 f   libcpmt:xgetwctype.obj
 0001:0007d872       __Towlower                 1007e872 f   libcpmt:xtowlower.obj
 0001:0007d8d2       __Towupper                 1007e8d2 f   libcpmt:xtowupper.obj
 0001:0007d936       __Strxfrm                  1007e936 f   libcpmt:xstrxfrm.obj
 0001:0007d9e0       ___crtCompareStringA       1007e9e0 f   libcpmt:StlCompareStringA.obj
 0001:0007dc55       ___crtCompareStringW       1007ec55 f   libcpmt:StlCompareStringW.obj
 0001:0007dcba       ___crtLCMapStringW         1007ecba f   libcpmt:StlLCMapStringW.obj
 0001:0007dcf7       ??2@YAPAXI@Z               1007ecf7 f   LIBCMT:new_scalar.obj
 0001:0007dd27       ??3@YAXPAXI@Z              1007ed27 f   LIBCMT:delete_scalar_size.obj
 0001:0007dd35       @__security_check_cookie@4 1007ed35 f   LIBCMT:secchk.obj
 0001:0007dd50       ___vdecl_sinf4             1007ed50 f   LIBCMT:svml_ssinf4_dispatch.obj
 0001:0007dd70       ___libm_sse2_sincosf_      1007ed70 f   LIBCMT:svml_ssinf4_dispatch.obj
 0001:0007ddc0       ___libm_sse2_sincosf4_     1007edc0 f   LIBCMT:svml_ssinf4_dispatch.obj
 0001:0007ddd0       ??1type_info@@UAE@XZ       1007edd0 f   LIBCMT:std_type_info_static.obj
 0001:0007ddd7       ??_Etype_info@@UAEPAXI@Z   1007edd7 f i LIBCMT:std_type_info_static.obj
 0001:0007ddd7       ??_Gtype_info@@UAEPAXI@Z   1007edd7 f i LIBCMT:std_type_info_static.obj
 0001:0007ddfa       ??_V@YAXPAX@Z              1007edfa f   LIBCMT:delete_array.obj
 0001:0007ddff       ?configure_argv@__scrt_narrow_argv_policy@@SAHXZ 1007edff f i LIBCMT:utility.obj
 0001:0007de4e       ?initialize_environment@__scrt_narrow_environment_policy@@SAHXZ 1007ee4e f i LIBCMT:utility.obj
 0001:0007de86       _NtCurrentTeb              1007ee86 f i LIBCMT:utility.obj
 0001:0007de8d       ___scrt_acquire_startup_lock 1007ee8d f   LIBCMT:utility.obj
 0001:0007debf       ___scrt_dllmain_after_initialize_c 1007eebf f   LIBCMT:utility.obj
 0001:0007deea       ___scrt_dllmain_before_initialize_c 1007eeea f   LIBCMT:utility.obj
 0001:0007def8       ___scrt_dllmain_crt_thread_attach 1007eef8 f   LIBCMT:utility.obj
 0001:0007df17       ___scrt_dllmain_crt_thread_detach 1007ef17 f   LIBCMT:utility.obj
 0001:0007df24       ___scrt_dllmain_exception_filter 1007ef24 f   LIBCMT:utility.obj
 0001:0007df58       ___scrt_dllmain_uninitialize_c 1007ef58 f   LIBCMT:utility.obj
 0001:0007df7b       ___scrt_dllmain_uninitialize_critical 1007ef7b f   LIBCMT:utility.obj
 0001:0007df88       ___scrt_initialize_crt     1007ef88 f   LIBCMT:utility.obj
 0001:0007dfc1       ___scrt_initialize_onexit_tables 1007efc1 f   LIBCMT:utility.obj
 0001:0007e048       ___scrt_is_nonwritable_in_current_image 1007f048 f   LIBCMT:utility.obj
 0001:0007e0df       ___scrt_release_startup_lock 1007f0df f   LIBCMT:utility.obj
 0001:0007e0fc       ___scrt_uninitialize_crt   1007f0fc f   LIBCMT:utility.obj
 0001:0007e124       __onexit                   1007f124 f   LIBCMT:utility.obj
 0001:0007e152       _at_quick_exit             1007f152 f   LIBCMT:utility.obj
 0001:0007e175       _atexit                    1007f175 f   LIBCMT:utility.obj
 0001:0007e18a       ??_L@YGXPAXIHP6EX0@Z1@Z    1007f18a f   LIBCMT:ehvecctr.obj
 0001:0007e18f       ??_L@YGXPAXIIP6EX0@Z1@Z    1007f18f f   LIBCMT:ehvecctr.obj
 0001:0007e203       ??_M@YGXPAXIHP6EX0@Z@Z     1007f203 f   LIBCMT:ehvecdtr.obj
 0001:0007e208       ??_M@YGXPAXIIP6EX0@Z@Z     1007f208 f   LIBCMT:ehvecdtr.obj
 0001:0007e2bf       ?__ArrayUnwind@@YGXPAXIIP6EX0@Z@Z 1007f2bf f   LIBCMT:ehvecdtr.obj
 0001:0007e34f       ??_U@YAPAXI@Z              1007f34f f   LIBCMT:new_array.obj
 0001:0007e360       ___vdecl_sin2              1007f360 f   LIBCMT:svml_dsin2_dispatch.obj
 0001:0007e380       ___libm_sse2_sincos_       1007f380 f   LIBCMT:svml_dsin2_dispatch.obj
 0001:0007e3d0       __ftoui3                   1007f3d0 f   LIBCMT:ftol3.obj
 0001:0007e420       __ftoul3                   1007f420 f   LIBCMT:ftol3.obj
 0001:0007e490       __ftoul3_legacy            1007f490 f   LIBCMT:ftol3.obj
 0001:0007e4c0       __ftol3                    1007f4c0 f   LIBCMT:ftol3.obj
 0001:0007e530       __dtoui3                   1007f530 f   LIBCMT:ftol3.obj
 0001:0007e5b0       __dtoul3                   1007f5b0 f   LIBCMT:ftol3.obj
 0001:0007e660       __dtoul3_legacy            1007f660 f   LIBCMT:ftol3.obj
 0001:0007e690       __dtol3                    1007f690 f   LIBCMT:ftol3.obj
 0001:0007e740       __ultod3                   1007f740 f   LIBCMT:ftol3.obj
 0001:0007e790       __ltod3                    1007f790 f   LIBCMT:ftol3.obj
 0001:0007e7e0       __ultof3                   1007f7e0 f   LIBCMT:ftol3.obj
 0001:0007e860       __ltof3                    1007f860 f   LIBCMT:ftol3.obj
 0001:0007e8a6       ___isa_available_init      1007f8a6 f   LIBCMT:cpu_disp.obj
 0001:0007ebc0       __Init_thread_abort        1007fbc0 f   LIBCMT:thread_safe_statics.obj
 0001:0007ebee       __Init_thread_footer       1007fbee f   LIBCMT:thread_safe_statics.obj
 0001:0007ec3f       __Init_thread_header       1007fc3f f   LIBCMT:thread_safe_statics.obj
 0001:0007ec91       __Init_thread_lock         1007fc91 f   LIBCMT:thread_safe_statics.obj
 0001:0007ec9d       __Init_thread_notify       1007fc9d f   LIBCMT:thread_safe_statics.obj
 0001:0007eca9       __Init_thread_unlock       1007fca9 f   LIBCMT:thread_safe_statics.obj
 0001:0007ecb5       __Init_thread_wait_v2      1007fcb5 f   LIBCMT:thread_safe_statics.obj
 0001:0007ecd0       __aullshr                  1007fcd0 f   LIBCMT:ullshr.obj
 0001:0007ecf0       __alloca_probe             1007fcf0 f   LIBCMT:chkstk.obj
 0001:0007ecf0       __chkstk                   1007fcf0 f   LIBCMT:chkstk.obj
 0001:0007ed20       __allmul                   1007fd20 f   LIBCMT:llmul.obj
 0001:0007ed60       __allshl                   1007fd60 f   LIBCMT:llshl.obj
 0001:0007f0cc       __CRT_INIT@12              100800cc f   LIBCMT:dll_dllmain.obj
 0001:0007f0d5       __DllMainCRTStartup@12     100800d5 f   LIBCMT:dll_dllmain.obj
 0001:0007f0f8       __EH_epilog3               100800f8 f   LIBCMT:ehprolg3.obj
 0001:0007f10c       __EH_epilog3_GS            1008010c f   LIBCMT:ehprolg3.obj
 0001:0007f11b       __EH_epilog3_catch_GS      1008011b f   LIBCMT:ehprolg3.obj
 0001:0007f12a       __EH_prolog3               1008012a f   LIBCMT:ehprolg3.obj
 0001:0007f15d       __EH_prolog3_GS            1008015d f   LIBCMT:ehprolg3.obj
 0001:0007f193       __EH_prolog3_catch         10080193 f   LIBCMT:ehprolg3.obj
 0001:0007f1c9       __EH_prolog3_catch_GS      100801c9 f   LIBCMT:ehprolg3.obj
 0001:0007f202       @_guard_check_icall_nop@4  10080202 f i LIBCMT:guard_support.obj
 0001:0007f205       _ReadNoFence               10080205 f i LIBCMT:guard_support.obj
 0001:0007f20f       _ReadPointerNoFence        1008020f f i LIBCMT:guard_support.obj
 0001:0007f219       __InlineInterlockedExchangePointer 10080219 f i LIBCMT:guard_support.obj
 0001:0007f226       ___castguard_check_failure_debugbreak 10080226 f i LIBCMT:guard_support.obj
 0001:0007f241       ___castguard_check_failure_fastfail 10080241 f i LIBCMT:guard_support.obj
 0001:0007f260       ___castguard_check_failure_nop 10080260 f i LIBCMT:guard_support.obj
 0001:0007f263       ___castguard_check_failure_os_handled 10080263 f i LIBCMT:guard_support.obj
 0001:0007f29a       ___castguard_check_failure_user_handled 1008029a f i LIBCMT:guard_support.obj
 0001:0007f308       ___castguard_set_user_handler 10080308 f i LIBCMT:guard_support.obj
 0001:0007f317       ___castguard_slow_path_check_debugbreak 10080317 f i LIBCMT:guard_support.obj
 0001:0007f344       ___castguard_slow_path_check_fastfail 10080344 f i LIBCMT:guard_support.obj
 0001:0007f375       ___castguard_slow_path_check_nop 10080375 f i LIBCMT:guard_support.obj
 0001:0007f378       ___castguard_slow_path_check_os_handled 10080378 f i LIBCMT:guard_support.obj
 0001:0007f3b4       ___castguard_slow_path_check_user_handled 100803b4 f i LIBCMT:guard_support.obj
 0001:0007f415       __guard_icall_checks_enforced 10080415 f i LIBCMT:guard_support.obj
 0001:0007f430       __alloca_probe_16          10080430 f   LIBCMT:alloca16.obj
 0001:0007f446       __alloca_probe_8           10080446     LIBCMT:alloca16.obj
 0001:0007f460       __aulldiv                  10080460 f   LIBCMT:ulldiv.obj
 0001:0007f4c8       ?__scrt_throw_std_bad_alloc@@YAXXZ 100804c8 f   LIBCMT:throw_bad_alloc.obj
 0001:0007f4e5       ?__scrt_throw_std_bad_array_new_length@@YAXXZ 100804e5 f   LIBCMT:throw_bad_alloc.obj
 0001:0007f502       ??3@YAXPAX@Z               10080502 f   LIBCMT:delete_scalar.obj
 0001:0007f507       ___raise_securityfailure   10080507 f   LIBCMT:gs_report.obj
 0001:0007f52f       ___report_gsfailure        1008052f f   LIBCMT:gs_report.obj
 0001:0007f62a       ___report_rangecheckfailure 1008062a f   LIBCMT:gs_report.obj
 0001:0007f637       ___report_securityfailure  10080637 f   LIBCMT:gs_report.obj
 0001:0007f707       ___report_securityfailureEx 10080707 f   LIBCMT:gs_report.obj
 0001:0007f830       ___sse2_sinf4@@16          10080830 f   LIBCMT:svml_ssinf4_sse2.obj
 0001:0007f9f0       ___sse4_sinf4@@16          100809f0 f   LIBCMT:svml_ssinf4_sse4.obj
 0001:00080085       __get_startup_argv_mode    10081085 f   LIBCMT:argv_mode.obj
 0001:00080089       ___scrt_is_ucrt_dll_in_use 10081089 f   LIBCMT:ucrt_detection.obj
 0001:00080095       ___scrt_fastfail           10081095 f   LIBCMT:utility_desktop.obj
 0001:000801aa       ___scrt_get_show_window_mode 100811aa f   LIBCMT:utility_desktop.obj
 0001:000801da       ___scrt_initialize_mta     100811da f   LIBCMT:utility_desktop.obj
 0001:000801df       ___scrt_initialize_winrt   100811df f   LIBCMT:utility_desktop.obj
 0001:000801e2       ___scrt_is_managed_app     100811e2 f   LIBCMT:utility_desktop.obj
 0001:00080224       ___scrt_set_unhandled_exception_filter 10081224 f   LIBCMT:utility_desktop.obj
 0001:00080230       ___scrt_exe_initialize_mta 10081230 f   LIBCMT:utility_desktop.obj
 0001:00080230       ___scrt_stub_for_initialize_mta 10081230 f   LIBCMT:utility_desktop.obj
 0001:00080233       ___scrt_unhandled_exception_filter@4 10081233 f   LIBCMT:utility_desktop.obj
 0001:00080289       __crt_debugger_hook        10081289 f   LIBCMT:utility_desktop.obj
 0001:000802a0       __SEH_prolog4              100812a0 f   LIBCMT:sehprolg4.obj
 0001:000802f0       __SEH_epilog4              100812f0 f   LIBCMT:sehprolg4.obj
 0001:00080310       ___sse2_sin2@@16           10081310 f   LIBCMT:svml_dsin2_sse2.obj
 0001:00080900       ___sse4_sin2@@16           10081900 f   LIBCMT:svml_dsin2_sse4.obj
 0001:00080f2d       ___security_init_cookie    10081f2d f   LIBCMT:gs_support.obj
 0001:00080f78       _DllMain@12                10081f78 f   LIBCMT:dll_dllmain_stub.obj
 0001:00080f7e       ?__scrt_initialize_type_info@@YAXXZ 10081f7e f   LIBCMT:tncleanup.obj
 0001:00080f8a       ?__scrt_uninitialize_type_info@@YAXXZ 10081f8a f   LIBCMT:tncleanup.obj
 0001:00080f96       ___local_stdio_scanf_options 10081f96 f i LIBCMT:default_local_stdio_options.obj
 0001:00080f9c       ___scrt_initialize_default_local_stdio_options 10081f9c f   LIBCMT:default_local_stdio_options.obj
 0001:00080fb9       ___scrt_get_dyn_tls_init_callback 10081fb9 f   LIBCMT:dyn_tls_init.obj
 0001:00080fbf       __RTC_Initialize           10081fbf f   LIBCMT:initsect.obj
 0001:00080feb       __RTC_Terminate            10081feb f   LIBCMT:initsect.obj
 0001:00081020       ___common_sin_reduction_LA 10082020 f   LIBCMT:svml_dtrig.obj
 0001:000813b0       ___common_cos_reduction_LA 100823b0 f   LIBCMT:svml_dtrig.obj
 0001:000816c0       ___common_pi04_reduction_LA 100826c0 f   LIBCMT:svml_dtrig.obj
 0001:00081a00       ___common_ssin_cout_rare   10082a00 f   LIBCMT:svml_s_sin_cout.obj
 0001:00081a80       ___common_dsin_cout_rare   10082a80 f   LIBCMT:svml_d_sin_cout.obj
 0001:00081b00       ??$?RD@__crt_public_free_policy@@QBEXQBD@Z 10082b00 f i libvcruntime:std_exception.obj
 0001:00081b10       ??0?$__crt_unique_heap_ptr@DU__crt_public_free_policy@@@@QAE@QAD@Z 10082b10 f i libvcruntime:std_exception.obj
 0001:00081b1e       ??1?$__crt_unique_heap_ptr@DU__crt_public_free_policy@@@@QAE@XZ 10082b1e f i libvcruntime:std_exception.obj
 0001:00081b31       ??B?$__crt_unique_heap_ptr@DU__crt_public_free_policy@@@@QBE_NXZ 10082b31 f i libvcruntime:std_exception.obj
 0001:00081b38       ?detach@?$__crt_unique_heap_ptr@DU__crt_public_free_policy@@@@QAEPADXZ 10082b38 f i libvcruntime:std_exception.obj
 0001:00081b41       ?get@?$__crt_unique_heap_ptr@DU__crt_public_free_policy@@@@QBEPADXZ 10082b41 f i libvcruntime:std_exception.obj
 0001:00081b44       ?is_valid@?$__crt_unique_heap_ptr@DU__crt_public_free_policy@@@@QBE_NXZ 10082b44 f i libvcruntime:std_exception.obj
 0001:00081b4b       ?release@?$__crt_unique_heap_ptr@DU__crt_public_free_policy@@@@QAEXXZ 10082b4b f i libvcruntime:std_exception.obj
 0001:00081b5e       ___std_exception_copy      10082b5e f   libvcruntime:std_exception.obj
 0001:00081bc1       ___std_exception_destroy   10082bc1 f   libvcruntime:std_exception.obj
 0001:00081be3       __CxxThrowException@8      10082be3 f   libvcruntime:throw.obj
 0001:00081c50       ??$?0AAViterator@TryBlockMap@__FrameHandler3@@AAV012@$0A@@?$pair@Viterator@TryBlockMap@__FrameHandler3@@V123@@std@@QAE@AAViterator@TryBlockMap@__FrameHandler3@@0@Z 10082c50 f i libvcruntime:trnsctrl.obj
 0001:00081c74       ??$forward@AAViterator@TryBlockMap@__FrameHandler3@@@std@@YAAAViterator@TryBlockMap@__FrameHandler3@@AAV123@@Z 10082c74 f i libvcruntime:trnsctrl.obj
 0001:00081c7c       ??0iterator@TryBlockMap@__FrameHandler3@@QAE@AAV12@I@Z 10082c7c f i libvcruntime:trnsctrl.obj
 0001:00081c90       ?GetRangeOfTrysToCheck@__FrameHandler3@@SA?AU?$pair@Viterator@TryBlockMap@__FrameHandler3@@V123@@std@@AAVTryBlockMap@1@HPAXPBU_s_FuncInfo@@H@Z 10082c90 f   libvcruntime:trnsctrl.obj
 0001:00081cff       ?_CallCatchBlock2@@YAPAXPAUEHRegistrationNode@@PBU_s_FuncInfo@@PAXHK@Z 10082cff f   libvcruntime:trnsctrl.obj
 0001:00081d5f       ?_CallSETranslator@@YAHPAUEHExceptionRecord@@PAUEHRegistrationNode@@PAX2PBU_s_FuncInfo@@H1@Z 10082d5f f   libvcruntime:trnsctrl.obj
 0001:00081e5e       ?_JumpToContinuation@@YGXPAXPAUEHRegistrationNode@@@Z 10082e5e f   libvcruntime:trnsctrl.obj
 0001:00081e8e       ?_UnwindNestedFrames@@YGXPAUEHRegistrationNode@@PAUEHExceptionRecord@@@Z 10082e8e f   libvcruntime:trnsctrl.obj
 0001:00081ee2       __CatchGuardHandler        10082ee2 f   libvcruntime:trnsctrl.obj
 0001:00081f13       __CreateFrameInfo          10082f13 f   libvcruntime:trnsctrl.obj
 0001:00081f37       __FindAndUnlinkFrame       10082f37 f   libvcruntime:trnsctrl.obj
 0001:00081f7f       __TranslatorGuardHandler   10082f7f f   libvcruntime:trnsctrl.obj
 0001:0008201e       ___CxxFrameHandler         1008301e f   libvcruntime:trnsctrl.obj
 0001:00082054       ___CxxFrameHandler2        10083054 f   libvcruntime:trnsctrl.obj
 0001:0008208a       ___CxxFrameHandler3        1008308a f   libvcruntime:trnsctrl.obj
 0001:000820c0       ___CxxLongjmpUnwind@4      100830c0 f   libvcruntime:trnsctrl.obj
 0001:000820f0       _memmove                   100830f0 f   libvcruntime:memmove.obj
 0001:00082670       _memset                    10083670 f   libvcruntime:memset.obj
 0001:000827ca       ??$__crt_interlocked_exchange_pointer@$$A6AXXZP6AXXZ@@YAP6AXXZPDS6AXXZQ6AXXZ@Z 100837ca f i libvcruntime:purevirt.obj
 0001:000827d7       ??$__crt_interlocked_read_pointer@$$A6AXXZ@@YAP6AXXZPDS6AXXZ@Z 100837d7 f i libvcruntime:purevirt.obj
 0001:000827e2       ?__crt_interlocked_read_32@@YAHPDH@Z 100837e2 f i libvcruntime:purevirt.obj
 0001:000827ed       __get_purecall_handler     100837ed f   libvcruntime:purevirt.obj
 0001:000827f4       __purecall                 100837f4 f   libvcruntime:purevirt.obj
 0001:00082810       __set_purecall_handler     10083810 f   libvcruntime:purevirt.obj
 0001:00082860       __except_handler4          10083860 f   libvcruntime:chandler4.obj
 0001:000829c0       _memcpy                    100839c0 f   libvcruntime:memcpy.obj
 0001:00082f40       _memchr                    10083f40 f   libvcruntime:memchr.obj
 0001:00082fed       ___uncaught_exceptions     10083fed f   libvcruntime:uncaught_exceptions.obj
 0001:00082ffd       ___DestructExceptionObject 10083ffd f   libvcruntime:ehhelpers.obj
 0001:000830a5       ?_CallMemberFunction0@@YGXQAX0@Z 100840a5 f i libvcruntime:ehhelpers.obj
 0001:0008310a       ?raw_name@type_info@@QBEPBDXZ 1008410a f i libvcruntime:ehhelpers.obj
 0001:0008310e       __IsExceptionObjectToBeDestroyed 1008410e f   libvcruntime:ehhelpers.obj
 0001:00083134       __SetWinRTOutOfMemoryExceptionCallback 10084134 f   libvcruntime:ehhelpers.obj
 0001:00083141       ___AdjustPointer           10084141 f   libvcruntime:ehhelpers.obj
 0001:00083166       ___FrameUnwindFilter       10084166 f   libvcruntime:ehhelpers.obj
 0001:000831bc       ___GetPlatformExceptionInfo 100841bc f   libvcruntime:ehhelpers.obj
 0001:0008320e       ___current_exception       1008420e f   libvcruntime:ehhelpers.obj
 0001:00083217       ___current_exception_context 10084217 f   libvcruntime:ehhelpers.obj
 0001:00083220       ___processing_throw        10084220 f   libvcruntime:ehhelpers.obj
 0001:00083229       ___std_terminate           10084229 f   libvcruntime:ehhelpers.obj
 0001:0008322e       __is_exception_typeof      1008422e f   libvcruntime:ehhelpers.obj
 0001:000833df       _memcmp                    100843df f   libvcruntime:memcmp.obj
 0001:00085b97       ___vcrt_initialize         10086b97 f   libvcruntime:initialization.obj
 0001:00085bb6       ___vcrt_thread_attach      10086bb6 f   libvcruntime:initialization.obj
 0001:00085bc1       ___vcrt_thread_detach      10086bc1 f   libvcruntime:initialization.obj
 0001:00085bc9       ___vcrt_uninitialize       10086bc9 f   libvcruntime:initialization.obj
 0001:00085be0       ___vcrt_uninitialize_critical 10086be0 f   libvcruntime:initialization.obj
 0001:00085bf9       ??$?RD@__crt_internal_free_policy@@QBEXQBD@Z 10086bf9 f i libvcruntime:std_type_info.obj
 0001:00085c09       ??$?RX@__crt_internal_free_policy@@QBEXQBX@Z 10086c09 f i libvcruntime:std_type_info.obj
 0001:00085c19       ??$__crt_interlocked_compare_exchange_pointer@$$CBDPAD$$T@@YAPBDPDSBDQAD$$T@Z 10086c19 f i libvcruntime:std_type_info.obj
 0001:00085c2b       ??$__crt_interlocked_read_pointer@$$CBD@@YAPBDPDSBD@Z 10086c2b f i libvcruntime:std_type_info.obj
 0001:00085c36       ??0?$__crt_unique_heap_ptr@DU__crt_internal_free_policy@@@@QAE@QAD@Z 10086c36 f i libvcruntime:std_type_info.obj
 0001:00085c44       ??0?$__crt_unique_heap_ptr@XU__crt_internal_free_policy@@@@QAE@QAX@Z 10086c44 f i libvcruntime:std_type_info.obj
 0001:00085c52       ??1?$__crt_unique_heap_ptr@DU__crt_internal_free_policy@@@@QAE@XZ 10086c52 f i libvcruntime:std_type_info.obj
 0001:00085c65       ??1?$__crt_unique_heap_ptr@XU__crt_internal_free_policy@@@@QAE@XZ 10086c65 f i libvcruntime:std_type_info.obj
 0001:00085c78       ??B?$__crt_unique_heap_ptr@DU__crt_internal_free_policy@@@@QBE_NXZ 10086c78 f i libvcruntime:std_type_info.obj
 0001:00085c7f       ??B?$__crt_unique_heap_ptr@XU__crt_internal_free_policy@@@@QBE_NXZ 10086c7f f i libvcruntime:std_type_info.obj
 0001:00085ca6       ?detach@?$__crt_unique_heap_ptr@XU__crt_internal_free_policy@@@@QAEPAXXZ 10086ca6 f i libvcruntime:std_type_info.obj
 0001:00085caf       ?get@?$__crt_unique_heap_ptr@DU__crt_internal_free_policy@@@@QBEPADXZ 10086caf f i libvcruntime:std_type_info.obj
 0001:00085cb2       ?get@?$__crt_unique_heap_ptr@XU__crt_internal_free_policy@@@@QBEPAXXZ 10086cb2 f i libvcruntime:std_type_info.obj
 0001:00085cb5       ?is_valid@?$__crt_unique_heap_ptr@DU__crt_internal_free_policy@@@@QBE_NXZ 10086cb5 f i libvcruntime:std_type_info.obj
 0001:00085cbc       ?is_valid@?$__crt_unique_heap_ptr@XU__crt_internal_free_policy@@@@QBE_NXZ 10086cbc f i libvcruntime:std_type_info.obj
 0001:00085cc3       ?release@?$__crt_unique_heap_ptr@DU__crt_internal_free_policy@@@@QAEXXZ 10086cc3 f i libvcruntime:std_type_info.obj
 0001:00085cd6       ?release@?$__crt_unique_heap_ptr@XU__crt_internal_free_policy@@@@QAEXXZ 10086cd6 f i libvcruntime:std_type_info.obj
 0001:00085ce9       ___std_type_info_compare   10086ce9 f   libvcruntime:std_type_info.obj
 0001:00085d25       ___std_type_info_destroy_list 10086d25 f   libvcruntime:std_type_info.obj
 0001:00085d48       ___std_type_info_hash      10086d48 f   libvcruntime:std_type_info.obj
 0001:00085d6e       ___std_type_info_name      10086d6e f   libvcruntime:std_type_info.obj
 0001:00085e34       ??$?RU__vcrt_ptd@@@__crt_internal_free_policy@@QBEXQBU__vcrt_ptd@@@Z 10086e34 f i libvcruntime:per_thread_data.obj
 0001:00085e44       ??0?$__crt_unique_heap_ptr@U__vcrt_ptd@@U__crt_internal_free_policy@@@@QAE@QAU__vcrt_ptd@@@Z 10086e44 f i libvcruntime:per_thread_data.obj
 0001:00085e61       ??1?$__crt_unique_heap_ptr@U__vcrt_ptd@@U__crt_internal_free_policy@@@@QAE@XZ 10086e61 f i libvcruntime:per_thread_data.obj
 0001:00085e7d       ??B?$__crt_unique_heap_ptr@U__vcrt_ptd@@U__crt_internal_free_policy@@@@QBE_NXZ 10086e7d f i libvcruntime:per_thread_data.obj
 0001:00085e84       ?detach@?$__crt_unique_heap_ptr@U__vcrt_ptd@@U__crt_internal_free_policy@@@@QAEPAU__vcrt_ptd@@XZ 10086e84 f i libvcruntime:per_thread_data.obj
 0001:00085e8d       ?get@?$__crt_unique_heap_ptr@U__vcrt_ptd@@U__crt_internal_free_policy@@@@QBEPAU__vcrt_ptd@@XZ 10086e8d f i libvcruntime:per_thread_data.obj
 0001:00085e90       ?is_valid@?$__crt_unique_heap_ptr@U__vcrt_ptd@@U__crt_internal_free_policy@@@@QBE_NXZ 10086e90 f i libvcruntime:per_thread_data.obj
 0001:00085e97       ?release@?$__crt_unique_heap_ptr@U__vcrt_ptd@@U__crt_internal_free_policy@@@@QAEXXZ 10086e97 f i libvcruntime:per_thread_data.obj
 0001:00085ec4       ___vcrt_freefls@4          10086ec4 f   libvcruntime:per_thread_data.obj
 0001:00085ee0       ___vcrt_freeptd_for_this_thread 10086ee0 f   libvcruntime:per_thread_data.obj
 0001:00085f0b       ___vcrt_getptd             10086f0b f   libvcruntime:per_thread_data.obj
 0001:00085f19       ___vcrt_getptd_noexit      10086f19 f   libvcruntime:per_thread_data.obj
 0001:00085fab       ___vcrt_getptd_noinit      10086fab f   libvcruntime:per_thread_data.obj
 0001:00085fe3       ___vcrt_initialize_ptd     10086fe3 f   libvcruntime:per_thread_data.obj
 0001:00086016       ___vcrt_uninitialize_ptd   10087016 f   libvcruntime:per_thread_data.obj
 0001:00086768       ??$TypeMatchHelper@V__FrameHandler3@@@@YAHPBU_s_HandlerType@@PBU_s_CatchableType@@PBU_s_ThrowInfo@@@Z 10087768 f i libvcruntime:frame.obj
 0001:000867f6       ??$__InternalCxxFrameHandler@V__FrameHandler3@@@@YA?AW4_EXCEPTION_DISPOSITION@@PAUEHExceptionRecord@@PAUEHRegistrationNode@@PAU_CONTEXT@@PAXPBU_s_FuncInfo@@H1E@Z 100877f6 f i libvcruntime:frame.obj
 0001:000868f8       ??$__InternalCxxFrameHandlerWrapper@V__FrameHandler3@@@@YA?AW4_EXCEPTION_DISPOSITION@@PAUEHExceptionRecord@@PAUEHRegistrationNode@@PAU_CONTEXT@@PAXPBU_s_FuncInfo@@H1E@Z 100878f8 f i libvcruntime:frame.obj
 0001:00086901       ??0HandlerMap@__FrameHandler3@@QAE@PBU_s_TryBlockMapEntry@@II@Z 10087901 f i libvcruntime:frame.obj
 0001:00086918       ??0TryBlockMap@__FrameHandler3@@QAE@PBU_s_FuncInfo@@I@Z 10087918 f i libvcruntime:frame.obj
 0001:0008692c       ??0bad_exception@std@@QAE@ABV01@@Z 1008792c f i libvcruntime:frame.obj
 0001:00086947       ??0bad_exception@std@@QAE@XZ 10087947 f i libvcruntime:frame.obj
 0001:00086965       ??0iterator@HandlerMap@__FrameHandler3@@QAE@AAV12@I@Z 10087965 f i libvcruntime:frame.obj
 0001:00086979       ??1bad_exception@std@@UAE@XZ 10087979 f i libvcruntime:frame.obj
 0001:0008698a       ??8iterator@HandlerMap@__FrameHandler3@@QBE_NABV012@@Z 1008798a f i libvcruntime:frame.obj
 0001:0008699d       ??8type_info@@QBE_NABV0@@Z 1008799d f i libvcruntime:frame.obj
 0001:000869bc       ??9iterator@HandlerMap@__FrameHandler3@@QBE_NABV012@@Z 100879bc f i libvcruntime:frame.obj
 0001:000869cf       ??Diterator@HandlerMap@__FrameHandler3@@QAE?BU_s_HandlerType@@XZ 100879cf f i libvcruntime:frame.obj
 0001:000869ee       ??Diterator@TryBlockMap@__FrameHandler3@@QAE?BU_s_TryBlockMapEntry@@XZ 100879ee f i libvcruntime:frame.obj
 0001:00086a10       ??Eiterator@HandlerMap@__FrameHandler3@@QAEAAV012@XZ 10087a10 f i libvcruntime:frame.obj
 0001:00086a16       ??Eiterator@TryBlockMap@__FrameHandler3@@QAEAAV012@XZ 10087a16 f i libvcruntime:frame.obj
 0001:00086a1c       ??Miterator@TryBlockMap@__FrameHandler3@@QBE_NABV012@@Z 10087a1c f i libvcruntime:frame.obj
 0001:00086a2f       ??_Ebad_exception@std@@UAEPAXI@Z 10087a2f f i libvcruntime:frame.obj
 0001:00086a2f       ??_Gbad_exception@std@@UAEPAXI@Z 10087a2f f i libvcruntime:frame.obj
 0001:00086a5c       ?BuildCatchObject@__FrameHandler3@@SAXPAUEHExceptionRecord@@PAXPBU_s_HandlerType@@PBU_s_CatchableType@@@Z 10087a5c f   libvcruntime:frame.obj
 0001:00086a61       ?BuildCatchObjectHelper@__FrameHandler3@@SAHPAUEHExceptionRecord@@PAXPBU_s_HandlerType@@PBU_s_CatchableType@@@Z 10087a61 f   libvcruntime:frame.obj
 0001:00086cc5       ?FrameUnwindToEmptyState@__FrameHandler3@@SAXPAUEHRegistrationNode@@PAXPBU_s_FuncInfo@@@Z 10087cc5 f   libvcruntime:frame.obj
 0001:00086cdd       ?FrameUnwindToState@__FrameHandler3@@SAXPAUEHRegistrationNode@@PAXPBU_s_FuncInfo@@H@Z 10087cdd f   libvcruntime:frame.obj
 0001:00086dcb       ?GetMaxState@__FrameHandler3@@SAHPAXPBU_s_FuncInfo@@@Z 10087dcb f i libvcruntime:frame.obj
 0001:00086ea9       ?TypeMatch@__FrameHandler3@@SAHPBU_s_HandlerType@@PBU_s_CatchableType@@PBU_s_ThrowInfo@@@Z 10087ea9 f   libvcruntime:frame.obj
 0001:00086eb2       ?_CallMemberFunction1@@YGXQAX00@Z 10087eb2 f i libvcruntime:frame.obj
 0001:00086ec2       ?_CallMemberFunction2@@YGXQAX00H@Z 10087ec2 f i libvcruntime:frame.obj
 0001:00086ed5       ?begin@HandlerMap@__FrameHandler3@@QAE?AViterator@12@XZ 10087ed5 f i libvcruntime:frame.obj
 0001:00086ee8       ?end@HandlerMap@__FrameHandler3@@QAE?AViterator@12@XZ 10087ee8 f i libvcruntime:frame.obj
 0001:00086ef9       ?getESTypes@__FrameHandler3@@SAPBU_s_ESTypeList@@PBU_s_FuncInfo@@@Z 10087ef9 f i libvcruntime:frame.obj
 0001:00086f04       ?getLastEntry@HandlerMap@__FrameHandler3@@QAEPBU_s_HandlerType@@XZ 10087f04 f i libvcruntime:frame.obj
 0001:00086f12       ?getMagicNum@__FrameHandler3@@SAIPBU_s_FuncInfo@@@Z 10087f12 f i libvcruntime:frame.obj
 0001:00086f21       ?getNumTryBlocks@TryBlockMap@__FrameHandler3@@QAEIXZ 10087f21 f i libvcruntime:frame.obj
 0001:00086f27       ?isEHs@__FrameHandler3@@SA_NPBU_s_FuncInfo@@@Z 10087f27 f i libvcruntime:frame.obj
 0001:00086f34       ?isNoExcept@__FrameHandler3@@SA_NPBU_s_FuncInfo@@@Z 10087f34 f i libvcruntime:frame.obj
 0001:00086f44       ___BuildCatchObject        10087f44 f   libvcruntime:frame.obj
 0001:00086f49       ___BuildCatchObjectHelper  10087f49 f   libvcruntime:frame.obj
 0001:00086f52       ___TypeMatch               10087f52 f   libvcruntime:frame.obj
 0001:00086f5b       ___vcrt_EncodePointer      10087f5b f i libvcruntime:frame.obj
 0001:00086f70       __CallSettingFrame@12      10087f70 f   libvcruntime:lowhelpr.obj
 0001:00086f97       __NLG_Return               10087f97     libvcruntime:lowhelpr.obj
 0001:00086fc7       ___except_validate_context_record 10087fc7 f   libvcruntime:jbcxrval.obj
 0001:00086ff7       ___except_validate_jump_buffer 10087ff7 f   libvcruntime:jbcxrval.obj
 0001:00087024       ___except_validate_jump_buffer_common 10088024 f i libvcruntime:jbcxrval.obj
 0001:00087060       __local_unwind4            10088060 f   libvcruntime:exsup4.obj
 0001:00087150       __seh_longjmp_unwind4@4    10088150 f   libvcruntime:exsup4.obj
 0001:00087180       @_EH4_CallFilterFunc@8     10088180 f   libvcruntime:exsup4.obj
 0001:000871a0       @_EH4_TransferToHandler@8  100881a0 f   libvcruntime:exsup4.obj
 0001:000871c0       @_EH4_GlobalUnwind2@8      100881c0 f   libvcruntime:exsup4.obj
 0001:000871e0       @_EH4_LocalUnwind@16       100881e0 f   libvcruntime:exsup4.obj
 0001:000871f7       ___vcrt_initialize_locks   100881f7 f   libvcruntime:locks.obj
 0001:00087233       ___vcrt_lock               10088233 f   libvcruntime:locks.obj
 0001:00087248       ___vcrt_uninitialize_locks 10088248 f   libvcruntime:locks.obj
 0001:00087277       ___vcrt_unlock             10088277 f   libvcruntime:locks.obj
 0001:0008728c       ??$?0$00@DName@@QAE@PAVUnDecorator@@PBDU?$StringLifeSelector@$00@@@Z 1008828c f i libvcruntime:undname.obj
 0001:000872c5       ??$?0$00@pcharNode@@QAE@PBDHU?$StringLifeSelector@$00@@AAV_HeapManager@@@Z 100882c5 f i libvcruntime:undname.obj
 0001:000872e0       ??$?0$01@DName@@QAE@PAVUnDecorator@@PBDU?$StringLifeSelector@$01@@@Z 100882e0 f i libvcruntime:undname.obj
 0001:00087319       ??$?0$01@pcharNode@@QAE@PBDHU?$StringLifeSelector@$01@@AAV_HeapManager@@@Z 10088319 f i libvcruntime:undname.obj
 0001:0008735a       ??$?0$0A@@DName@@QAE@PAVUnDecorator@@PBDU?$StringLifeSelector@$0A@@@@Z 1008835a f i libvcruntime:undname.obj
 0001:00087393       ??$?0$0A@@pcharNode@@QAE@PBDHU?$StringLifeSelector@$0A@@@AAV_HeapManager@@@Z 10088393 f i libvcruntime:undname.obj
 0001:000873d4       ??$?0_K$0A@@?$optional@_K@std@@QAE@$$QA_K@Z 100883d4 f i libvcruntime:undname.obj
 0001:000873ee       ??$?0_K@?$_Optional_construct_base@_K@std@@QAE@Uin_place_t@1@$$QA_K@Z 100883ee f i libvcruntime:undname.obj
 0001:00087408       ??$?0_K@?$_Optional_destruct_base@_K$00@std@@QAE@Uin_place_t@1@$$QA_K@Z 10088408 f i libvcruntime:undname.obj
 0001:00087422       ??$append@VDNameNode@@@DName@@AAEXPBVDNameNode@@@Z 10088422 f i libvcruntime:undname.obj
 0001:0008746a       ??$append@VDNameStatusNode@@@DName@@AAEXPBVDNameStatusNode@@@Z 1008846a f i libvcruntime:undname.obj
 0001:000874b2       ??$append@VcharNode@@@DName@@AAEXPBVcharNode@@@Z 100884b2 f i libvcruntime:undname.obj
 0001:000874fa       ??$append@VpDNameNode@@@DName@@AAEXPBVpDNameNode@@@Z 100884fa f i libvcruntime:undname.obj
 0001:00087542       ??$append@VpcharNode@@@DName@@AAEXPBVpcharNode@@@Z 10088542 f i libvcruntime:undname.obj
 0001:0008758a       ??$doPchar@$00@DName@@AAEXPBDH@Z 1008858a f i libvcruntime:undname.obj
 0001:000875f7       ??$doPchar@$01@DName@@AAEXPBDH@Z 100885f7 f i libvcruntime:undname.obj
 0001:00087670       ??$doPchar@$0A@@DName@@AAEXPBDH@Z 10088670 f i libvcruntime:undname.obj
 0001:000876e9       ??$forward@_K@std@@YA$$QA_KAA_K@Z 100886e9 f i libvcruntime:undname.obj
 0001:000877c9       ??0?$_Optional_construct_base@_K@std@@QAE@XZ 100887c9 f i libvcruntime:undname.obj
 0001:000877d0       ??0?$_Optional_destruct_base@_K$00@std@@QAE@XZ 100887d0 f i libvcruntime:undname.obj
 0001:000877d7       ??0?$optional@_K@std@@QAE@XZ 100887d7 f i libvcruntime:undname.obj
 0001:000877de       ??0Block@_HeapManager@@QAE@XZ 100887de f i libvcruntime:undname.obj
 0001:000877e7       ??0DName@@QAE@ABV0@@Z      100887e7 f i libvcruntime:undname.obj
 0001:00087803       ??0DName@@QAE@PAVUnDecorator@@@Z 10088803 f i libvcruntime:undname.obj
 0001:0008781f       ??0DName@@QAE@PAVUnDecorator@@AAPBDD@Z 1008881f f   libvcruntime:undname.obj
 0001:000878b8       ??0DName@@QAE@PAVUnDecorator@@ABUStringLiteral@@@Z 100888b8 f   libvcruntime:undname.obj
 0001:000878eb       ??0DName@@QAE@PAVUnDecorator@@D@Z 100888eb f   libvcruntime:undname.obj
 0001:00087913       ??0DName@@QAE@PAVUnDecorator@@PAV0@@Z 10088913 f   libvcruntime:undname.obj
 0001:0008795e       ??0DName@@QAE@PAVUnDecorator@@W4DNameStatus@@@Z 1008895e f   libvcruntime:undname.obj
 0001:000879aa       ??0DName@@QAE@PAVUnDecorator@@_J@Z 100889aa f   libvcruntime:undname.obj
 0001:00087a38       ??0DName@@QAE@PAVUnDecorator@@_K@Z 10088a38 f   libvcruntime:undname.obj
