 D3D9DrvRTX

 Timestamp is 69b4a97b (Fri Mar 13 17:19:07 2026)

 Preferred load address is 10000000

 Start         Length     Name                   Class
 0001:00000000 000003b0H .text$di                CODE
 0001:000003b0 000ded50H .text$mn                CODE
 0001:000df100 0000c410H .text$x                 CODE
 0001:000eb510 000001dcH .text$yd                CODE
 0002:00000000 00000360H .idata$5                DATA
 0002:00000360 0000000cH .00cfg                  DATA
 0002:0000036c 00000004H .CRT$XCA                DATA
 0002:00000370 0000000cH .CRT$XCC                DATA
 0002:0000037c 00000008H .CRT$XCL                DATA
 0002:00000384 00000024H .CRT$XCU                DATA
 0002:000003a8 00000004H .CRT$XCZ                DATA
 0002:000003ac 00000004H .CRT$XIA                DATA
 0002:000003b0 00000014H .CRT$XIC                DATA
 0002:000003c4 00000004H .CRT$XIZ                DATA
 0002:000003c8 00000004H .CRT$XLA                DATA
 0002:000003cc 00000004H .CRT$XLZ                DATA
 0002:000003d0 00000004H .CRT$XPA                DATA
 0002:000003d4 00000008H .CRT$XPX                DATA
 0002:000003dc 00000004H .CRT$XPXA               DATA
 0002:000003e0 00000004H .CRT$XPZ                DATA
 0002:000003e4 00000004H .CRT$XTA                DATA
 0002:000003e8 00000018H .CRT$XTZ                DATA
 0002:000003ec 00000000H .gfids$y                DATA
 0002:00000400 00013d40H .rdata                  DATA
 0002:00014140 00000040H .rdata$CastGuardVftablesA DATA
 0002:00014180 00000040H .rdata$CastGuardVftablesC DATA
 0002:000141c0 00000018H .rdata$T                DATA
 0002:000141d8 000022a8H .rdata$r                DATA
 0002:00016480 00000ca4H .rdata$sxdata           DATA
 0002:00017124 000001acH .rdata$voltmd           DATA
 0002:000172d0 00000490H .rdata$zzzdbg           DATA
 0002:00017760 00000004H .rtc$IAA                DATA
 0002:00017764 00000004H .rtc$IZZ                DATA
 0002:00017768 00000004H .rtc$TAA                DATA
 0002:0001776c 00000004H .rtc$TZZ                DATA
 0002:00017770 00000004H .tls                    DATA
 0002:00017774 00000004H .tls$                   DATA
 0002:00017778 00000008H .tls$ZZZ                DATA
 0002:00017780 0000d070H .xdata$x                DATA
 0002:000247f0 000002c0H .edata                  DATA
 0002:00024ab0 0000008cH .idata$2                DATA
 0002:00024b3c 00000014H .idata$3                DATA
 0002:00024b50 00000360H .idata$4                DATA
 0002:00024eb0 000017e2H .idata$6                DATA
 0003:00000000 00000ba0H .data                   DATA
 0003:00000ba0 00000378H .data$r                 DATA
 0003:00000f18 000010c8H .data$rs                DATA
 0003:00001fe0 00004740H .bss                    DATA
 0004:00000000 00013610H _RDATA                  DATA
 0005:00000000 00000080H .fptable                DATA
 0006:00000000 000000a0H .rsrc$01                DATA
 0006:000000a0 00000508H .rsrc$02                DATA

  Address         Publics by Value              Rva+Base       Lib:Object

 0000:00000000       ___AbsoluteZero            00000000     <absolute>
 0000:00000000       ___arm64x_extra_rfe_table  00000000     <absolute>
 0000:00000000       ___arm64x_extra_rfe_table_size 00000000     <absolute>
 0000:00000000       ___arm64x_native_entrypoint 00000000     <absolute>
 0000:00000000       ___arm64x_redirection_metadata 00000000     <absolute>
 0000:00000000       ___arm64x_redirection_metadata_count 00000000     <absolute>
 0000:00000000       ___dynamic_value_reloc_table 00000000     <absolute>
 0000:00000000       ___enclave_config          00000000     <absolute>
 0000:00000000       ___guard_check_icall_a64n_fptr 00000000     <absolute>
 0000:00000000       ___guard_eh_cont_count     00000000     <absolute>
 0000:00000000       ___guard_eh_cont_table     00000000     <absolute>
 0000:00000000       ___guard_fids_count        00000000     <absolute>
 0000:00000000       ___guard_fids_table        00000000     <absolute>
 0000:00000000       ___guard_iat_count         00000000     <absolute>
 0000:00000000       ___guard_iat_table         00000000     <absolute>
 0000:00000000       ___guard_longjmp_count     00000000     <absolute>
 0000:00000000       ___guard_longjmp_table     00000000     <absolute>
 0000:00000000       ___hybrid_auxiliary_delayload_iat 00000000     <absolute>
 0000:00000000       ___hybrid_auxiliary_delayload_iat_copy 00000000     <absolute>
 0000:00000000       ___hybrid_auxiliary_iat    00000000     <absolute>
 0000:00000000       ___hybrid_auxiliary_iat_copy 00000000     <absolute>
 0000:00000000       ___hybrid_code_map         00000000     <absolute>
 0000:00000000       ___hybrid_code_map_count   00000000     <absolute>
 0000:00000000       ___hybrid_image_info_bitfield 00000000     <absolute>
 0000:00000000       ___x64_code_ranges_to_entry_points 00000000     <absolute>
 0000:00000000       ___x64_code_ranges_to_entry_points_count 00000000     <absolute>
 0000:00000000       __except_list              00000000     <absolute>
 0000:0000002c       __tls_array                0000002c     <absolute>
 0000:00000100       ___guard_flags             00000100     <absolute>
 0000:00000329       ___safe_se_handler_count   00000329     <absolute>
 0000:00000000       ___ImageBase               10000000     <linker-defined>
 0001:000003b0       ??$New@VFVector@@@@YAPAVFVector@@AAVFMemStack@@H@Z 100013b0 f i D3D9Render_mesh_processing.obj
 0001:000003d0       ??$NewZeroed@VFVector@@@@YAPAVFVector@@AAVFMemStack@@H@Z 100013d0 f i D3D9Render_mesh_processing.obj
 0001:00000400       ??$_Allocate_manually_vector_aligned@U_Default_allocate_traits@std@@@std@@YAPAXI@Z 10001400 f i D3D9Render_mesh_processing.obj
 0001:00000440       ??$_Copy_memmove@PAHPAH@std@@YAPAHPAH00@Z 10001440 f i D3D9Render_mesh_processing.obj
 0001:00000460       ??$_Copy_memmove@PAPAVUTexture@@PAPAV1@@std@@YAPAPAVUTexture@@PAPAV1@00@Z 10001460 f i D3D9Render_mesh_processing.obj
 0001:00000480       ??$_Copy_memmove@PAUFRenderVert@@PAU1@@std@@YAPAUFRenderVert@@PAU1@00@Z 10001480 f i D3D9Render_mesh_processing.obj
 0001:000004b0       ??$_Copy_memmove_tail@PAH@std@@YAPAHQBDQAHII@Z 100014b0 f i D3D9Render_mesh_processing.obj
 0001:000004d0       ??$_Copy_memmove_tail@PAPAVUTexture@@@std@@YAPAPAVUTexture@@QBDQAPAV1@II@Z 100014d0 f i D3D9Render_mesh_processing.obj
 0001:000004f0       ??$_Copy_memmove_tail@PAUFRenderVert@@@std@@YAPAUFRenderVert@@QBDQAU1@II@Z 100014f0 f i D3D9Render_mesh_processing.obj
 0001:00000510       ??$_Destroy_range@V?$allocator@U?$SurfKeyBucket@PAVUTexture@@UFRenderVert@@@@@std@@@std@@YAXPAU?$SurfKeyBucket@PAVUTexture@@UFRenderVert@@@@QAU1@AAV?$allocator@U?$SurfKeyBucket@PAVUTexture@@UFRenderVert@@@@@0@@Z 10001510 f i D3D9Render_mesh_processing.obj
 0001:000005b0       ??$_Destroy_range@V?$allocator@UActorRenderData@@@std@@@std@@YAXPAUActorRenderData@@QAU1@AAV?$allocator@UActorRenderData@@@0@@Z 100015b0 f i D3D9Render_mesh_processing.obj
 0001:00000660       ??$_Emplace_reallocate@$$V@?$vector@U?$SurfKeyBucket@PAVUTexture@@UFRenderVert@@@@V?$allocator@U?$SurfKeyBucket@PAVUTexture@@UFRenderVert@@@@@std@@@std@@AAEPAU?$SurfKeyBucket@PAVUTexture@@UFRenderVert@@@@QAU2@@Z 10001660 f i D3D9Render_mesh_processing.obj
 0001:00000810       ??$_Emplace_reallocate@$$V@?$vector@UActorRenderData@@V?$allocator@UActorRenderData@@@std@@@std@@AAEPAUActorRenderData@@QAU2@@Z 10001810 f i D3D9Render_mesh_processing.obj
 0001:000009e0       ??$_Emplace_reallocate@$$V@?$vector@UFRenderVert@@V?$allocator@UFRenderVert@@@std@@@std@@AAEPAUFRenderVert@@QAU2@@Z 100019e0 f i D3D9Render_mesh_processing.obj
 0001:00000bc0       ??$_Emplace_reallocate@ABQAVUTexture@@@?$vector@PAVUTexture@@V?$allocator@PAVUTexture@@@std@@@std@@AAEPAPAVUTexture@@QAPAV2@ABQAV2@@Z 10001bc0 f i D3D9Render_mesh_processing.obj
 0001:00000d40       ??$_Fill_zero_memset@PAH@std@@YAXPAHI@Z 10001d40 f i D3D9Render_mesh_processing.obj
 0001:00000d60       ??$_Is_all_bits_zero@H@std@@YA_NABH@Z 10001d60 f i D3D9Render_mesh_processing.obj
 0001:00000d80       ??$_Resize@H@?$vector@HV?$allocator@H@std@@@std@@AAEXIABH@Z 10001d80 f i D3D9Render_mesh_processing.obj
 0001:00000f10       ??$_Uninitialized_fill_n@V?$allocator@H@std@@@std@@YAPAHPAHIABHAAV?$allocator@H@0@@Z 10001f10 f i D3D9Render_mesh_processing.obj
 0001:00000f60       ??$_Uninitialized_move@PAU?$SurfKeyBucket@PAVUTexture@@UFRenderVert@@@@V?$allocator@U?$SurfKeyBucket@PAVUTexture@@UFRenderVert@@@@@std@@@std@@YAPAU?$SurfKeyBucket@PAVUTexture@@UFRenderVert@@@@QAU1@0PAU1@AAV?$allocator@U?$SurfKeyBucket@PAVUTexture@@UFRenderVert@@@@@0@@Z 10001f60 f i D3D9Render_mesh_processing.obj
 0001:00001030       ??$_Uninitialized_move@PAUActorRenderData@@V?$allocator@UActorRenderData@@@std@@@std@@YAPAUActorRenderData@@QAU1@0PAU1@AAV?$allocator@UActorRenderData@@@0@@Z 10002030 f i D3D9Render_mesh_processing.obj
 0001:00001100       ??$construct_at@UActorRenderData@@$$V@std@@YAPAUActorRenderData@@QAU1@@Z 10002100 f i D3D9Render_mesh_processing.obj
 0001:000011d0       ??$emplace_back@$$V@?$vector@UActorRenderData@@V?$allocator@UActorRenderData@@@std@@@std@@QAEAAUActorRenderData@@XZ 100021d0 f i D3D9Render_mesh_processing.obj
 0001:000012d0       ??$emplace_back@$$V@?$vector@UFRenderVert@@V?$allocator@UFRenderVert@@@std@@@std@@QAEAAUFRenderVert@@XZ 100022d0 f i D3D9Render_mesh_processing.obj
 0001:00001320       ??0?$UniqueValueArray@PAVUTexture@@@@QAE@H@Z 10002320 f i D3D9Render_mesh_processing.obj
 0001:00001510       ??0bad_alloc@std@@QAE@ABV01@@Z 10002510 f i D3D9Render_mesh_processing.obj
 0001:00001590       ??0bad_array_new_length@std@@QAE@ABV01@@Z 10002590 f i D3D9Render_mesh_processing.obj
 0001:00001610       ??0bad_array_new_length@std@@QAE@XZ 10002610 f i D3D9Render_mesh_processing.obj
 0001:00001680       ??0exception@std@@QAE@ABV01@@Z 10002680 f i D3D9Render_mesh_processing.obj
 0001:000016e0       ??1?$SurfKeyBucketVector@PAVUTexture@@UFRenderVert@@@@QAE@XZ 100026e0 f i D3D9Render_mesh_processing.obj
 0001:00001770       ??1?$UniqueValueArray@PAVUTexture@@@@QAE@XZ 10002770 f i D3D9Render_mesh_processing.obj
 0001:00001820       ??1?$_Uninitialized_backout_al@V?$allocator@U?$SurfKeyBucket@PAVUTexture@@UFRenderVert@@@@@std@@@std@@QAE@XZ 10002820 f i D3D9Render_mesh_processing.obj
 0001:00001840       ??1?$_Uninitialized_backout_al@V?$allocator@UActorRenderData@@@std@@@std@@QAE@XZ 10002840 f i D3D9Render_mesh_processing.obj
 0001:00001860       ??1?$vector@HV?$allocator@H@std@@@std@@QAE@XZ 10002860 f i D3D9Render_mesh_processing.obj
 0001:00001890       ??1?$vector@PAVUTexture@@V?$allocator@PAVUTexture@@@std@@@std@@QAE@XZ 10002890 f i D3D9Render_mesh_processing.obj
 0001:000018c0       ??1?$vector@U?$SurfKeyBucket@PAVUTexture@@UFRenderVert@@@@V?$allocator@U?$SurfKeyBucket@PAVUTexture@@UFRenderVert@@@@@std@@@std@@QAE@XZ 100028c0 f i D3D9Render_mesh_processing.obj
 0001:00001910       ??1?$vector@UFRenderVert@@V?$allocator@UFRenderVert@@@std@@@std@@QAE@XZ 10002910 f i D3D9Render_mesh_processing.obj
 0001:00001950       ??1_Reallocation_guard@?$vector@HV?$allocator@H@std@@@std@@QAE@XZ 10002950 f i D3D9Render_mesh_processing.obj
 0001:00001970       ??1_Reallocation_guard@?$vector@PAVUTexture@@V?$allocator@PAVUTexture@@@std@@@std@@QAE@XZ 10002970 f i D3D9Render_mesh_processing.obj
 0001:00001990       ??1_Reallocation_guard@?$vector@U?$SurfKeyBucket@PAVUTexture@@UFRenderVert@@@@V?$allocator@U?$SurfKeyBucket@PAVUTexture@@UFRenderVert@@@@@std@@@std@@QAE@XZ 10002990 f i D3D9Render_mesh_processing.obj
 0001:000019c0       ??1_Reallocation_guard@?$vector@UActorRenderData@@V?$allocator@UActorRenderData@@@std@@@std@@QAE@XZ 100029c0 f i D3D9Render_mesh_processing.obj
 0001:000019f0       ??1_Reallocation_guard@?$vector@UFRenderVert@@V?$allocator@UFRenderVert@@@std@@@std@@QAE@XZ 100029f0 f i D3D9Render_mesh_processing.obj
 0001:00001a10       ??1_Simple_reallocation_guard@?$vector@HV?$allocator@H@std@@@std@@QAE@XZ 10002a10 f i D3D9Render_mesh_processing.obj
 0001:00001a30       ??1_Simple_reallocation_guard@?$vector@PAVUTexture@@V?$allocator@PAVUTexture@@@std@@@std@@QAE@XZ 10002a30 f i D3D9Render_mesh_processing.obj
 0001:00001a50       ??1_Simple_reallocation_guard@?$vector@U?$SurfKeyBucket@PAVUTexture@@UFRenderVert@@@@V?$allocator@U?$SurfKeyBucket@PAVUTexture@@UFRenderVert@@@@@std@@@std@@QAE@XZ 10002a50 f i D3D9Render_mesh_processing.obj
 0001:00001a70       ??1_Simple_reallocation_guard@?$vector@UFRenderVert@@V?$allocator@UFRenderVert@@@std@@@std@@QAE@XZ 10002a70 f i D3D9Render_mesh_processing.obj
 0001:00001a90       ??1bad_alloc@std@@UAE@XZ   10002a90 f i D3D9Render_mesh_processing.obj
 0001:00001ae0       ??1bad_array_new_length@std@@UAE@XZ 10002ae0 f i D3D9Render_mesh_processing.obj
 0001:00001b30       ??1exception@std@@UAE@XZ   10002b30 f i D3D9Render_mesh_processing.obj
 0001:00001b80       ??_0FCoords@@QAEAAV0@ABVFRotator@@@Z 10002b80 f i D3D9Render_mesh_processing.obj
 0001:00001e20       ??_Ebad_alloc@std@@UAEPAXI@Z 10002e20 f i D3D9Render_mesh_processing.obj
 0001:00001e20       ??_Gbad_alloc@std@@UAEPAXI@Z 10002e20 f i D3D9Render_mesh_processing.obj
 0001:00001e90       ??_Ebad_array_new_length@std@@UAEPAXI@Z 10002e90 f i D3D9Render_mesh_processing.obj
 0001:00001e90       ??_Gbad_array_new_length@std@@UAEPAXI@Z 10002e90 f i D3D9Render_mesh_processing.obj
 0001:00001f00       ??_Eexception@std@@UAEPAXI@Z 10002f00 f i D3D9Render_mesh_processing.obj
 0001:00001f00       ??_Gexception@std@@UAEPAXI@Z 10002f00 f i D3D9Render_mesh_processing.obj
 0001:00001f70       ?DXMatToFCoord@@YA?AVFCoords@@ABUXMMATRIX@DirectX@@@Z 10002f70 f i D3D9Render_mesh_processing.obj
 0001:00002020       ?FCoordToDXMat@@YA?AUXMMATRIX@DirectX@@ABVFCoords@@@Z 10003020 f i D3D9Render_mesh_processing.obj
 0001:00002080       ?FRotToDXRotMat@@YA?AUXMMATRIX@DirectX@@ABVFRotator@@@Z 10003080 f i D3D9Render_mesh_processing.obj
 0001:00002130       ?SafeNormal@FVector@@QBE?AV1@XZ 10003130 f i D3D9Render_mesh_processing.obj
 0001:000021b0       ?XMMatrixMultiply@DirectX@@YQ?AUXMMATRIX@1@U21@ABU21@@Z 100031b0 f i D3D9Render_mesh_processing.obj
 0001:000022f0       ?XMMatrixScaling@DirectX@@YQ?AUXMMATRIX@1@MMM@Z 100032f0 f i D3D9Render_mesh_processing.obj
 0001:00002320       ?XMMatrixTranslationFromVector@DirectX@@YQ?AUXMMATRIX@1@T__m128@@@Z 10003320 f i D3D9Render_mesh_processing.obj
 0001:00002360       ?XMVector3Normalize@DirectX@@YQ?AT__m128@@T2@@Z 10003360 f i D3D9Render_mesh_processing.obj
 0001:000023a0       ?XMVector3Transform@DirectX@@YQ?AT__m128@@T2@UXMMATRIX@1@@Z 100033a0 f i D3D9Render_mesh_processing.obj
 0001:000023d0       ?_Change_array@?$vector@U?$SurfKeyBucket@PAVUTexture@@UFRenderVert@@@@V?$allocator@U?$SurfKeyBucket@PAVUTexture@@UFRenderVert@@@@@std@@@std@@AAEXQAU?$SurfKeyBucket@PAVUTexture@@UFRenderVert@@@@II@Z 100033d0 f i D3D9Render_mesh_processing.obj
 0001:00002430       ?_Throw_bad_array_new_length@std@@YAXXZ 10003430 f i D3D9Render_mesh_processing.obj
 0001:00002450       ?_Xlength@?$vector@HV?$allocator@H@std@@@std@@CAXXZ 10003450 f i D3D9Render_mesh_processing.obj
 0001:00002460       ?_Xlength@?$vector@PAVUTexture@@V?$allocator@PAVUTexture@@@std@@@std@@CAXXZ 10003460 f i D3D9Render_mesh_processing.obj
 0001:00002470       ?_Xlength@?$vector@U?$SurfKeyBucket@PAVUTexture@@UFRenderVert@@@@V?$allocator@U?$SurfKeyBucket@PAVUTexture@@UFRenderVert@@@@@std@@@std@@CAXXZ 10003470 f i D3D9Render_mesh_processing.obj
 0001:00002480       ?_Xlength@?$vector@UActorRenderData@@V?$allocator@UActorRenderData@@@std@@@std@@CAXXZ 10003480 f i D3D9Render_mesh_processing.obj
 0001:00002490       ?_Xlength@?$vector@UFRenderVert@@V?$allocator@UFRenderVert@@@std@@@std@@CAXXZ 10003490 f i D3D9Render_mesh_processing.obj
 0001:000024a0       ?at@?$UniqueValueArray@PAVUTexture@@@@QAEPAPAVUTexture@@H@Z 100034a0 f i D3D9Render_mesh_processing.obj
 0001:00002690       ?deallocate@?$allocator@H@std@@QAEXQAHI@Z 10003690 f i D3D9Render_mesh_processing.obj
 0001:00002710       ?deallocate@?$allocator@PAVUTexture@@@std@@QAEXQAPAVUTexture@@I@Z 10003710 f i D3D9Render_mesh_processing.obj
 0001:00002790       ?deallocate@?$allocator@U?$SurfKeyBucket@PAVUTexture@@UFRenderVert@@@@@std@@QAEXQAU?$SurfKeyBucket@PAVUTexture@@UFRenderVert@@@@I@Z 10003790 f i D3D9Render_mesh_processing.obj
 0001:00002810       ?deallocate@?$allocator@UActorRenderData@@@std@@QAEXQAUActorRenderData@@I@Z 10003810 f i D3D9Render_mesh_processing.obj
 0001:00002890       ?deallocate@?$allocator@UFRenderVert@@@std@@QAEXQAUFRenderVert@@I@Z 10003890 f i D3D9Render_mesh_processing.obj
 0001:00002910       ?get@?$SurfKeyBucketVector@PAVUTexture@@UFRenderVert@@@@QAEAAV?$vector@UFRenderVert@@V?$allocator@UFRenderVert@@@std@@@std@@PAVUTexture@@K@Z 10003910 f i D3D9Render_mesh_processing.obj
 0001:00002b00       ?insert@?$UniqueValueArray@PAVUTexture@@@@QAE_NHABQAVUTexture@@@Z 10003b00 f i D3D9Render_mesh_processing.obj
 0001:00002ba0       ?renderMeshActor@UD3D9RenderDevice@@QAEXPAUFSceneNode@@PAVAActor@@AAV?$vector@UActorRenderData@@V?$allocator@UActorRenderData@@@std@@@std@@PAUSpecialCoord@@@Z 10003ba0 f   D3D9Render_mesh_processing.obj
 0001:000040b0       ?renderSpriteGeo@UD3D9RenderDevice@@QAEXPAUFSceneNode@@ABVFVector@@MAAUFTextureInfo@@KVFPlane@@@Z 100050b0 f i D3D9Render_mesh_processing.obj
 0001:000040f0       ?reserve@?$vector@U?$SurfKeyBucket@PAVUTexture@@UFRenderVert@@@@V?$allocator@U?$SurfKeyBucket@PAVUTexture@@UFRenderVert@@@@@std@@@std@@QAEXI@Z 100050f0 f i D3D9Render_mesh_processing.obj
 0001:00004220       ?reserve@?$vector@UFRenderVert@@V?$allocator@UFRenderVert@@@std@@@std@@QAEXI@Z 10005220 f i D3D9Render_mesh_processing.obj
 0001:00004340       ?what@exception@std@@UBEPBDXZ 10005340 f i D3D9Render_mesh_processing.obj
 0001:00004350       ??$_Construct_in_place_by_deref@PAIPAPAI@std@@YAXAAPAIAAPAPAI@Z 10005350 f i c_gclip.obj
 0001:00004370       ??$_Copy_memmove@PAPAIPAPAI@std@@YAPAPAIPAPAI00@Z 10005370 f i c_gclip.obj
 0001:00004390       ??$_Copy_memmove_tail@PAPAI@std@@YAPAPAIQBDQAPAIII@Z 10005390 f i c_gclip.obj
 0001:000043b0       ??$_Uninitialized_copy_unchecked@PAPAIPAPAI@std@@YAPAPAIPAPAIQAPAI0@Z 100053b0 f i c_gclip.obj
 0001:000043c0       ??$_Uninitialized_value_construct_n_unchecked1@PAPAII@std@@YAPAPAIPAPAII@Z 100053c0 f i c_gclip.obj
 0001:000043e0       ??$_Zero_range@PAPAI@std@@YAPAPAIQAPAI0@Z 100053e0 f i c_gclip.obj
 0001:00004400       ??$uninitialized_copy@PAPAIPAPAI@std@@YAPAPAIQAPAI0PAPAI@Z 10005400 f i c_gclip.obj
 0001:00004410       ??0CGClip@@QAE@XZ          10005410 f   c_gclip.obj
 0001:000044c0       ??1?$deque@IV?$allocator@I@std@@@std@@QAE@XZ 100054c0 f i c_gclip.obj
 0001:00004520       ??1CGClip@@QAE@XZ          10005520 f   c_gclip.obj
 0001:00004580       ?CheckFrame@CGClip@@AAEXPBX@Z 10005580 f   c_gclip.obj
 0001:000045b0       ?CheckNewSelectHit@CGClip@@QAE_NXZ 100055b0 f   c_gclip.obj
 0001:000045c0       ?ClearHitNameStack@CGClip@@QAEXXZ 100055c0 f   c_gclip.obj
 0001:000045d0       ?ClipLine@CGClip@@QAEXAAUcl_line_t@1@@Z 100055d0 f   c_gclip.obj
 0001:00004720       ?ClipTri@CGClip@@QAEXAAUcl_tri_t@1@@Z 10005720 f   c_gclip.obj
 0001:000049b0       ?GetHitNameStackSize@CGClip@@QAEIXZ 100059b0 f   c_gclip.obj
 0001:000049c0       ?GetHitNameStackValues@CGClip@@QAEXPAII@Z 100059c0 f   c_gclip.obj
 0001:00004a20       ?PopHitName@CGClip@@QAEXXZ 10005a20 f   c_gclip.obj
 0001:00004a40       ?PushHitName@CGClip@@QAEXI@Z 10005a40 f   c_gclip.obj
 0001:00004ae0       ?SelectDrawLine@CGClip@@QAEXPBXPBUvec3_t@1@@Z 10005ae0 f   c_gclip.obj
 0001:00004b80       ?SelectDrawTri@CGClip@@QAEXPBXPBUvec3_t@1@@Z 10005b80 f   c_gclip.obj
 0001:00004c30       ?SelectModeEnd@CGClip@@QAEXXZ 10005c30 f   c_gclip.obj
 0001:00004c40       ?SelectModeStart@CGClip@@QAEXXZ 10005c40 f   c_gclip.obj
 0001:00004c60       ?SetCp@CGClip@@QAEXIPBM@Z  10005c60 f   c_gclip.obj
 0001:00004ca0       ?SetCpEnable@CGClip@@QAEXI_N@Z 10005ca0 f   c_gclip.obj
 0001:00004cd0       ?_Growmap@?$deque@IV?$allocator@I@std@@@std@@AAEXI@Z 10005cd0 f i c_gclip.obj
 0001:00004e10       ?_Tidy@?$deque@IV?$allocator@I@std@@@std@@AAEXXZ 10005e10 f i c_gclip.obj
 0001:00004ee0       ?_Xlen@?$deque@IV?$allocator@I@std@@@std@@CAXXZ 10005ee0 f i c_gclip.obj
 0001:00004ef0       ?deallocate@?$allocator@PAI@std@@QAEXQAPAII@Z 10005ef0 f i c_gclip.obj
 0001:00004f70       ??$_Construct@$00PBD@?$basic_string@DU?$char_traits@D@std@@V?$allocator@D@2@@std@@AAEXQBDI@Z 10005f70 f i D3D9DebugUtils.obj
 0001:00005030       ??$_Float_put_desired_precision@N@std@@YAH_JH@Z 10006030 f i D3D9DebugUtils.obj
 0001:00005070       ??$_Float_put_desired_precision@O@std@@YAH_JH@Z 10006070 f i D3D9DebugUtils.obj
 0001:000050b0       ??$_Fput_v3@$0A@@?$num_put@DV?$ostreambuf_iterator@DU?$char_traits@D@std@@@std@@@std@@ABE?AV?$ostreambuf_iterator@DU?$char_traits@D@std@@@1@V21@AAVios_base@1@DPBDI_N@Z 100060b0 f i D3D9DebugUtils.obj
 0001:00005510       ??$_Immortalize_memcpy_image@V_Iostream_error_category2@std@@@std@@YAABV_Iostream_error_category2@0@XZ 10006510 f i D3D9DebugUtils.obj
 0001:00005520       ??$_Maklocchr@D@std@@YADDPADABU_Cvtvec@@@Z 10006520 f i D3D9DebugUtils.obj
 0001:00005530       ??$_Maklocstr@D@std@@YAPADPBDPADABU_Cvtvec@@@Z 10006530 f i D3D9DebugUtils.obj
 0001:00005580       ??$_Reallocate_grow_by@V<lambda_1>@?1??insert@?$basic_string@DU?$char_traits@D@std@@V?$allocator@D@2@@std@@QAEAAV34@IID@Z@IID@?$basic_string@DU?$char_traits@D@std@@V?$allocator@D@2@@std@@AAEAAV01@IV<lambda_1>@?1??insert@01@QAEAAV01@IID@Z@IID@Z 10006580 f i D3D9DebugUtils.obj
 0001:000056c0       ??$use_facet@V?$ctype@D@std@@@std@@YAABV?$ctype@D@0@ABVlocale@0@@Z 100066c0 f i D3D9DebugUtils.obj
 0001:000058a0       ??$use_facet@V?$num_put@DV?$ostreambuf_iterator@DU?$char_traits@D@std@@@std@@@std@@@std@@YAABV?$num_put@DV?$ostreambuf_iterator@DU?$char_traits@D@std@@@std@@@0@ABVlocale@0@@Z 100068a0 f i D3D9DebugUtils.obj
 0001:00005a60       ??$use_facet@V?$numpunct@D@std@@@std@@YAABV?$numpunct@D@0@ABVlocale@0@@Z 10006a60 f i D3D9DebugUtils.obj
 0001:00005ba0       ??0?$basic_ios@DU?$char_traits@D@std@@@std@@IAE@XZ 10006ba0 f i D3D9DebugUtils.obj
 0001:00005c50       ??0?$basic_streambuf@DU?$char_traits@D@std@@@std@@IAE@XZ 10006c50 f i D3D9DebugUtils.obj
 0001:00005cf0       ??0?$basic_string@DU?$char_traits@D@std@@V?$allocator@D@2@@std@@QAE@ID@Z 10006cf0 f i D3D9DebugUtils.obj
 0001:00005de0       ??0?$fpos@U_Mbstatet@@@std@@QAE@_J@Z 10006de0 f i D3D9DebugUtils.obj
 0001:00005e10       ??0_Locinfo@std@@QAE@PBD@Z 10006e10 f i D3D9DebugUtils.obj
 0001:00005ed0       ??0_System_error@std@@IAE@Verror_code@1@ABV?$basic_string@DU?$char_traits@D@std@@V?$allocator@D@2@@1@@Z 10006ed0 f i D3D9DebugUtils.obj
 0001:00006190       ??0_System_error@std@@QAE@ABV01@@Z 10007190 f i D3D9DebugUtils.obj
 0001:00006220       ??0bad_cast@std@@QAE@ABV01@@Z 10007220 f i D3D9DebugUtils.obj
 0001:000062a0       ??0bad_cast@std@@QAE@XZ    100072a0 f i D3D9DebugUtils.obj
 0001:00006310       ??0failure@ios_base@std@@QAE@ABV012@@Z 10007310 f i D3D9DebugUtils.obj
 0001:000063c0       ??0failure@ios_base@std@@QAE@PBDABVerror_code@2@@Z 100073c0 f i D3D9DebugUtils.obj
 0001:000064c0       ??0ods_stream@@QAE@XZ      100074c0 f   D3D9DebugUtils.obj
 0001:000065e0       ??0runtime_error@std@@QAE@ABV01@@Z 100075e0 f i D3D9DebugUtils.obj
 0001:00006660       ??0sentry@?$basic_ostream@DU?$char_traits@D@std@@@std@@QAE@AAV12@@Z 10007660 f i D3D9DebugUtils.obj
 0001:00006700       ??0system_error@std@@QAE@ABV01@@Z 10007700 f i D3D9DebugUtils.obj
 0001:000067a0       ??1?$_Tidy_guard@V?$numpunct@D@std@@@std@@QAE@XZ 100077a0 f i D3D9DebugUtils.obj
 0001:00006800       ??1?$_Yarn@D@std@@QAE@XZ   10007800 f i D3D9DebugUtils.obj
 0001:00006850       ??1?$_Yarn@G@std@@QAE@XZ   10007850 f i D3D9DebugUtils.obj
 0001:000068a0       ??1?$basic_ios@DU?$char_traits@D@std@@@std@@UAE@XZ 100078a0 f i D3D9DebugUtils.obj
 0001:00006900       ??1?$basic_ostream@DU?$char_traits@D@std@@@std@@UAE@XZ 10007900 f i D3D9DebugUtils.obj
 0001:00006920       ??1?$basic_ostringstream@DU?$char_traits@D@std@@V?$allocator@D@2@@std@@UAE@XZ 10007920 f i D3D9DebugUtils.obj
 0001:000069f0       ??1?$basic_streambuf@DU?$char_traits@D@std@@@std@@UAE@XZ 100079f0 f i D3D9DebugUtils.obj
 0001:00006a30       ??1?$basic_string@DU?$char_traits@D@std@@V?$allocator@D@2@@std@@QAE@XZ 10007a30 f i D3D9DebugUtils.obj
 0001:00006a60       ??1?$basic_stringbuf@DU?$char_traits@D@std@@V?$allocator@D@2@@std@@UAE@XZ 10007a60 f i D3D9DebugUtils.obj
 0001:00006af0       ??1?$ctype@D@std@@MAE@XZ   10007af0 f i D3D9DebugUtils.obj
 0001:00006b90       ??1?$num_put@DV?$ostreambuf_iterator@DU?$char_traits@D@std@@@std@@@std@@MAE@XZ 10007b90 f i D3D9DebugUtils.obj
 0001:00006bf0       ??1?$numpunct@D@std@@MAE@XZ 10007bf0 f i D3D9DebugUtils.obj
 0001:00006c70       ??1?$unique_ptr@V_Facet_base@std@@U?$default_delete@V_Facet_base@std@@@2@@std@@QAE@XZ 10007c70 f i D3D9DebugUtils.obj
 0001:00006c80       ??1_Facet_base@std@@UAE@XZ 10007c80 f i D3D9DebugUtils.obj
 0001:00006c90       ??1_Locinfo@std@@QAE@XZ    10007c90 f i D3D9DebugUtils.obj
 0001:00006d90       ??1_Sentry_base@?$basic_ostream@DU?$char_traits@D@std@@@std@@QAE@XZ 10007d90 f i D3D9DebugUtils.obj
 0001:00006de0       ??1_System_error@std@@UAE@XZ 10007de0 f i D3D9DebugUtils.obj
 0001:00006e30       ??1bad_cast@std@@UAE@XZ    10007e30 f i D3D9DebugUtils.obj
 0001:00006e80       ??1ctype_base@std@@UAE@XZ  10007e80 f i D3D9DebugUtils.obj
 0001:00006ee0       ??1error_category@std@@UAE@XZ 10007ee0 f i D3D9DebugUtils.obj
 0001:00006ef0       ??1facet@locale@std@@MAE@XZ 10007ef0 f i D3D9DebugUtils.obj
 0001:00006f40       ??1failure@ios_base@std@@UAE@XZ 10007f40 f i D3D9DebugUtils.obj
 0001:00006f90       ??1ios_base@std@@UAE@XZ    10007f90 f i D3D9DebugUtils.obj
 0001:00006fe0       ??1locale@std@@QAE@XZ      10007fe0 f i D3D9DebugUtils.obj
 0001:00007000       ??1ods_buf@@UAE@XZ         10008000 f   D3D9DebugUtils.obj
 0001:000070a0       ??1ods_stream@@UAE@XZ      100080a0 f   D3D9DebugUtils.obj
 0001:00007140       ??1runtime_error@std@@UAE@XZ 10008140 f i D3D9DebugUtils.obj
 0001:00007190       ??1sentry@?$basic_ostream@DU?$char_traits@D@std@@@std@@QAE@XZ 10008190 f i D3D9DebugUtils.obj
 0001:00007200       ??1system_error@std@@UAE@XZ 10008200 f i D3D9DebugUtils.obj
 0001:00007250       ??6?$basic_ostream@DU?$char_traits@D@std@@@std@@QAEAAV01@K@Z 10008250 f i D3D9DebugUtils.obj
 0001:00007430       ??_D?$basic_ostringstream@DU?$char_traits@D@std@@V?$allocator@D@2@@std@@QAEXXZ 10008430 f i D3D9DebugUtils.obj
 0001:0000751e       ??_E?$basic_ostream@DU?$char_traits@D@std@@@std@@$4PPPPPPPM@A@AEPAXI@Z 1000851e f i D3D9DebugUtils.obj
 0001:00007526       ??_E?$basic_ostringstream@DU?$char_traits@D@std@@V?$allocator@D@2@@std@@$4PPPPPPPM@A@AEPAXI@Z 10008526 f i D3D9DebugUtils.obj
 0001:0000752e       ??_Eods_stream@@$4PPPPPPPM@A@AEPAXI@Z 1000852e f i D3D9DebugUtils.obj
 0001:00007540       ??_E?$basic_ios@DU?$char_traits@D@std@@@std@@UAEPAXI@Z 10008540 f i D3D9DebugUtils.obj
 0001:00007540       ??_G?$basic_ios@DU?$char_traits@D@std@@@std@@UAEPAXI@Z 10008540 f i D3D9DebugUtils.obj
 0001:000075b0       ??_E?$basic_ostream@DU?$char_traits@D@std@@@std@@UAEPAXI@Z 100085b0 f i D3D9DebugUtils.obj
 0001:000075b0       ??_G?$basic_ostream@DU?$char_traits@D@std@@@std@@UAEPAXI@Z 100085b0 f i D3D9DebugUtils.obj
 0001:00007640       ??_E?$basic_ostringstream@DU?$char_traits@D@std@@V?$allocator@D@2@@std@@UAEPAXI@Z 10008640 f i D3D9DebugUtils.obj
 0001:00007640       ??_G?$basic_ostringstream@DU?$char_traits@D@std@@V?$allocator@D@2@@std@@UAEPAXI@Z 10008640 f i D3D9DebugUtils.obj
 0001:00007670       ??_E?$basic_streambuf@DU?$char_traits@D@std@@@std@@UAEPAXI@Z 10008670 f i D3D9DebugUtils.obj
 0001:00007670       ??_G?$basic_streambuf@DU?$char_traits@D@std@@@std@@UAEPAXI@Z 10008670 f i D3D9DebugUtils.obj
 0001:000076c0       ??_E?$basic_stringbuf@DU?$char_traits@D@std@@V?$allocator@D@2@@std@@UAEPAXI@Z 100086c0 f i D3D9DebugUtils.obj
 0001:000076c0       ??_G?$basic_stringbuf@DU?$char_traits@D@std@@V?$allocator@D@2@@std@@UAEPAXI@Z 100086c0 f i D3D9DebugUtils.obj
 0001:00007760       ??_E?$ctype@D@std@@MAEPAXI@Z 10008760 f i D3D9DebugUtils.obj
 0001:00007760       ??_G?$ctype@D@std@@MAEPAXI@Z 10008760 f i D3D9DebugUtils.obj
 0001:00007810       ??_E?$num_put@DV?$ostreambuf_iterator@DU?$char_traits@D@std@@@std@@@std@@MAEPAXI@Z 10008810 f i D3D9DebugUtils.obj
 0001:00007810       ??_G?$num_put@DV?$ostreambuf_iterator@DU?$char_traits@D@std@@@std@@@std@@MAEPAXI@Z 10008810 f i D3D9DebugUtils.obj
 0001:00007880       ??_E?$numpunct@D@std@@MAEPAXI@Z 10008880 f i D3D9DebugUtils.obj
 0001:00007880       ??_G?$numpunct@D@std@@MAEPAXI@Z 10008880 f i D3D9DebugUtils.obj
 0001:00007910       ??_E_Facet_base@std@@UAEPAXI@Z 10008910 f i D3D9DebugUtils.obj
 0001:00007910       ??_G_Facet_base@std@@UAEPAXI@Z 10008910 f i D3D9DebugUtils.obj
 0001:00007940       ??_E_Iostream_error_category2@std@@UAEPAXI@Z 10008940 f i D3D9DebugUtils.obj
 0001:00007940       ??_G_Iostream_error_category2@std@@UAEPAXI@Z 10008940 f i D3D9DebugUtils.obj
 0001:00007960       ??_E_System_error@std@@UAEPAXI@Z 10008960 f i D3D9DebugUtils.obj
 0001:00007960       ??_G_System_error@std@@UAEPAXI@Z 10008960 f i D3D9DebugUtils.obj
 0001:000079d0       ??_Ebad_cast@std@@UAEPAXI@Z 100089d0 f i D3D9DebugUtils.obj
 0001:000079d0       ??_Gbad_cast@std@@UAEPAXI@Z 100089d0 f i D3D9DebugUtils.obj
 0001:00007a40       ??_Ectype_base@std@@UAEPAXI@Z 10008a40 f i D3D9DebugUtils.obj
 0001:00007a40       ??_Gctype_base@std@@UAEPAXI@Z 10008a40 f i D3D9DebugUtils.obj
 0001:00007ab0       ??_Efacet@locale@std@@MAEPAXI@Z 10008ab0 f i D3D9DebugUtils.obj
 0001:00007ab0       ??_Gfacet@locale@std@@MAEPAXI@Z 10008ab0 f i D3D9DebugUtils.obj
 0001:00007b20       ??_Efailure@ios_base@std@@UAEPAXI@Z 10008b20 f i D3D9DebugUtils.obj
 0001:00007b20       ??_Gfailure@ios_base@std@@UAEPAXI@Z 10008b20 f i D3D9DebugUtils.obj
 0001:00007b90       ??_Eios_base@std@@UAEPAXI@Z 10008b90 f i D3D9DebugUtils.obj
 0001:00007b90       ??_Gios_base@std@@UAEPAXI@Z 10008b90 f i D3D9DebugUtils.obj
 0001:00007bf0       ??_Eods_buf@@UAEPAXI@Z     10008bf0 f i D3D9DebugUtils.obj
 0001:00007bf0       ??_Gods_buf@@UAEPAXI@Z     10008bf0 f i D3D9DebugUtils.obj
 0001:00007c20       ??_Eods_stream@@UAEPAXI@Z  10008c20 f i D3D9DebugUtils.obj
 0001:00007c20       ??_Gods_stream@@UAEPAXI@Z  10008c20 f i D3D9DebugUtils.obj
 0001:00007ca0       ??_Eruntime_error@std@@UAEPAXI@Z 10008ca0 f i D3D9DebugUtils.obj
 0001:00007ca0       ??_Gruntime_error@std@@UAEPAXI@Z 10008ca0 f i D3D9DebugUtils.obj
 0001:00007d10       ??_Esystem_error@std@@UAEPAXI@Z 10008d10 f i D3D9DebugUtils.obj
 0001:00007d10       ??_Gsystem_error@std@@UAEPAXI@Z 10008d10 f i D3D9DebugUtils.obj
 0001:00007d80       ?HexString@@YA?AV?$basic_string@DU?$char_traits@D@std@@V?$allocator@D@2@@std@@KK@Z 10008d80 f   D3D9DebugUtils.obj
 0001:00007f50       ?_Deallocate_for_capacity@?$basic_string@DU?$char_traits@D@std@@V?$allocator@D@2@@std@@CAXAAV?$allocator@D@2@QADI@Z 10008f50 f i D3D9DebugUtils.obj
 0001:00007fd0       ?_Decref@facet@locale@std@@UAEPAV_Facet_base@3@XZ 10008fd0 f i D3D9DebugUtils.obj
 0001:00007ff0       ?_Ffmt@?$num_put@DV?$ostreambuf_iterator@DU?$char_traits@D@std@@@std@@@std@@ABAPADPADDH@Z 10008ff0 f i D3D9DebugUtils.obj
 0001:000080c0       ?_Getcat@?$numpunct@D@std@@SAIPAPBVfacet@locale@2@PBV42@@Z 100090c0 f i D3D9DebugUtils.obj
 0001:00008250       ?_Incref@facet@locale@std@@UAEXXZ 10009250 f i D3D9DebugUtils.obj
 0001:00008260       ?_Init@?$basic_streambuf@DU?$char_traits@D@std@@@std@@IAEXXZ 10009260 f i D3D9DebugUtils.obj
 0001:000082c0       ?_Iput@?$num_put@DV?$ostreambuf_iterator@DU?$char_traits@D@std@@@std@@@std@@ABA?AV?$ostreambuf_iterator@DU?$char_traits@D@std@@@2@V32@AAVios_base@2@DPADI@Z 100092c0 f i D3D9DebugUtils.obj
 0001:000086c0       ?_Lock@?$basic_streambuf@DU?$char_traits@D@std@@@std@@UAEXXZ 100096c0 f i D3D9DebugUtils.obj
 0001:000086d0       ?_Osfx@?$basic_ostream@DU?$char_traits@D@std@@@std@@QAEXXZ 100096d0 f i D3D9DebugUtils.obj
 0001:00008760       ?_Put@?$num_put@DV?$ostreambuf_iterator@DU?$char_traits@D@std@@@std@@@std@@ABA?AV?$ostreambuf_iterator@DU?$char_traits@D@std@@@2@V32@PBDI@Z 10009760 f i D3D9DebugUtils.obj
 0001:000087d0       ?_Rep@?$num_put@DV?$ostreambuf_iterator@DU?$char_traits@D@std@@@std@@@std@@ABA?AV?$ostreambuf_iterator@DU?$char_traits@D@std@@@2@V32@DI@Z 100097d0 f i D3D9DebugUtils.obj
 0001:00008840       ?_Throw_bad_cast@std@@YAXXZ 10009840 f i D3D9DebugUtils.obj
 0001:00008860       ?_Tidy@?$basic_stringbuf@DU?$char_traits@D@std@@V?$allocator@D@2@@std@@IAEXXZ 10009860 f i D3D9DebugUtils.obj
 0001:00008910       ?_Unlock@?$basic_streambuf@DU?$char_traits@D@std@@@std@@UAEXXZ 10009910 f i D3D9DebugUtils.obj
 0001:00008920       ?_Xlen_string@std@@YAXXZ   10009920 f i D3D9DebugUtils.obj
 0001:00008930       ?_Xran@?$_String_val@U?$_Simple_types@D@std@@@std@@SAXXZ 10009930 f i D3D9DebugUtils.obj
 0001:00008940       ?append@?$basic_string@DU?$char_traits@D@std@@V?$allocator@D@2@@std@@QAEAAV12@ID@Z 10009940 f i D3D9DebugUtils.obj
 0001:00008ab0       ?append@?$basic_string@DU?$char_traits@D@std@@V?$allocator@D@2@@std@@QAEAAV12@QBDI@Z 10009ab0 f i D3D9DebugUtils.obj
 0001:00008c20       ?clear@ios_base@std@@QAEXH_N@Z 10009c20 f i D3D9DebugUtils.obj
 0001:00008ca0       ?deallocate@?$allocator@D@std@@QAEXQADI@Z 10009ca0 f i D3D9DebugUtils.obj
 0001:00008d20       ?default_error_condition@error_category@std@@UBE?AVerror_condition@2@H@Z 10009d20 f i D3D9DebugUtils.obj
 0001:00008d40       ?dereferenceFName@@YAPBDABVFName@@@Z 10009d40 f   D3D9DebugUtils.obj
 0001:00008dd0       ?do_decimal_point@?$numpunct@D@std@@MBEDXZ 10009dd0 f i D3D9DebugUtils.obj
 0001:00008de0       ?do_falsename@?$numpunct@D@std@@MBE?AV?$basic_string@DU?$char_traits@D@std@@V?$allocator@D@2@@2@XZ 10009de0 f i D3D9DebugUtils.obj
 0001:00008e70       ?do_grouping@?$numpunct@D@std@@MBE?AV?$basic_string@DU?$char_traits@D@std@@V?$allocator@D@2@@2@XZ 10009e70 f i D3D9DebugUtils.obj
 0001:00008f00       ?do_narrow@?$ctype@D@std@@MBEDDD@Z 10009f00 f i D3D9DebugUtils.obj
 0001:00008f10       ?do_narrow@?$ctype@D@std@@MBEPBDPBD0DPAD@Z 10009f10 f i D3D9DebugUtils.obj
 0001:00008f30       ?do_put@?$num_put@DV?$ostreambuf_iterator@DU?$char_traits@D@std@@@std@@@std@@MBE?AV?$ostreambuf_iterator@DU?$char_traits@D@std@@@2@V32@AAVios_base@2@DJ@Z 10009f30 f i D3D9DebugUtils.obj
 0001:00008ff0       ?do_put@?$num_put@DV?$ostreambuf_iterator@DU?$char_traits@D@std@@@std@@@std@@MBE?AV?$ostreambuf_iterator@DU?$char_traits@D@std@@@2@V32@AAVios_base@2@DK@Z 10009ff0 f i D3D9DebugUtils.obj
 0001:000090b0       ?do_put@?$num_put@DV?$ostreambuf_iterator@DU?$char_traits@D@std@@@std@@@std@@MBE?AV?$ostreambuf_iterator@DU?$char_traits@D@std@@@2@V32@AAVios_base@2@DN@Z 1000a0b0 f i D3D9DebugUtils.obj
 0001:000092e0       ?do_put@?$num_put@DV?$ostreambuf_iterator@DU?$char_traits@D@std@@@std@@@std@@MBE?AV?$ostreambuf_iterator@DU?$char_traits@D@std@@@2@V32@AAVios_base@2@DO@Z 1000a2e0 f i D3D9DebugUtils.obj
 0001:00009510       ?do_put@?$num_put@DV?$ostreambuf_iterator@DU?$char_traits@D@std@@@std@@@std@@MBE?AV?$ostreambuf_iterator@DU?$char_traits@D@std@@@2@V32@AAVios_base@2@DPBX@Z 1000a510 f i D3D9DebugUtils.obj
 0001:00009570       ?do_put@?$num_put@DV?$ostreambuf_iterator@DU?$char_traits@D@std@@@std@@@std@@MBE?AV?$ostreambuf_iterator@DU?$char_traits@D@std@@@2@V32@AAVios_base@2@D_J@Z 1000a570 f i D3D9DebugUtils.obj
 0001:00009640       ?do_put@?$num_put@DV?$ostreambuf_iterator@DU?$char_traits@D@std@@@std@@@std@@MBE?AV?$ostreambuf_iterator@DU?$char_traits@D@std@@@2@V32@AAVios_base@2@D_K@Z 1000a640 f i D3D9DebugUtils.obj
 0001:00009710       ?do_put@?$num_put@DV?$ostreambuf_iterator@DU?$char_traits@D@std@@@std@@@std@@MBE?AV?$ostreambuf_iterator@DU?$char_traits@D@std@@@2@V32@AAVios_base@2@D_N@Z 1000a710 f i D3D9DebugUtils.obj
 0001:000099b0       ?do_thousands_sep@?$numpunct@D@std@@MBEDXZ 1000a9b0 f i D3D9DebugUtils.obj
 0001:000099c0       ?do_tolower@?$ctype@D@std@@MBEDD@Z 1000a9c0 f i D3D9DebugUtils.obj
 0001:000099e0       ?do_tolower@?$ctype@D@std@@MBEPBDPADPBD@Z 1000a9e0 f i D3D9DebugUtils.obj
 0001:00009a10       ?do_toupper@?$ctype@D@std@@MBEDD@Z 1000aa10 f i D3D9DebugUtils.obj
 0001:00009a30       ?do_toupper@?$ctype@D@std@@MBEPBDPADPBD@Z 1000aa30 f i D3D9DebugUtils.obj
 0001:00009a60       ?do_truename@?$numpunct@D@std@@MBE?AV?$basic_string@DU?$char_traits@D@std@@V?$allocator@D@2@@2@XZ 1000aa60 f i D3D9DebugUtils.obj
 0001:00009af0       ?do_widen@?$ctype@D@std@@MBEDD@Z 1000aaf0 f i D3D9DebugUtils.obj
 0001:00009b00       ?do_widen@?$ctype@D@std@@MBEPBDPBD0PAD@Z 1000ab00 f i D3D9DebugUtils.obj
 0001:00009b20       ?equivalent@error_category@std@@UBE_NABVerror_code@2@H@Z 1000ab20 f i D3D9DebugUtils.obj
 0001:00009b50       ?equivalent@error_category@std@@UBE_NHABVerror_condition@2@@Z 1000ab50 f i D3D9DebugUtils.obj
 0001:00009b90       ?flush@?$basic_ostream@DU?$char_traits@D@std@@@std@@QAEAAV12@XZ 1000ab90 f i D3D9DebugUtils.obj
 0001:00009cf0       ?grouping@?$numpunct@D@std@@QBE?AV?$basic_string@DU?$char_traits@D@std@@V?$allocator@D@2@@2@XZ 1000acf0 f i D3D9DebugUtils.obj
 0001:00009d50       ?hex@std@@YAAAVios_base@1@AAV21@@Z 1000ad50 f i D3D9DebugUtils.obj
 0001:00009d70       ?imbue@?$basic_streambuf@DU?$char_traits@D@std@@@std@@MAEXABVlocale@2@@Z 1000ad70 f i D3D9DebugUtils.obj
 0001:00009d80       ?init@?$basic_ios@DU?$char_traits@D@std@@@std@@IAEXPAV?$basic_streambuf@DU?$char_traits@D@std@@@2@_N@Z 1000ad80 f i D3D9DebugUtils.obj
 0001:00009f20       ?make_error_code@std@@YA?AVerror_code@1@W4io_errc@1@@Z 1000af20 f i D3D9DebugUtils.obj
 0001:00009f40       ?message@_Iostream_error_category2@std@@UBE?AV?$basic_string@DU?$char_traits@D@std@@V?$allocator@D@2@@2@H@Z 1000af40 f i D3D9DebugUtils.obj
 0001:0000a030       ?name@_Iostream_error_category2@std@@UBEPBDXZ 1000b030 f i D3D9DebugUtils.obj
 0001:0000a040       ?overflow@?$basic_streambuf@DU?$char_traits@D@std@@@std@@MAEHH@Z 1000b040 f i D3D9DebugUtils.obj
 0001:0000a050       ?overflow@?$basic_stringbuf@DU?$char_traits@D@std@@V?$allocator@D@2@@std@@MAEHH@Z 1000b050 f i D3D9DebugUtils.obj
 0001:0000a1f0       ?pbackfail@?$basic_streambuf@DU?$char_traits@D@std@@@std@@MAEHH@Z 1000b1f0 f i D3D9DebugUtils.obj
 0001:0000a200       ?pbackfail@?$basic_stringbuf@DU?$char_traits@D@std@@V?$allocator@D@2@@std@@MAEHH@Z 1000b200 f i D3D9DebugUtils.obj
 0001:0000a260       ?seekoff@?$basic_streambuf@DU?$char_traits@D@std@@@std@@MAE?AV?$fpos@U_Mbstatet@@@2@_JHH@Z 1000b260 f i D3D9DebugUtils.obj
 0001:0000a290       ?seekoff@?$basic_stringbuf@DU?$char_traits@D@std@@V?$allocator@D@2@@std@@MAE?AV?$fpos@U_Mbstatet@@@2@_JHH@Z 1000b290 f i D3D9DebugUtils.obj
 0001:0000a460       ?seekpos@?$basic_streambuf@DU?$char_traits@D@std@@@std@@MAE?AV?$fpos@U_Mbstatet@@@2@V32@H@Z 1000b460 f i D3D9DebugUtils.obj
 0001:0000a490       ?seekpos@?$basic_stringbuf@DU?$char_traits@D@std@@V?$allocator@D@2@@std@@MAE?AV?$fpos@U_Mbstatet@@@2@V32@H@Z 1000b490 f i D3D9DebugUtils.obj
 0001:0000a5e0       ?setbuf@?$basic_streambuf@DU?$char_traits@D@std@@@std@@MAEPAV12@PAD_J@Z 1000b5e0 f i D3D9DebugUtils.obj
 0001:0000a5f0       ?setstate@?$basic_ios@DU?$char_traits@D@std@@@std@@QAEXH_N@Z 1000b5f0 f i D3D9DebugUtils.obj
 0001:0000a620       ?showmanyc@?$basic_streambuf@DU?$char_traits@D@std@@@std@@MAE_JXZ 1000b620 f i D3D9DebugUtils.obj
 0001:0000a630       ?str@?$basic_stringbuf@DU?$char_traits@D@std@@V?$allocator@D@2@@std@@QGBE?AV?$basic_string@DU?$char_traits@D@std@@V?$allocator@D@2@@2@XZ 1000b630 f i D3D9DebugUtils.obj
 0001:0000a810       ?sync@?$basic_streambuf@DU?$char_traits@D@std@@@std@@MAEHXZ 1000b810 f i D3D9DebugUtils.obj
 0001:0000a820       ?sync@ods_buf@@MAEHXZ      1000b820 f   D3D9DebugUtils.obj
 0001:0000a9a0       ?uflow@?$basic_streambuf@DU?$char_traits@D@std@@@std@@MAEHXZ 1000b9a0 f i D3D9DebugUtils.obj
 0001:0000a9d0       ?underflow@?$basic_streambuf@DU?$char_traits@D@std@@@std@@MAEHXZ 1000b9d0 f i D3D9DebugUtils.obj
 0001:0000a9e0       ?underflow@?$basic_stringbuf@DU?$char_traits@D@std@@V?$allocator@D@2@@std@@MAEHXZ 1000b9e0 f i D3D9DebugUtils.obj
 0001:0000aa50       ?uppercase@std@@YAAAVios_base@1@AAV21@@Z 1000ba50 f i D3D9DebugUtils.obj
 0001:0000aa60       ?xsgetn@?$basic_streambuf@DU?$char_traits@D@std@@@std@@MAE_JPAD_J@Z 1000ba60 f i D3D9DebugUtils.obj
 0001:0000ab30       ?xsputn@?$basic_streambuf@DU?$char_traits@D@std@@@std@@MAE_JPBD_J@Z 1000bb30 f i D3D9DebugUtils.obj
 0001:0000ac10       ___local_stdio_printf_options 1000bc10 f i D3D9DebugUtils.obj
 0001:0000ac20       _sprintf_s                 1000bc20 f i D3D9DebugUtils.obj
 0001:0000ac50       ??$?6U?$char_traits@D@std@@@std@@YAAAV?$basic_ostream@DU?$char_traits@D@std@@@0@AAV10@PBD@Z 1000bc50 f i D3D9Render.obj
 0001:0000aea0       ??$Cast@VUD3D9RenderDevice@@VURenderDevice@@@@YAPAVUD3D9RenderDevice@@PAVURenderDevice@@@Z 1000bea0 f i D3D9Render.obj
 0001:0000aed0       ??$ConstructObject@VURenderIterator@@@@YAPAVURenderIterator@@PAVUClass@@PAVUObject@@VFName@@K@Z 1000bed0 f i D3D9Render.obj
 0001:0000aef0       ??$_Checked_x86_x64_countr_zero@_K@std@@YAH_K@Z 1000bef0 f i D3D9Render.obj
 0001:0000af20       ??$_Copy_memmove@PAPAUFSurfaceFacet@@PAPAU1@@std@@YAPAPAUFSurfaceFacet@@PAPAU1@00@Z 1000bf20 f i D3D9Render.obj
 0001:0000af40       ??$_Copy_memmove@PAPAVAActor@@PAPAV1@@std@@YAPAPAVAActor@@PAPAV1@00@Z 1000bf40 f i D3D9Render.obj
 0001:0000af60       ??$_Copy_memmove@PAPAVABrush@@PAPAV1@@std@@YAPAPAVABrush@@PAPAV1@00@Z 1000bf60 f i D3D9Render.obj
 0001:0000af80       ??$_Copy_memmove@PAPAVASkyZoneInfo@@PAPAV1@@std@@YAPAPAVASkyZoneInfo@@PAPAV1@00@Z 1000bf80 f i D3D9Render.obj
 0001:0000afa0       ??$_Copy_memmove@PAUFTransTexture@@PAU1@@std@@YAPAUFTransTexture@@PAU1@00@Z 1000bfa0 f i D3D9Render.obj
 0001:0000afc0       ??$_Copy_memmove_tail@PAPAUFSurfaceFacet@@@std@@YAPAPAUFSurfaceFacet@@QBDQAPAU1@II@Z 1000bfc0 f i D3D9Render.obj
 0001:0000afe0       ??$_Copy_memmove_tail@PAPAVAActor@@@std@@YAPAPAVAActor@@QBDQAPAV1@II@Z 1000bfe0 f i D3D9Render.obj
 0001:0000b000       ??$_Copy_memmove_tail@PAPAVABrush@@@std@@YAPAPAVABrush@@QBDQAPAV1@II@Z 1000c000 f i D3D9Render.obj
 0001:0000b020       ??$_Copy_memmove_tail@PAPAVASkyZoneInfo@@@std@@YAPAPAVASkyZoneInfo@@QBDQAPAV1@II@Z 1000c020 f i D3D9Render.obj
 0001:0000b040       ??$_Copy_memmove_tail@PAUFTransTexture@@@std@@YAPAUFTransTexture@@QBDQAU1@II@Z 1000c040 f i D3D9Render.obj
 0001:0000b060       ??$_Countr_zero_bsf@_K@std@@YAH_K@Z 1000c060 f i D3D9Render.obj
 0001:0000b080       ??$_Countr_zero_tzcnt@_K@std@@YAH_K@Z 1000c080 f i D3D9Render.obj
 0001:0000b0a0       ??$_Destroy_range@V?$allocator@U?$SurfKeyBucket@PAVUTexture@@USurfaceData@UD3D9Render@@@@@std@@@std@@YAXPAU?$SurfKeyBucket@PAVUTexture@@USurfaceData@UD3D9Render@@@@QAU1@AAV?$allocator@U?$SurfKeyBucket@PAVUTexture@@USurfaceData@UD3D9Render@@@@@0@@Z 1000c0a0 f i D3D9Render.obj
 0001:0000b140       ??$_Destroy_range@V?$allocator@USurfaceData@UD3D9Render@@@std@@@std@@YAXPAUSurfaceData@UD3D9Render@@QAU12@AAV?$allocator@USurfaceData@UD3D9Render@@@0@@Z 1000c140 f i D3D9Render.obj
 0001:0000b250       ??$_Destroy_range@V?$allocator@V?$unique_ptr@VRTXAnchor@@U?$default_delete@VRTXAnchor@@@std@@@std@@@std@@@std@@YAXPAV?$unique_ptr@VRTXAnchor@@U?$default_delete@VRTXAnchor@@@std@@@0@QAV10@AAV?$allocator@V?$unique_ptr@VRTXAnchor@@U?$default_delete@VRTXAnchor@@@std@@@std@@@0@@Z 1000c250 f i D3D9Render.obj
 0001:0000b340       ??$_Emplace_reallocate@$$V@?$vector@U?$SurfKeyBucket@PAVUTexture@@USurfaceData@UD3D9Render@@@@V?$allocator@U?$SurfKeyBucket@PAVUTexture@@USurfaceData@UD3D9Render@@@@@std@@@std@@AAEPAU?$SurfKeyBucket@PAVUTexture@@USurfaceData@UD3D9Render@@@@QAU2@@Z 1000c340 f i D3D9Render.obj
 0001:0000b530       ??$_Emplace_reallocate@$$V@?$vector@USurfaceData@UD3D9Render@@V?$allocator@USurfaceData@UD3D9Render@@@std@@@std@@AAEPAUSurfaceData@UD3D9Render@@QAU23@@Z 1000c530 f i D3D9Render.obj
 0001:0000b8e0       ??$_Emplace_reallocate@ABH@?$vector@HV?$allocator@H@std@@@std@@AAEPAHQAHABH@Z 1000c8e0 f i D3D9Render.obj
 0001:0000ba60       ??$_Emplace_reallocate@ABQAUFSurfaceFacet@@@?$vector@PAUFSurfaceFacet@@V?$allocator@PAUFSurfaceFacet@@@std@@@std@@AAEPAPAUFSurfaceFacet@@QAPAU2@ABQAU2@@Z 1000ca60 f i D3D9Render.obj
 0001:0000bbe0       ??$_Emplace_reallocate@ABQAVAActor@@@?$vector@PAVAActor@@V?$allocator@PAVAActor@@@std@@@std@@AAEPAPAVAActor@@QAPAV2@ABQAV2@@Z 1000cbe0 f i D3D9Render.obj
 0001:0000bd60       ??$_Emplace_reallocate@PAVABrush@@@?$vector@PAVABrush@@V?$allocator@PAVABrush@@@std@@@std@@AAEPAPAVABrush@@QAPAV2@$$QAPAV2@@Z 1000cd60 f i D3D9Render.obj
 0001:0000bee0       ??$_Emplace_reallocate@PAVASkyZoneInfo@@@?$vector@PAVASkyZoneInfo@@V?$allocator@PAVASkyZoneInfo@@@std@@@std@@AAEPAPAVASkyZoneInfo@@QAPAV2@$$QAPAV2@@Z 1000cee0 f i D3D9Render.obj
 0001:0000c060       ??$_Find_last@H@?$_Hash@V?$_Uset_traits@HV?$_Uhash_compare@HU?$hash@H@std@@U?$equal_to@H@2@@std@@V?$allocator@H@2@$0A@@std@@@std@@IBE?AU?$_Hash_find_last_result@PAU?$_List_node@HPAX@std@@@1@ABHI@Z 1000d060 f i D3D9Render.obj
 0001:0000c0d0       ??$_Find_last@PAVAActor@@@?$_Hash@V?$_Uset_traits@PAVAActor@@V?$_Uhash_compare@PAVAActor@@U?$hash@PAVAActor@@@std@@U?$equal_to@PAVAActor@@@3@@std@@V?$allocator@PAVAActor@@@3@$0A@@std@@@std@@IBE?AU?$_Hash_find_last_result@PAU?$_List_node@PAVAActor@@PAX@std@@@1@ABQAVAActor@@I@Z 1000d0d0 f i D3D9Render.obj
 0001:0000c140       ??$_Find_last@PAVUTexture@@@?$_Hash@V?$_Umap_traits@PAVUTexture@@UFTextureInfo@@V?$_Uhash_compare@PAVUTexture@@U?$hash@PAVUTexture@@@std@@U?$equal_to@PAVUTexture@@@3@@std@@V?$allocator@U?$pair@QAVUTexture@@UFTextureInfo@@@std@@@4@$0A@@std@@@std@@IBE?AU?$_Hash_find_last_result@PAU?$_List_node@U?$pair@QAVUTexture@@UFTextureInfo@@@std@@PAX@std@@@1@ABQAVUTexture@@I@Z 1000d140 f i D3D9Render.obj
 0001:0000c1b0       ??$_Fnv1a_append_value@H@std@@YAIIABH@Z 1000d1b0 f i D3D9Render.obj
 0001:0000c1f0       ??$_Fnv1a_append_value@PAVAActor@@@std@@YAIIABQAVAActor@@@Z 1000d1f0 f i D3D9Render.obj
 0001:0000c230       ??$_Fnv1a_append_value@PAVUTexture@@@std@@YAIIABQAVUTexture@@@Z 1000d230 f i D3D9Render.obj
 0001:0000c270       ??$_Hash_representation@H@std@@YAIABH@Z 1000d270 f i D3D9Render.obj
 0001:0000c290       ??$_Hash_representation@PAVAActor@@@std@@YAIABQAVAActor@@@Z 1000d290 f i D3D9Render.obj
 0001:0000c2b0       ??$_Hash_representation@PAVUTexture@@@std@@YAIABQAVUTexture@@@Z 1000d2b0 f i D3D9Render.obj
 0001:0000c2d0       ??$_Try_emplace@ABQAVUTexture@@$$V@?$_Hash@V?$_Umap_traits@PAVUTexture@@UFTextureInfo@@V?$_Uhash_compare@PAVUTexture@@U?$hash@PAVUTexture@@@std@@U?$equal_to@PAVUTexture@@@3@@std@@V?$allocator@U?$pair@QAVUTexture@@UFTextureInfo@@@std@@@4@$0A@@std@@@std@@IAE?AU?$pair@PAU?$_List_node@U?$pair@QAVUTexture@@UFTextureInfo@@@std@@PAX@std@@_N@1@ABQAVUTexture@@@Z 1000d2d0 f i D3D9Render.obj
 0001:0000c4d0       ??$_Uninitialized_move@PAU?$SurfKeyBucket@PAVUTexture@@USurfaceData@UD3D9Render@@@@V?$allocator@U?$SurfKeyBucket@PAVUTexture@@USurfaceData@UD3D9Render@@@@@std@@@std@@YAPAU?$SurfKeyBucket@PAVUTexture@@USurfaceData@UD3D9Render@@@@QAU1@0PAU1@AAV?$allocator@U?$SurfKeyBucket@PAVUTexture@@USurfaceData@UD3D9Render@@@@@0@@Z 1000d4d0 f i D3D9Render.obj
 0001:0000c5a0       ??$_Uninitialized_move@PAUSurfaceData@UD3D9Render@@V?$allocator@USurfaceData@UD3D9Render@@@std@@@std@@YAPAUSurfaceData@UD3D9Render@@QAU12@0PAU12@AAV?$allocator@USurfaceData@UD3D9Render@@@0@@Z 1000d5a0 f i D3D9Render.obj
 0001:0000c730       ??$emplace@H@?$_Hash@V?$_Uset_traits@HV?$_Uhash_compare@HU?$hash@H@std@@U?$equal_to@H@2@@std@@V?$allocator@H@2@$0A@@std@@@std@@QAE?AU?$pair@V?$_List_const_iterator@V?$_List_val@U?$_List_simple_types@H@std@@@std@@@std@@_N@1@$$QAH@Z 1000d730 f i D3D9Render.obj
 0001:0000c910       ??$endl@DU?$char_traits@D@std@@@std@@YAAAV?$basic_ostream@DU?$char_traits@D@std@@@0@AAV10@@Z 1000d910 f i D3D9Render.obj
 0001:0000c9d0       ??$fill@PAV?$_List_unchecked_const_iterator@V?$_List_val@U?$_List_simple_types@H@std@@@std@@U_Iterator_base0@2@@std@@V12@@std@@YAXQAV?$_List_unchecked_const_iterator@V?$_List_val@U?$_List_simple_types@H@std@@@std@@U_Iterator_base0@2@@0@0ABV10@@Z 1000d9d0 f i D3D9Render.obj
 0001:0000ca40       ??$fill@PAV?$_List_unchecked_const_iterator@V?$_List_val@U?$_List_simple_types@PAVAActor@@@std@@@std@@U_Iterator_base0@2@@std@@V12@@std@@YAXQAV?$_List_unchecked_const_iterator@V?$_List_val@U?$_List_simple_types@PAVAActor@@@std@@@std@@U_Iterator_base0@2@@0@0ABV10@@Z 1000da40 f i D3D9Render.obj
 0001:0000cab0       ??$fill@PAV?$_List_unchecked_iterator@V?$_List_val@U?$_List_simple_types@U?$pair@QAVUTexture@@UFTextureInfo@@@std@@@std@@@std@@@std@@V12@@std@@YAXQAV?$_List_unchecked_iterator@V?$_List_val@U?$_List_simple_types@U?$pair@QAVUTexture@@UFTextureInfo@@@std@@@std@@@std@@@0@0ABV10@@Z 1000dab0 f i D3D9Render.obj
 0001:0000cb20       ??$uninitialized_fill@PAV?$_List_unchecked_const_iterator@V?$_List_val@U?$_List_simple_types@H@std@@@std@@U_Iterator_base0@2@@std@@V12@@std@@YAXQAV?$_List_unchecked_const_iterator@V?$_List_val@U?$_List_simple_types@H@std@@@std@@U_Iterator_base0@2@@0@0ABV10@@Z 1000db20 f i D3D9Render.obj
 0001:0000cb40       ??$uninitialized_fill@PAV?$_List_unchecked_const_iterator@V?$_List_val@U?$_List_simple_types@PAVAActor@@@std@@@std@@U_Iterator_base0@2@@std@@V12@@std@@YAXQAV?$_List_unchecked_const_iterator@V?$_List_val@U?$_List_simple_types@PAVAActor@@@std@@@std@@U_Iterator_base0@2@@0@0ABV10@@Z 1000db40 f i D3D9Render.obj
 0001:0000cb60       ??$uninitialized_fill@PAV?$_List_unchecked_iterator@V?$_List_val@U?$_List_simple_types@U?$pair@$$CBV?$basic_string@DU?$char_traits@D@std@@V?$allocator@D@2@@std@@V12@@std@@@std@@@std@@@std@@V12@@std@@YAXQAV?$_List_unchecked_iterator@V?$_List_val@U?$_List_simple_types@U?$pair@$$CBV?$basic_string@DU?$char_traits@D@std@@V?$allocator@D@2@@std@@V12@@std@@@std@@@std@@@0@0ABV10@@Z 1000db60 f i D3D9Render.obj
 0001:0000cb80       ??$uninitialized_fill@PAV?$_List_unchecked_iterator@V?$_List_val@U?$_List_simple_types@U?$pair@QAVUTexture@@UFTextureInfo@@@std@@@std@@@std@@@std@@V12@@std@@YAXQAV?$_List_unchecked_iterator@V?$_List_val@U?$_List_simple_types@U?$pair@QAVUTexture@@UFTextureInfo@@@std@@@std@@@std@@@0@0ABV10@@Z 1000db80 f i D3D9Render.obj
 0001:0000cba0       ??0?$SurfKeyBucketVector@PAUFTextureInfo@@V?$vector@UFTransTexture@@V?$allocator@UFTransTexture@@@std@@@std@@@@QAE@XZ 1000dba0 f i D3D9Render.obj
 0001:0000cc00       ??0?$SurfKeyBucketVector@PAVUTexture@@USurfaceData@UD3D9Render@@@@QAE@XZ 1000dc00 f i D3D9Render.obj
 0001:0000cc60       ??0?$array@V?$SurfKeyBucketVector@PAVUTexture@@USurfaceData@UD3D9Render@@@@$01@std@@QAE@XZ 1000dc60 f i D3D9Render.obj
 0001:0000ccc0       ??0?$basic_string@DU?$char_traits@D@std@@V?$allocator@D@2@@std@@QAE@ABV01@@Z 1000dcc0 f i D3D9Render.obj
 0001:0000cd90       ??0?$unordered_map@PAVUTexture@@UFTextureInfo@@U?$hash@PAVUTexture@@@std@@U?$equal_to@PAVUTexture@@@4@V?$allocator@U?$pair@QAVUTexture@@UFTextureInfo@@@std@@@4@@std@@QAE@XZ 1000dd90 f i D3D9Render.obj
 0001:0000ceb0       ??0?$unordered_set@HU?$hash@H@std@@U?$equal_to@H@2@V?$allocator@H@2@@std@@QAE@XZ 1000deb0 f i D3D9Render.obj
 0001:0000cfd0       ??0?$unordered_set@PAVAActor@@U?$hash@PAVAActor@@@std@@U?$equal_to@PAVAActor@@@3@V?$allocator@PAVAActor@@@3@@std@@QAE@XZ 1000dfd0 f i D3D9Render.obj
 0001:0000d0f0       ??0?$vector@PAVAActor@@V?$allocator@PAVAActor@@@std@@@std@@QAE@ABV01@@Z 1000e0f0 f i D3D9Render.obj
 0001:0000d1e0       ??0?$vector@UFTransTexture@@V?$allocator@UFTransTexture@@@std@@@std@@QAE@ABV01@@Z 1000e1e0 f i D3D9Render.obj
 0001:0000d2c0       ??0FSurfaceInfo@@QAE@XZ    1000e2c0 f i D3D9Render.obj
 0001:0000d300       ??0FrameActors@UD3D9Render@@QAE@XZ 1000e300 f i D3D9Render.obj
 0001:0000d390       ??0UD3D9Render@@QAE@XZ     1000e390 f   D3D9Render.obj
 0001:0000d430       ??1?$SurfKeyBucketVector@PAUFTextureInfo@@V?$vector@UFTransTexture@@V?$allocator@UFTransTexture@@@std@@@std@@@@QAE@XZ 1000e430 f i D3D9Render.obj
 0001:0000d480       ??1?$SurfKeyBucketVector@PAVUTexture@@USurfaceData@UD3D9Render@@@@QAE@XZ 1000e480 f i D3D9Render.obj
 0001:0000d510       ??1?$_Alloc_construct_ptr@V?$allocator@U?$_List_node@HPAX@std@@@std@@@std@@QAE@XZ 1000e510 f i D3D9Render.obj
 0001:0000d530       ??1?$_Alloc_construct_ptr@V?$allocator@U?$_List_node@PAVAActor@@PAX@std@@@std@@@std@@QAE@XZ 1000e530 f i D3D9Render.obj
 0001:0000d550       ??1?$_Alloc_construct_ptr@V?$allocator@U?$_List_node@U?$pair@QAVUTexture@@UFTextureInfo@@@std@@PAX@std@@@std@@@std@@QAE@XZ 1000e550 f i D3D9Render.obj
 0001:0000d5a0       ??1?$_Hash@V?$_Umap_traits@PAVUTexture@@UFTextureInfo@@V?$_Uhash_compare@PAVUTexture@@U?$hash@PAVUTexture@@@std@@U?$equal_to@PAVUTexture@@@3@@std@@V?$allocator@U?$pair@QAVUTexture@@UFTextureInfo@@@std@@@4@$0A@@std@@@std@@QAE@XZ 1000e5a0 f i D3D9Render.obj
 0001:0000d650       ??1?$_Hash@V?$_Umap_traits@V?$basic_string@DU?$char_traits@D@std@@V?$allocator@D@2@@std@@V12@V?$_Uhash_compare@V?$basic_string@DU?$char_traits@D@std@@V?$allocator@D@2@@std@@U?$hash@V?$basic_string@DU?$char_traits@D@std@@V?$allocator@D@2@@std@@@2@U?$equal_to@V?$basic_string@DU?$char_traits@D@std@@V?$allocator@D@2@@std@@@2@@2@V?$allocator@U?$pair@$$CBV?$basic_string@DU?$char_traits@D@std@@V?$allocator@D@2@@std@@V12@@std@@@2@$0A@@std@@@std@@QAE@XZ 1000e650 f i D3D9Render.obj
 0001:0000d6d0       ??1?$_Hash@V?$_Uset_traits@HV?$_Uhash_compare@HU?$hash@H@std@@U?$equal_to@H@2@@std@@V?$allocator@H@2@$0A@@std@@@std@@QAE@XZ 1000e6d0 f i D3D9Render.obj
 0001:0000d780       ??1?$_Hash@V?$_Uset_traits@PAVAActor@@V?$_Uhash_compare@PAVAActor@@U?$hash@PAVAActor@@@std@@U?$equal_to@PAVAActor@@@3@@std@@V?$allocator@PAVAActor@@@3@$0A@@std@@@std@@QAE@XZ 1000e780 f i D3D9Render.obj
 0001:0000d830       ??1?$_Hash_vec@V?$allocator@V?$_List_unchecked_const_iterator@V?$_List_val@U?$_List_simple_types@H@std@@@std@@U_Iterator_base0@2@@std@@@std@@@std@@QAE@XZ 1000e830 f i D3D9Render.obj
 0001:0000d860       ??1?$_Hash_vec@V?$allocator@V?$_List_unchecked_const_iterator@V?$_List_val@U?$_List_simple_types@PAVAActor@@@std@@@std@@U_Iterator_base0@2@@std@@@std@@@std@@QAE@XZ 1000e860 f i D3D9Render.obj
 0001:0000d890       ??1?$_Hash_vec@V?$allocator@V?$_List_unchecked_iterator@V?$_List_val@U?$_List_simple_types@U?$pair@$$CBV?$basic_string@DU?$char_traits@D@std@@V?$allocator@D@2@@std@@V12@@std@@@std@@@std@@@std@@@std@@@std@@QAE@XZ 1000e890 f i D3D9Render.obj
 0001:0000d8c0       ??1?$_Hash_vec@V?$allocator@V?$_List_unchecked_iterator@V?$_List_val@U?$_List_simple_types@U?$pair@QAVUTexture@@UFTextureInfo@@@std@@@std@@@std@@@std@@@std@@@std@@QAE@XZ 1000e8c0 f i D3D9Render.obj
 0001:0000d8f0       ??1?$_List_node_emplace_op2@V?$allocator@U?$_List_node@HPAX@std@@@std@@@std@@QAE@XZ 1000e8f0 f i D3D9Render.obj
 0001:0000d940       ??1?$_List_node_emplace_op2@V?$allocator@U?$_List_node@PAVAActor@@PAX@std@@@std@@@std@@QAE@XZ 1000e940 f i D3D9Render.obj
 0001:0000d990       ??1?$_List_node_emplace_op2@V?$allocator@U?$_List_node@U?$pair@QAVUTexture@@UFTextureInfo@@@std@@PAX@std@@@std@@@std@@QAE@XZ 1000e990 f i D3D9Render.obj
 0001:0000d9f0       ??1?$_Tidy_guard@V?$vector@PAVAActor@@V?$allocator@PAVAActor@@@std@@@std@@@std@@QAE@XZ 1000e9f0 f i D3D9Render.obj
 0001:0000da30       ??1?$_Tidy_guard@V?$vector@UFTransTexture@@V?$allocator@UFTransTexture@@@std@@@std@@@std@@QAE@XZ 1000ea30 f i D3D9Render.obj
 0001:0000da50       ??1?$_Uninitialized_backout_al@V?$allocator@U?$SurfKeyBucket@PAVUTexture@@USurfaceData@UD3D9Render@@@@@std@@@std@@QAE@XZ 1000ea50 f i D3D9Render.obj
 0001:0000da70       ??1?$_Uninitialized_backout_al@V?$allocator@USurfaceData@UD3D9Render@@@std@@@std@@QAE@XZ 1000ea70 f i D3D9Render.obj
 0001:0000dad0       ??1?$array@V?$SurfKeyBucketVector@PAVUTexture@@USurfaceData@UD3D9Render@@@@$01@std@@QAE@XZ 1000ead0 f i D3D9Render.obj
 0001:0000db20       ??1?$array@V?$array@V?$SurfKeyBucketVector@PAVUTexture@@USurfaceData@UD3D9Render@@@@$01@std@@$0EA@@std@@QAE@XZ 1000eb20 f i D3D9Render.obj
 0001:0000db70       ??1?$list@HV?$allocator@H@std@@@std@@QAE@XZ 1000eb70 f i D3D9Render.obj
 0001:0000dbe0       ??1?$list@PAVAActor@@V?$allocator@PAVAActor@@@std@@@std@@QAE@XZ 1000ebe0 f i D3D9Render.obj
 0001:0000dc50       ??1?$list@U?$pair@$$CBV?$basic_string@DU?$char_traits@D@std@@V?$allocator@D@2@@std@@V12@@std@@V?$allocator@U?$pair@$$CBV?$basic_string@DU?$char_traits@D@std@@V?$allocator@D@2@@std@@V12@@std@@@2@@std@@QAE@XZ 1000ec50 f i D3D9Render.obj
 0001:0000dd30       ??1?$list@U?$pair@QAVUTexture@@UFTextureInfo@@@std@@V?$allocator@U?$pair@QAVUTexture@@UFTextureInfo@@@std@@@2@@std@@QAE@XZ 1000ed30 f i D3D9Render.obj
 0001:0000ddb0       ??1?$unordered_map@PAVUTexture@@UFTextureInfo@@U?$hash@PAVUTexture@@@std@@U?$equal_to@PAVUTexture@@@4@V?$allocator@U?$pair@QAVUTexture@@UFTextureInfo@@@std@@@4@@std@@QAE@XZ 1000edb0 f i D3D9Render.obj
 0001:0000de00       ??1?$unordered_map@V?$basic_string@DU?$char_traits@D@std@@V?$allocator@D@2@@std@@V12@U?$hash@V?$basic_string@DU?$char_traits@D@std@@V?$allocator@D@2@@std@@@2@U?$equal_to@V?$basic_string@DU?$char_traits@D@std@@V?$allocator@D@2@@std@@@2@V?$allocator@U?$pair@$$CBV?$basic_string@DU?$char_traits@D@std@@V?$allocator@D@2@@std@@V12@@std@@@2@@std@@QAE@XZ 1000ee00 f i D3D9Render.obj
 0001:0000de80       ??1?$unordered_set@HU?$hash@H@std@@U?$equal_to@H@2@V?$allocator@H@2@@std@@QAE@XZ 1000ee80 f i D3D9Render.obj
 0001:0000ded0       ??1?$unordered_set@PAVAActor@@U?$hash@PAVAActor@@@std@@U?$equal_to@PAVAActor@@@3@V?$allocator@PAVAActor@@@3@@std@@QAE@XZ 1000eed0 f i D3D9Render.obj
 0001:0000df20       ??1?$vector@PAUFSurfaceFacet@@V?$allocator@PAUFSurfaceFacet@@@std@@@std@@QAE@XZ 1000ef20 f i D3D9Render.obj
 0001:0000df50       ??1?$vector@PAVAActor@@V?$allocator@PAVAActor@@@std@@@std@@QAE@XZ 1000ef50 f i D3D9Render.obj
 0001:0000df80       ??1?$vector@PAVABrush@@V?$allocator@PAVABrush@@@std@@@std@@QAE@XZ 1000ef80 f i D3D9Render.obj
 0001:0000dfb0       ??1?$vector@PAVASkyZoneInfo@@V?$allocator@PAVASkyZoneInfo@@@std@@@std@@QAE@XZ 1000efb0 f i D3D9Render.obj
 0001:0000dfe0       ??1?$vector@U?$SurfKeyBucket@PAUFTextureInfo@@V?$vector@UFTransTexture@@V?$allocator@UFTransTexture@@@std@@@std@@@@V?$allocator@U?$SurfKeyBucket@PAUFTextureInfo@@V?$vector@UFTransTexture@@V?$allocator@UFTransTexture@@@std@@@std@@@@@std@@@std@@QAE@XZ 1000efe0 f i D3D9Render.obj
 0001:0000dff0       ??1?$vector@U?$SurfKeyBucket@PAVUTexture@@USurfaceData@UD3D9Render@@@@V?$allocator@U?$SurfKeyBucket@PAVUTexture@@USurfaceData@UD3D9Render@@@@@std@@@std@@QAE@XZ 1000eff0 f i D3D9Render.obj
 0001:0000e040       ??1?$vector@UActorRenderData@@V?$allocator@UActorRenderData@@@std@@@std@@QAE@XZ 1000f040 f i D3D9Render.obj
 0001:0000e050       ??1?$vector@UFTransTexture@@V?$allocator@UFTransTexture@@@std@@@std@@QAE@XZ 1000f050 f i D3D9Render.obj
 0001:0000e060       ??1?$vector@USurfaceData@UD3D9Render@@V?$allocator@USurfaceData@UD3D9Render@@@std@@@std@@QAE@XZ 1000f060 f i D3D9Render.obj
 0001:0000e0b0       ??1?$vector@V?$unique_ptr@VRTXAnchor@@U?$default_delete@VRTXAnchor@@@std@@@std@@V?$allocator@V?$unique_ptr@VRTXAnchor@@U?$default_delete@VRTXAnchor@@@std@@@std@@@2@@std@@QAE@XZ 1000f0b0 f i D3D9Render.obj
 0001:0000e150       ??1?$vector@V?$vector@UFTransTexture@@V?$allocator@UFTransTexture@@@std@@@std@@V?$allocator@V?$vector@UFTransTexture@@V?$allocator@UFTransTexture@@@std@@@std@@@2@@std@@QAE@XZ 1000f150 f i D3D9Render.obj
 0001:0000e220       ??1FrameActors@UD3D9Render@@QAE@XZ 1000f220 f i D3D9Render.obj
 0001:0000e300       ??1ModelFacets@UD3D9Render@@QAE@XZ 1000f300 f i D3D9Render.obj
 0001:0000e360       ??1_Clear_guard@?$_Hash@V?$_Umap_traits@PAVUTexture@@UFTextureInfo@@V?$_Uhash_compare@PAVUTexture@@U?$hash@PAVUTexture@@@std@@U?$equal_to@PAVUTexture@@@3@@std@@V?$allocator@U?$pair@QAVUTexture@@UFTextureInfo@@@std@@@4@$0A@@std@@@std@@QAE@XZ 1000f360 f i D3D9Render.obj
 0001:0000e430       ??1_Clear_guard@?$_Hash@V?$_Uset_traits@HV?$_Uhash_compare@HU?$hash@H@std@@U?$equal_to@H@2@@std@@V?$allocator@H@2@$0A@@std@@@std@@QAE@XZ 1000f430 f i D3D9Render.obj
 0001:0000e500       ??1_Clear_guard@?$_Hash@V?$_Uset_traits@PAVAActor@@V?$_Uhash_compare@PAVAActor@@U?$hash@PAVAActor@@@std@@U?$equal_to@PAVAActor@@@3@@std@@V?$allocator@PAVAActor@@@3@$0A@@std@@@std@@QAE@XZ 1000f500 f i D3D9Render.obj
 0001:0000e5d0       ??1_Range_eraser@?$_Hash@V?$_Umap_traits@PAVUTexture@@UFTextureInfo@@V?$_Uhash_compare@PAVUTexture@@U?$hash@PAVUTexture@@@std@@U?$equal_to@PAVUTexture@@@3@@std@@V?$allocator@U?$pair@QAVUTexture@@UFTextureInfo@@@std@@@4@$0A@@std@@@std@@QAE@XZ 1000f5d0 f i D3D9Render.obj
 0001:0000e5f0       ??1_Range_eraser@?$_Hash@V?$_Uset_traits@HV?$_Uhash_compare@HU?$hash@H@std@@U?$equal_to@H@2@@std@@V?$allocator@H@2@$0A@@std@@@std@@QAE@XZ 1000f5f0 f i D3D9Render.obj
 0001:0000e610       ??1_Range_eraser@?$_Hash@V?$_Uset_traits@PAVAActor@@V?$_Uhash_compare@PAVAActor@@U?$hash@PAVAActor@@@std@@U?$equal_to@PAVAActor@@@3@@std@@V?$allocator@PAVAActor@@@3@$0A@@std@@@std@@QAE@XZ 1000f610 f i D3D9Render.obj
 0001:0000e630       ??1_Reallocation_guard@?$vector@PAUFSurfaceFacet@@V?$allocator@PAUFSurfaceFacet@@@std@@@std@@QAE@XZ 1000f630 f i D3D9Render.obj
 0001:0000e650       ??1_Reallocation_guard@?$vector@PAVAActor@@V?$allocator@PAVAActor@@@std@@@std@@QAE@XZ 1000f650 f i D3D9Render.obj
 0001:0000e670       ??1_Reallocation_guard@?$vector@PAVABrush@@V?$allocator@PAVABrush@@@std@@@std@@QAE@XZ 1000f670 f i D3D9Render.obj
 0001:0000e690       ??1_Reallocation_guard@?$vector@PAVASkyZoneInfo@@V?$allocator@PAVASkyZoneInfo@@@std@@@std@@QAE@XZ 1000f690 f i D3D9Render.obj
 0001:0000e6b0       ??1_Reallocation_guard@?$vector@U?$SurfKeyBucket@PAVUTexture@@USurfaceData@UD3D9Render@@@@V?$allocator@U?$SurfKeyBucket@PAVUTexture@@USurfaceData@UD3D9Render@@@@@std@@@std@@QAE@XZ 1000f6b0 f i D3D9Render.obj
 0001:0000e6e0       ??1_Reallocation_guard@?$vector@USurfaceData@UD3D9Render@@V?$allocator@USurfaceData@UD3D9Render@@@std@@@std@@QAE@XZ 1000f6e0 f i D3D9Render.obj
 0001:0000e740       ??1_Simple_reallocation_guard@?$vector@PAUFSurfaceFacet@@V?$allocator@PAUFSurfaceFacet@@@std@@@std@@QAE@XZ 1000f740 f i D3D9Render.obj
 0001:0000e760       ??1_Simple_reallocation_guard@?$vector@PAVAActor@@V?$allocator@PAVAActor@@@std@@@std@@QAE@XZ 1000f760 f i D3D9Render.obj
 0001:0000e780       ??4reference@?$bitset@$0EA@@std@@QAEAAV012@_N@Z 1000f780 f i D3D9Render.obj
 0001:0000e7e0       ??Breference@?$bitset@$0EA@@std@@QBE_NXZ 1000f7e0 f i D3D9Render.obj
 0001:0000e820       ??_EUD3D9Render@@UAEPAXI@Z 1000f820 f i D3D9Render.obj
 0001:0000e820       ??_GUD3D9Render@@UAEPAXI@Z 1000f820 f i D3D9Render.obj
 0001:0000e880       ?CallFunction@UD3D9Render@@UAEXAAUFFrame@@PAXPAVUFunction@@@Z 1000f880 f i D3D9Render.obj
 0001:0000e890       ?DrawActor@UD3D9Render@@UAEXPAUFSceneNode@@PAVAActor@@@Z 1000f890 f   D3D9Render.obj
 0001:0000ead0       ?DrawStats@UD3D9Render@@UAEXPAUFSceneNode@@@Z 1000fad0 f i D3D9Render.obj
 0001:0000eae0       ?DrawWorld@UD3D9Render@@UAEXPAUFSceneNode@@@Z 1000fae0 f   D3D9Render.obj
 0001:0000f080       ?GetStateName@UD3D9Render@@UAE?AVFName@@XZ 10010080 f i D3D9Render.obj
 0001:0000f090       ?InternalConstructor@UD3D9Render@@SAXPAX@Z 10010090 f i D3D9Render.obj
 0001:0000f0a0       ?StaticClass@UD3D9Render@@SAPAVUClass@@XZ 100100a0 f   D3D9Render.obj
 0001:0000f0b0       ?StaticConfigName@UD3D9Render@@SAPBDXZ 100100b0 f   D3D9Render.obj
 0001:0000f0c0       ?StaticConstructor@UD3D9Render@@SAXPAVUClass@@@Z 100100c0 f   D3D9Render.obj
 0001:0000f170       ?StaticConstructorThunk@UD3D9Render@@QAEXXZ 10010170 f i D3D9Render.obj
 0001:0000f180       ?_Assign_grow@?$_Hash_vec@V?$allocator@V?$_List_unchecked_const_iterator@V?$_List_val@U?$_List_simple_types@H@std@@@std@@U_Iterator_base0@2@@std@@@std@@@std@@QAEXIV?$_List_unchecked_const_iterator@V?$_List_val@U?$_List_simple_types@H@std@@@std@@U_Iterator_base0@2@@2@@Z 10010180 f i D3D9Render.obj
 0001:0000f220       ?_Assign_grow@?$_Hash_vec@V?$allocator@V?$_List_unchecked_const_iterator@V?$_List_val@U?$_List_simple_types@PAVAActor@@@std@@@std@@U_Iterator_base0@2@@std@@@std@@@std@@QAEXIV?$_List_unchecked_const_iterator@V?$_List_val@U?$_List_simple_types@PAVAActor@@@std@@@std@@U_Iterator_base0@2@@2@@Z 10010220 f i D3D9Render.obj
 0001:0000f2c0       ?_Assign_grow@?$_Hash_vec@V?$allocator@V?$_List_unchecked_iterator@V?$_List_val@U?$_List_simple_types@U?$pair@QAVUTexture@@UFTextureInfo@@@std@@@std@@@std@@@std@@@std@@@std@@QAEXIV?$_List_unchecked_iterator@V?$_List_val@U?$_List_simple_types@U?$pair@QAVUTexture@@UFTextureInfo@@@std@@@std@@@std@@@2@@Z 100102c0 f i D3D9Render.obj
 0001:0000f360       ?_Forced_rehash@?$_Hash@V?$_Umap_traits@PAVUTexture@@UFTextureInfo@@V?$_Uhash_compare@PAVUTexture@@U?$hash@PAVUTexture@@@std@@U?$equal_to@PAVUTexture@@@3@@std@@V?$allocator@U?$pair@QAVUTexture@@UFTextureInfo@@@std@@@4@$0A@@std@@@std@@IAEXI@Z 10010360 f i D3D9Render.obj
 0001:0000f4f0       ?_Forced_rehash@?$_Hash@V?$_Uset_traits@HV?$_Uhash_compare@HU?$hash@H@std@@U?$equal_to@H@2@@std@@V?$allocator@H@2@$0A@@std@@@std@@IAEXI@Z 100104f0 f i D3D9Render.obj
 0001:0000f680       ?_Forced_rehash@?$_Hash@V?$_Uset_traits@PAVAActor@@V?$_Uhash_compare@PAVAActor@@U?$hash@PAVAActor@@@std@@U?$equal_to@PAVAActor@@@3@@std@@V?$allocator@PAVAActor@@@3@$0A@@std@@@std@@IAEXI@Z 10010680 f i D3D9Render.obj
 0001:0000f810       ?_Insert_new_node_before@?$_Hash@V?$_Uset_traits@PAVAActor@@V?$_Uhash_compare@PAVAActor@@U?$hash@PAVAActor@@@std@@U?$equal_to@PAVAActor@@@3@@std@@V?$allocator@PAVAActor@@@3@$0A@@std@@@std@@IAEPAU?$_List_node@PAVAActor@@PAX@2@IQAU32@0@Z 10010810 f i D3D9Render.obj
 0001:0000f870       ?_Rehash_for_1@?$_Hash@V?$_Uset_traits@PAVAActor@@V?$_Uhash_compare@PAVAActor@@U?$hash@PAVAActor@@@std@@U?$equal_to@PAVAActor@@@3@@std@@V?$allocator@PAVAActor@@@3@$0A@@std@@@std@@IAEXXZ 10010870 f i D3D9Render.obj
 0001:0000f900       ?_Tidy@?$vector@U?$SurfKeyBucket@PAUFTextureInfo@@V?$vector@UFTransTexture@@V?$allocator@UFTransTexture@@@std@@@std@@@@V?$allocator@U?$SurfKeyBucket@PAUFTextureInfo@@V?$vector@UFTransTexture@@V?$allocator@UFTransTexture@@@std@@@std@@@@@std@@@std@@AAEXXZ 10010900 f i D3D9Render.obj
 0001:0000fa60       ?_Tidy@?$vector@U?$SurfKeyBucket@PAVUTexture@@USurfaceData@UD3D9Render@@@@V?$allocator@U?$SurfKeyBucket@PAVUTexture@@USurfaceData@UD3D9Render@@@@@std@@@std@@AAEXXZ 10010a60 f i D3D9Render.obj
 0001:0000fab0       ?_Tidy@?$vector@UActorRenderData@@V?$allocator@UActorRenderData@@@std@@@std@@AAEXXZ 10010ab0 f i D3D9Render.obj
 0001:0000fc30       ?_Tidy@?$vector@UFTransTexture@@V?$allocator@UFTransTexture@@@std@@@std@@AAEXXZ 10010c30 f i D3D9Render.obj
 0001:0000fd80       ?_Unchecked_erase@?$_Hash@V?$_Umap_traits@PAVUTexture@@UFTextureInfo@@V?$_Uhash_compare@PAVUTexture@@U?$hash@PAVUTexture@@@std@@U?$equal_to@PAVUTexture@@@3@@std@@V?$allocator@U?$pair@QAVUTexture@@UFTextureInfo@@@std@@@4@$0A@@std@@@std@@AAEPAU?$_List_node@U?$pair@QAVUTexture@@UFTextureInfo@@@std@@PAX@2@PAU32@QAU32@@Z 10010d80 f i D3D9Render.obj
 0001:0000ff00       ?_Unchecked_erase@?$_Hash@V?$_Uset_traits@HV?$_Uhash_compare@HU?$hash@H@std@@U?$equal_to@H@2@@std@@V?$allocator@H@2@$0A@@std@@@std@@AAEPAU?$_List_node@HPAX@2@PAU32@QAU32@@Z 10010f00 f i D3D9Render.obj
 0001:00010070       ?_Unchecked_erase@?$_Hash@V?$_Uset_traits@PAVAActor@@V?$_Uhash_compare@PAVAActor@@U?$hash@PAVAActor@@@std@@U?$equal_to@PAVAActor@@@3@@std@@V?$allocator@PAVAActor@@@3@$0A@@std@@@std@@AAEPAU?$_List_node@PAVAActor@@PAX@2@PAU32@QAU32@@Z 10011070 f i D3D9Render.obj
 0001:000101e0       ?_Xlength@?$vector@PAUFSurfaceFacet@@V?$allocator@PAUFSurfaceFacet@@@std@@@std@@CAXXZ 100111e0 f i D3D9Render.obj
 0001:000101f0       ?_Xlength@?$vector@PAVAActor@@V?$allocator@PAVAActor@@@std@@@std@@CAXXZ 100111f0 f i D3D9Render.obj
 0001:00010200       ?_Xlength@?$vector@PAVABrush@@V?$allocator@PAVABrush@@@std@@@std@@CAXXZ 10011200 f i D3D9Render.obj
 0001:00010210       ?_Xlength@?$vector@PAVASkyZoneInfo@@V?$allocator@PAVASkyZoneInfo@@@std@@@std@@CAXXZ 10011210 f i D3D9Render.obj
 0001:00010220       ?_Xlength@?$vector@U?$SurfKeyBucket@PAVUTexture@@USurfaceData@UD3D9Render@@@@V?$allocator@U?$SurfKeyBucket@PAVUTexture@@USurfaceData@UD3D9Render@@@@@std@@@std@@CAXXZ 10011220 f i D3D9Render.obj
 0001:00010230       ?_Xlength@?$vector@UFTransTexture@@V?$allocator@UFTransTexture@@@std@@@std@@CAXXZ 10011230 f i D3D9Render.obj
 0001:00010240       ?_Xlength@?$vector@USurfaceData@UD3D9Render@@V?$allocator@USurfaceData@UD3D9Render@@@std@@@std@@CAXXZ 10011240 f i D3D9Render.obj
 0001:00010270       ?calculateSurfaceFacet@SurfaceData@UD3D9Render@@QAEXPAVULevel@@K@Z 10011270 f   D3D9Render.obj
 0001:00010630       ?count@?$_Hash@V?$_Umap_traits@PAVUTexture@@UFTextureInfo@@V?$_Uhash_compare@PAVUTexture@@U?$hash@PAVUTexture@@@std@@U?$equal_to@PAVUTexture@@@3@@std@@V?$allocator@U?$pair@QAVUTexture@@UFTextureInfo@@@std@@@4@$0A@@std@@@std@@QBEIABQAVUTexture@@@Z 10011630 f i D3D9Render.obj
 0001:00010670       ?deallocate@?$allocator@PAUFSurfaceFacet@@@std@@QAEXQAPAUFSurfaceFacet@@I@Z 10011670 f i D3D9Render.obj
 0001:000106f0       ?deallocate@?$allocator@PAVAActor@@@std@@QAEXQAPAVAActor@@I@Z 100116f0 f i D3D9Render.obj
 0001:00010770       ?deallocate@?$allocator@PAVABrush@@@std@@QAEXQAPAVABrush@@I@Z 10011770 f i D3D9Render.obj
 0001:000107f0       ?deallocate@?$allocator@PAVASkyZoneInfo@@@std@@QAEXQAPAVASkyZoneInfo@@I@Z 100117f0 f i D3D9Render.obj
 0001:00010870       ?deallocate@?$allocator@U?$SurfKeyBucket@PAVUTexture@@USurfaceData@UD3D9Render@@@@@std@@QAEXQAU?$SurfKeyBucket@PAVUTexture@@USurfaceData@UD3D9Render@@@@I@Z 10011870 f i D3D9Render.obj
 0001:000108f0       ?deallocate@?$allocator@U?$_List_node@HPAX@std@@@std@@QAEXQAU?$_List_node@HPAX@2@I@Z 100118f0 f i D3D9Render.obj
 0001:00010970       ?deallocate@?$allocator@U?$_List_node@PAVAActor@@PAX@std@@@std@@QAEXQAU?$_List_node@PAVAActor@@PAX@2@I@Z 10011970 f i D3D9Render.obj
 0001:000109f0       ?deallocate@?$allocator@USurfaceData@UD3D9Render@@@std@@QAEXQAUSurfaceData@UD3D9Render@@I@Z 100119f0 f i D3D9Render.obj
 0001:00010af0       ?deallocate@?$allocator@V?$_List_unchecked_const_iterator@V?$_List_val@U?$_List_simple_types@H@std@@@std@@U_Iterator_base0@2@@std@@@std@@QAEXQAV?$_List_unchecked_const_iterator@V?$_List_val@U?$_List_simple_types@H@std@@@std@@U_Iterator_base0@2@@2@I@Z 10011af0 f i D3D9Render.obj
 0001:00010b70       ?deallocate@?$allocator@V?$_List_unchecked_const_iterator@V?$_List_val@U?$_List_simple_types@PAVAActor@@@std@@@std@@U_Iterator_base0@2@@std@@@std@@QAEXQAV?$_List_unchecked_const_iterator@V?$_List_val@U?$_List_simple_types@PAVAActor@@@std@@@std@@U_Iterator_base0@2@@2@I@Z 10011b70 f i D3D9Render.obj
 0001:00010bf0       ?deallocate@?$allocator@V?$_List_unchecked_iterator@V?$_List_val@U?$_List_simple_types@U?$pair@$$CBV?$basic_string@DU?$char_traits@D@std@@V?$allocator@D@2@@std@@V12@@std@@@std@@@std@@@std@@@std@@QAEXQAV?$_List_unchecked_iterator@V?$_List_val@U?$_List_simple_types@U?$pair@$$CBV?$basic_string@DU?$char_traits@D@std@@V?$allocator@D@2@@std@@V12@@std@@@std@@@std@@@2@I@Z 10011bf0 f i D3D9Render.obj
 0001:00010c70       ?deallocate@?$allocator@V?$_List_unchecked_iterator@V?$_List_val@U?$_List_simple_types@U?$pair@QAVUTexture@@UFTextureInfo@@@std@@@std@@@std@@@std@@@std@@QAEXQAV?$_List_unchecked_iterator@V?$_List_val@U?$_List_simple_types@U?$pair@QAVUTexture@@UFTextureInfo@@@std@@@std@@@std@@@2@I@Z 10011c70 f i D3D9Render.obj
 0001:00010cf0       ?debugf@@YAXW4EName@@PBDZZ 10011cf0 f i D3D9Render.obj
 0001:00010d00       ?drawActorSwitch@UD3D9Render@@AAEXPAUFSceneNode@@PAVUD3D9RenderDevice@@PAVAActor@@AAV?$vector@UActorRenderData@@V?$allocator@UActorRenderData@@@std@@@std@@PAUParentCoord@1@@Z 10011d00 f   D3D9Render.obj
 0001:00010df0       ?drawFrame@UD3D9Render@@AAEXPAUFSceneNode@@PAVUD3D9RenderDevice@@AAUModelFacets@1@AAUFrameActors@1@AAV?$unordered_map@PAVUTexture@@UFTextureInfo@@U?$hash@PAVUTexture@@@std@@U?$equal_to@PAVUTexture@@@4@V?$allocator@U?$pair@QAVUTexture@@UFTextureInfo@@@std@@@4@@std@@_N@Z 10011df0 f   D3D9Render.obj
 0001:00011550       ?drawPawnExtras@UD3D9Render@@AAEXPAUFSceneNode@@PAVUD3D9RenderDevice@@PAVAPawn@@AAV?$vector@UActorRenderData@@V?$allocator@UActorRenderData@@@std@@@std@@AAUSpecialCoord@@@Z 10012550 f   D3D9Render.obj
 0001:000115c0       ?executeBufferedTileDraws@UD3D9RenderDevice@@QAEXXZ 100125c0 f i D3D9Render.obj
 0001:00011680       ?getLevelModelFacets@UD3D9Render@@AAEXPAUFSceneNode@@AAUModelFacets@1@@Z 10012680 f   D3D9Render.obj
 0001:00011bb0       ?insert@?$_Hash@V?$_Uset_traits@PAVAActor@@V?$_Uhash_compare@PAVAActor@@U?$hash@PAVAActor@@@std@@U?$equal_to@PAVAActor@@@3@@std@@V?$allocator@PAVAActor@@@3@$0A@@std@@@std@@QAE?AU?$pair@V?$_List_const_iterator@V?$_List_val@U?$_List_simple_types@PAVAActor@@@std@@@std@@@std@@_N@2@$$QAPAVAActor@@@Z 10012bb0 f i D3D9Render.obj
 0001:00011d00       ?insert@?$_Hash@V?$_Uset_traits@PAVAActor@@V?$_Uhash_compare@PAVAActor@@U?$hash@PAVAActor@@@std@@U?$equal_to@PAVAActor@@@3@@std@@V?$allocator@PAVAActor@@@3@$0A@@std@@@std@@QAE?AU?$pair@V?$_List_const_iterator@V?$_List_val@U?$_List_simple_types@PAVAActor@@@std@@@std@@@std@@_N@2@ABQAVAActor@@@Z 10012d00 f i D3D9Render.obj
 0001:00011e50       ?onLevelChange@UD3D9Render@@AAEXPAUFSceneNode@@@Z 10012e50 f   D3D9Render.obj
 0001:000121f0       ?push_back@?$vector@PAUFSurfaceFacet@@V?$allocator@PAUFSurfaceFacet@@@std@@@std@@QAEXABQAUFSurfaceFacet@@@Z 100131f0 f i D3D9Render.obj
 0001:00012220       ?push_back@?$vector@PAVAActor@@V?$allocator@PAVAActor@@@std@@@std@@QAEXABQAVAActor@@@Z 10013220 f i D3D9Render.obj
 0001:00012250       ?push_back@?$vector@PAVABrush@@V?$allocator@PAVABrush@@@std@@@std@@QAEX$$QAPAVABrush@@@Z 10013250 f i D3D9Render.obj
 0001:00012280       ?push_back@?$vector@PAVASkyZoneInfo@@V?$allocator@PAVASkyZoneInfo@@@std@@@std@@QAEX$$QAPAVASkyZoneInfo@@@Z 10013280 f i D3D9Render.obj
 0001:000122b0       ?put@?$basic_ostream@DU?$char_traits@D@std@@@std@@QAEAAV12@D@Z 100132b0 f i D3D9Render.obj
 0001:00012410       ?reserve@?$vector@PAUFSurfaceFacet@@V?$allocator@PAUFSurfaceFacet@@@std@@@std@@QAEXI@Z 10013410 f i D3D9Render.obj
 0001:00012500       ?reserve@?$vector@PAVAActor@@V?$allocator@PAVAActor@@@std@@@std@@QAEXI@Z 10013500 f i D3D9Render.obj
 0001:000125f0       ?sputc@?$basic_streambuf@DU?$char_traits@D@std@@@std@@QAEHD@Z 100135f0 f i D3D9Render.obj
 0001:00012630       ?Exec@UD3D9RenderDevice@@UAEHPBDAAVFOutputDevice@@@Z 10013630 f   D3D9RenderDevice.obj
 0001:00012830       ?Init@UD3D9RenderDevice@@UAEHPAVUViewport@@HHHH@Z 10013830 f   D3D9RenderDevice.obj
 0001:00012aa0       ?SetRes@UD3D9RenderDevice@@UAEHHHHH@Z 10013aa0 f   D3D9RenderDevice.obj
 0001:00013160       ?Exit@UD3D9RenderDevice@@UAEXXZ 10014160 f   D3D9RenderDevice.obj
 0001:000131e0       ?Flush@UD3D9RenderDevice@@UAEXXZ 100141e0 f   D3D9RenderDevice.obj
 0001:000133e0       ?Lock@UD3D9RenderDevice@@UAEHVFPlane@@00KPAEPAH@Z 100143e0 f   D3D9RenderDevice.obj
 0001:000137e0       ?Unlock@UD3D9RenderDevice@@UAEXH@Z 100147e0 f   D3D9RenderDevice.obj
 0001:000139c0       ?DrawComplexSurface@UD3D9RenderDevice@@UAEXPAUFSceneNode@@AAUFSurfaceInfo@@AAUFSurfaceFacet@@@Z 100149c0 f   D3D9RenderDevice.obj
 0001:00013e30       ?DrawGouraudPolygon@UD3D9RenderDevice@@UAEXPAUFSceneNode@@AAUFTextureInfo@@PAPAUFTransTexture@@HKPAVFSpanBuffer@@@Z 10014e30 f   D3D9RenderDevice.obj
 0001:000140c0       ?DrawTile@UD3D9RenderDevice@@UAEXPAUFSceneNode@@AAUFTextureInfo@@MMMMMMMMPAVFSpanBuffer@@MVFPlane@@3K@Z 100150c0 f   D3D9RenderDevice.obj
 0001:00014520       ?Draw3DLine@UD3D9RenderDevice@@UAEXPAUFSceneNode@@VFPlane@@KVFVector@@2@Z 10015520 f   D3D9RenderDevice.obj
 0001:000149f0       ?Draw2DLine@UD3D9RenderDevice@@UAEXPAUFSceneNode@@VFPlane@@KVFVector@@2@Z 100159f0 f   D3D9RenderDevice.obj
 0001:00014c90       ?Draw2DPoint@UD3D9RenderDevice@@UAEXPAUFSceneNode@@VFPlane@@KMMMMM@Z 10015c90 f   D3D9RenderDevice.obj
 0001:00015020       ?ClearZ@UD3D9RenderDevice@@UAEXPAUFSceneNode@@@Z 10016020 f   D3D9RenderDevice.obj
 0001:000150c0       ?PushHit@UD3D9RenderDevice@@UAEXPBEH@Z 100160c0 f   D3D9RenderDevice.obj
 0001:00015150       ?PopHit@UD3D9RenderDevice@@UAEXHH@Z 10016150 f   D3D9RenderDevice.obj
 0001:00015230       ?GetStats@UD3D9RenderDevice@@UAEXPAD@Z 10016230 f   D3D9RenderDevice.obj
 0001:00015370       ?ReadPixels@UD3D9RenderDevice@@UAEXPAUFColor@@@Z 10016370 f   D3D9RenderDevice.obj
 0001:000156b0       ?EndFlash@UD3D9RenderDevice@@UAEXXZ 100166b0 f   D3D9RenderDevice.obj
 0001:00015950       ?SetSceneNode@UD3D9RenderDevice@@UAEXPAUFSceneNode@@@Z 10016950 f   D3D9RenderDevice.obj
 0001:00015f60       ?ShutdownAfterError@UD3D9RenderDevice@@UAEXXZ 10016f60 f   D3D9RenderDevice.obj
 0001:00015fc0       ??_EUD3D9RenderDevice@@UAEPAXI@Z 10016fc0 f i D3D9RenderDevice.obj
 0001:00015fc0       ??_GUD3D9RenderDevice@@UAEPAXI@Z 10016fc0 f i D3D9RenderDevice.obj
 0001:00015ff0       ??$?0V?$allocator@U?$_List_node@U?$pair@QAVAActor@@H@std@@PAX@std@@@std@@@?$_Hash@V?$_Umap_traits@PAVAActor@@HV?$_Uhash_compare@PAVAActor@@U?$hash@PAVAActor@@@std@@U?$equal_to@PAVAActor@@@3@@std@@V?$allocator@U?$pair@QAVAActor@@H@std@@@3@$0A@@std@@@std@@IAE@ABV01@ABV?$allocator@U?$_List_node@U?$pair@QAVAActor@@H@std@@PAX@std@@@1@@Z 10016ff0 f i D3D9RenderDevice.obj
 0001:000161c0       ??$Cast@VUTexture@@@@YAPAVUTexture@@PAVUObject@@@Z 100171c0 f i D3D9RenderDevice.obj
 0001:000161f0       ??$New@UFTransTexture@@@@YAPAUFTransTexture@@AAVFMemStack@@H@Z 100171f0 f i D3D9RenderDevice.obj
 0001:00016210       ??$_Allocate_for_capacity@$0A@@?$basic_string@GU?$char_traits@G@std@@V?$allocator@G@2@@std@@CAPAGAAV?$allocator@G@1@AAI@Z 10017210 f i D3D9RenderDevice.obj
 0001:00016260       ??$_Assign_counted_range@PAUFRenderVert@@@?$vector@UFRenderVert@@V?$allocator@UFRenderVert@@@std@@@std@@AAEXPAUFRenderVert@@I@Z 10017260 f i D3D9RenderDevice.obj
 0001:000163c0       ??$_Construct@$00PBG@?$basic_string@GU?$char_traits@G@std@@V?$allocator@G@2@@std@@AAEXQBGI@Z 100173c0 f i D3D9RenderDevice.obj
 0001:00016460       ??$_Construct_in_place_by_deref@PAHPAPAH@std@@YAXAAPAHAAPAPAH@Z 10017460 f i D3D9RenderDevice.obj
 0001:00016480       ??$_Copy_memmove@PAPAHPAPAH@std@@YAPAPAHPAPAH00@Z 10017480 f i D3D9RenderDevice.obj
 0001:000164a0       ??$_Copy_memmove@PAPAUFPoly@@PAPAU1@@std@@YAPAPAUFPoly@@PAPAU1@00@Z 100174a0 f i D3D9RenderDevice.obj
 0001:000164c0       ??$_Copy_memmove@PAUTileFuncCall@UD3D9RenderDevice@@PAU12@@std@@YAPAUTileFuncCall@UD3D9RenderDevice@@PAU12@00@Z 100174c0 f i D3D9RenderDevice.obj
 0001:000164f0       ??$_Copy_memmove_n@PAUFRenderVert@@PAU1@@std@@YAPAUFRenderVert@@PAU1@I0@Z 100174f0 f i D3D9RenderDevice.obj
 0001:00016510       ??$_Copy_memmove_tail@PAPAH@std@@YAPAPAHQBDQAPAHII@Z 10017510 f i D3D9RenderDevice.obj
 0001:00016530       ??$_Copy_memmove_tail@PAPAUFPoly@@@std@@YAPAPAUFPoly@@QBDQAPAU1@II@Z 10017530 f i D3D9RenderDevice.obj
 0001:00016550       ??$_Copy_memmove_tail@PAUTileFuncCall@UD3D9RenderDevice@@@std@@YAPAUTileFuncCall@UD3D9RenderDevice@@QBDQAU12@II@Z 10017550 f i D3D9RenderDevice.obj
 0001:00016570       ??$_Count_vectorized@QAVAActor@@PAV1@@std@@YAIQBQAVAActor@@0QAV1@@Z 10017570 f i D3D9RenderDevice.obj
 0001:00016590       ??$_Emplace@VFPlane@@@?$_Tree@V?$_Tset_traits@VFPlane@@U?$less@VFPlane@@@std@@V?$allocator@VFPlane@@@3@$0A@@std@@@std@@IAE?AU?$pair@PAU?$_Tree_node@VFPlane@@PAX@std@@_N@1@$$QAVFPlane@@@Z 10017590 f i D3D9RenderDevice.obj
 0001:00016770       ??$_Emplace_back_internal@ABH@?$deque@HV?$allocator@H@std@@@std@@AAEXABH@Z 10017770 f i D3D9RenderDevice.obj
 0001:00016800       ??$_Emplace_reallocate@ABQAUFPoly@@@?$vector@PAUFPoly@@V?$allocator@PAUFPoly@@@std@@@std@@AAEPAPAUFPoly@@QAPAU2@ABQAU2@@Z 10017800 f i D3D9RenderDevice.obj
 0001:00016980       ??$_Emplace_reallocate@ABUFRenderVert@@@?$vector@UFRenderVert@@V?$allocator@UFRenderVert@@@std@@@std@@AAEPAUFRenderVert@@QAU2@ABU2@@Z 10017980 f i D3D9RenderDevice.obj
 0001:00016b60       ??$_Emplace_reallocate@UTileFuncCall@UD3D9RenderDevice@@@?$vector@UTileFuncCall@UD3D9RenderDevice@@V?$allocator@UTileFuncCall@UD3D9RenderDevice@@@std@@@std@@AAEPAUTileFuncCall@UD3D9RenderDevice@@QAU23@$$QAU23@@Z 10017b60 f i D3D9RenderDevice.obj
 0001:00016d30       ??$_Erase_tree@V?$allocator@U?$_Tree_node@IPAX@std@@@std@@@?$_Tree_val@U?$_Tree_simple_types@I@std@@@std@@QAEXAAV?$allocator@U?$_Tree_node@IPAX@std@@@1@PAU?$_Tree_node@IPAX@1@@Z 10017d30 f i D3D9RenderDevice.obj
 0001:00016da0       ??$_Erase_tree@V?$allocator@U?$_Tree_node@VFPlane@@PAX@std@@@std@@@?$_Tree_val@U?$_Tree_simple_types@VFPlane@@@std@@@std@@QAEXAAV?$allocator@U?$_Tree_node@VFPlane@@PAX@std@@@1@PAU?$_Tree_node@VFPlane@@PAX@1@@Z 10017da0 f i D3D9RenderDevice.obj
 0001:00016e10       ??$_Find_last@PAVAActor@@@?$_Hash@V?$_Umap_traits@PAVAActor@@HV?$_Uhash_compare@PAVAActor@@U?$hash@PAVAActor@@@std@@U?$equal_to@PAVAActor@@@3@@std@@V?$allocator@U?$pair@QAVAActor@@H@std@@@3@$0A@@std@@@std@@IBE?AU?$_Hash_find_last_result@PAU?$_List_node@U?$pair@QAVAActor@@H@std@@PAX@std@@@1@ABQAVAActor@@I@Z 10017e10 f i D3D9RenderDevice.obj
 0001:00016e80       ??$_Find_last@U?$pair@QAUFTextureInfo@@$$CBK@std@@@?$_Hash@V?$_Umap_traits@$$CBU?$pair@QAUFTextureInfo@@$$CBK@std@@V?$vector@PAUFPoly@@V?$allocator@PAUFPoly@@@std@@@2@V?$_Uhash_compare@$$CBU?$pair@QAUFTextureInfo@@$$CBK@std@@USurfKey_Hash@@U?$equal_to@$$CBU?$pair@QAUFTextureInfo@@$$CBK@std@@@2@@2@V?$allocator@U?$pair@$$CBU?$pair@QAUFTextureInfo@@$$CBK@std@@V?$vector@PAUFPoly@@V?$allocator@PAUFPoly@@@std@@@2@@std@@@2@$0A@@std@@@std@@IBE?AU?$_Hash_find_last_result@PAU?$_List_node@U?$pair@$$CBU?$pair@QAUFTextureInfo@@$$CBK@std@@V?$vector@PAUFPoly@@V?$allocator@PAUFPoly@@@std@@@2@@std@@PAX@std@@@1@ABU?$pair@QAUFTextureInfo@@$$CBK@1@I@Z 10017e80 f i D3D9RenderDevice.obj
 0001:00016ef0       ??$_Fnv1a_append_value@_K@std@@YAIIAB_K@Z 10017ef0 f i D3D9RenderDevice.obj
 0001:00016f60       ??$_Free_non_head@V?$allocator@U?$_List_node@U?$pair@$$CBU?$pair@QAUFTextureInfo@@$$CBK@std@@V?$vector@PAUFPoly@@V?$allocator@PAUFPoly@@@std@@@2@@std@@PAX@std@@@std@@@?$_List_node@U?$pair@$$CBU?$pair@QAUFTextureInfo@@$$CBK@std@@V?$vector@PAUFPoly@@V?$allocator@PAUFPoly@@@std@@@2@@std@@PAX@std@@SAXAAV?$allocator@U?$_List_node@U?$pair@$$CBU?$pair@QAUFTextureInfo@@$$CBK@std@@V?$vector@PAUFPoly@@V?$allocator@PAUFPoly@@@std@@@2@@std@@PAX@std@@@1@PAU01@@Z 10017f60 f i D3D9RenderDevice.obj
 0001:00017000       ??$_Hash_array_representation@G@std@@YAIQBGI@Z 10018000 f i D3D9RenderDevice.obj
 0001:00017040       ??$_Hash_representation@_K@std@@YAIAB_K@Z 10018040 f i D3D9RenderDevice.obj
 0001:00017060       ??$_Try_emplace@$$CBU?$pair@QAUFTextureInfo@@$$CBK@std@@$$V@?$_Hash@V?$_Umap_traits@$$CBU?$pair@QAUFTextureInfo@@$$CBK@std@@V?$vector@PAUFPoly@@V?$allocator@PAUFPoly@@@std@@@2@V?$_Uhash_compare@$$CBU?$pair@QAUFTextureInfo@@$$CBK@std@@USurfKey_Hash@@U?$equal_to@$$CBU?$pair@QAUFTextureInfo@@$$CBK@std@@@2@@2@V?$allocator@U?$pair@$$CBU?$pair@QAUFTextureInfo@@$$CBK@std@@V?$vector@PAUFPoly@@V?$allocator@PAUFPoly@@@std@@@2@@std@@@2@$0A@@std@@@std@@IAE?AU?$pair@PAU?$_List_node@U?$pair@$$CBU?$pair@QAUFTextureInfo@@$$CBK@std@@V?$vector@PAUFPoly@@V?$allocator@PAUFPoly@@@std@@@2@@std@@PAX@std@@_N@1@$$QBU?$pair@QAUFTextureInfo@@$$CBK@1@@Z 10018060 f i D3D9RenderDevice.obj
 0001:00017270       ??$_Uninitialized_copy_unchecked@PAPAHPAPAH@std@@YAPAPAHPAPAHQAPAH0@Z 10018270 f i D3D9RenderDevice.obj
 0001:00017280       ??$_Uninitialized_value_construct_n_unchecked1@PAPAHI@std@@YAPAPAHPAPAHI@Z 10018280 f i D3D9RenderDevice.obj
 0001:000172a0       ??$_Zero_range@PAPAH@std@@YAPAPAHQAPAH0@Z 100182a0 f i D3D9RenderDevice.obj
 0001:000172c0       ??$emplace@ABH@?$_Hash@V?$_Uset_traits@HV?$_Uhash_compare@HU?$hash@H@std@@U?$equal_to@H@2@@std@@V?$allocator@H@2@$0A@@std@@@std@@QAE?AU?$pair@V?$_List_const_iterator@V?$_List_val@U?$_List_simple_types@H@std@@@std@@@std@@_N@1@ABH@Z 100182c0 f i D3D9RenderDevice.obj
 0001:000174a0       ??$fill@PAV?$_List_unchecked_const_iterator@V?$_List_val@U?$_List_simple_types@V?$basic_string@GU?$char_traits@G@std@@V?$allocator@G@2@@std@@@std@@@std@@U_Iterator_base0@2@@std@@V12@@std@@YAXQAV?$_List_unchecked_const_iterator@V?$_List_val@U?$_List_simple_types@V?$basic_string@GU?$char_traits@G@std@@V?$allocator@G@2@@std@@@std@@@std@@U_Iterator_base0@2@@0@0ABV10@@Z 100184a0 f i D3D9RenderDevice.obj
 0001:00017510       ??$fill@PAV?$_List_unchecked_iterator@V?$_List_val@U?$_List_simple_types@U?$pair@$$CBU?$pair@QAUFTextureInfo@@$$CBK@std@@V?$vector@PAUFPoly@@V?$allocator@PAUFPoly@@@std@@@2@@std@@@std@@@std@@@std@@V12@@std@@YAXQAV?$_List_unchecked_iterator@V?$_List_val@U?$_List_simple_types@U?$pair@$$CBU?$pair@QAUFTextureInfo@@$$CBK@std@@V?$vector@PAUFPoly@@V?$allocator@PAUFPoly@@@std@@@2@@std@@@std@@@std@@@0@0ABV10@@Z 10018510 f i D3D9RenderDevice.obj
 0001:00017580       ??$fill@PAV?$_List_unchecked_iterator@V?$_List_val@U?$_List_simple_types@U?$pair@QAVAActor@@H@std@@@std@@@std@@@std@@V12@@std@@YAXQAV?$_List_unchecked_iterator@V?$_List_val@U?$_List_simple_types@U?$pair@QAVAActor@@H@std@@@std@@@std@@@0@0ABV10@@Z 10018580 f i D3D9RenderDevice.obj
 0001:000175f0       ??$insert@$0A@$0A@@?$_Tree@V?$_Tset_traits@VFPlane@@U?$less@VFPlane@@@std@@V?$allocator@VFPlane@@@3@$0A@@std@@@std@@QAE?AU?$pair@V?$_Tree_const_iterator@V?$_Tree_val@U?$_Tree_simple_types@VFPlane@@@std@@@std@@@std@@_N@1@$$QAVFPlane@@@Z 100185f0 f i D3D9RenderDevice.obj
 0001:00017620       ??$uninitialized_copy@PAPAHPAPAH@std@@YAPAPAHQAPAH0PAPAH@Z 10018620 f i D3D9RenderDevice.obj
 0001:00017630       ??$uninitialized_fill@PAV?$_List_unchecked_const_iterator@V?$_List_val@U?$_List_simple_types@V?$basic_string@GU?$char_traits@G@std@@V?$allocator@G@2@@std@@@std@@@std@@U_Iterator_base0@2@@std@@V12@@std@@YAXQAV?$_List_unchecked_const_iterator@V?$_List_val@U?$_List_simple_types@V?$basic_string@GU?$char_traits@G@std@@V?$allocator@G@2@@std@@@std@@@std@@U_Iterator_base0@2@@0@0ABV10@@Z 10018630 f i D3D9RenderDevice.obj
 0001:00017650       ??$uninitialized_fill@PAV?$_List_unchecked_iterator@V?$_List_val@U?$_List_simple_types@U?$pair@$$CBU?$pair@QAUFTextureInfo@@$$CBK@std@@V?$vector@PAUFPoly@@V?$allocator@PAUFPoly@@@std@@@2@@std@@@std@@@std@@@std@@V12@@std@@YAXQAV?$_List_unchecked_iterator@V?$_List_val@U?$_List_simple_types@U?$pair@$$CBU?$pair@QAUFTextureInfo@@$$CBK@std@@V?$vector@PAUFPoly@@V?$allocator@PAUFPoly@@@std@@@2@@std@@@std@@@std@@@0@0ABV10@@Z 10018650 f i D3D9RenderDevice.obj
 0001:00017670       ??$uninitialized_fill@PAV?$_List_unchecked_iterator@V?$_List_val@U?$_List_simple_types@U?$pair@QAVAActor@@H@std@@@std@@@std@@@std@@V12@@std@@YAXQAV?$_List_unchecked_iterator@V?$_List_val@U?$_List_simple_types@U?$pair@QAVAActor@@H@std@@@std@@@std@@@0@0ABV10@@Z 10018670 f i D3D9RenderDevice.obj
 0001:00017690       ??$xxh32_combine@H$$V@@YAXAAIABH@Z 10018690 f i D3D9RenderDevice.obj
 0001:000176d0       ??$xxh32_combine@HHH@@YAXAAIABH11@Z 100186d0 f i D3D9RenderDevice.obj
 0001:00017720       ??$xxh32_combine@M$$V@@YAXAAIABM@Z 10018720 f i D3D9RenderDevice.obj
 0001:00017760       ??$xxh32_combine@MMM@@YAXAAIABM11@Z 10018760 f i D3D9RenderDevice.obj
 0001:000177b0       ??0?$rbtree@KUFCachedTexture@@@@QAE@XZ 100187b0 f i D3D9RenderDevice.obj
 0001:000177d0       ??0?$rbtree@_KUFCachedTexture@@@@QAE@XZ 100187d0 f i D3D9RenderDevice.obj
 0001:000177f0       ??0?$set@VFPlane@@U?$less@VFPlane@@@std@@V?$allocator@VFPlane@@@3@@std@@QAE@XZ 100187f0 f i D3D9RenderDevice.obj
 0001:00017860       ??0?$unordered_map@$$CBU?$pair@QAUFTextureInfo@@$$CBK@std@@V?$vector@PAUFPoly@@V?$allocator@PAUFPoly@@@std@@@2@USurfKey_Hash@@U?$equal_to@$$CBU?$pair@QAUFTextureInfo@@$$CBK@std@@@2@V?$allocator@U?$pair@$$CBU?$pair@QAUFTextureInfo@@$$CBK@std@@V?$vector@PAUFPoly@@V?$allocator@PAUFPoly@@@std@@@2@@std@@@2@@std@@QAE@XZ 10018860 f i D3D9RenderDevice.obj
 0001:00017980       ??0FCoords@@QAE@ABVFVector@@000@Z 10018980 f i D3D9RenderDevice.obj
 0001:000179d0       ??0FVector@@QAE@XZ         100189d0 f i D3D9RenderDevice.obj
 0001:000179e0       ??0LightSlots@UD3D9RenderDevice@@QAE@H@Z 100189e0 f i D3D9RenderDevice.obj
 0001:00017c70       ??0TileFuncCall@UD3D9RenderDevice@@QAE@XZ 10018c70 f i D3D9RenderDevice.obj
 0001:00017c90       ??1?$_Alloc_construct_ptr@V?$allocator@U?$_List_node@U?$pair@$$CBU?$pair@QAUFTextureInfo@@$$CBK@std@@V?$vector@PAUFPoly@@V?$allocator@PAUFPoly@@@std@@@2@@std@@PAX@std@@@std@@@std@@QAE@XZ 10018c90 f i D3D9RenderDevice.obj
 0001:00017cb0       ??1?$_Alloc_construct_ptr@V?$allocator@U?$_List_node@U?$pair@QAVAActor@@H@std@@PAX@std@@@std@@@std@@QAE@XZ 10018cb0 f i D3D9RenderDevice.obj
 0001:00017d00       ??1?$_Alloc_construct_ptr@V?$allocator@U?$_Tree_node@IPAX@std@@@std@@@std@@QAE@XZ 10018d00 f i D3D9RenderDevice.obj
 0001:00017d20       ??1?$_Alloc_construct_ptr@V?$allocator@U?$_Tree_node@VFPlane@@PAX@std@@@std@@@std@@QAE@XZ 10018d20 f i D3D9RenderDevice.obj
 0001:00017d70       ??1?$_Hash@V?$_Umap_traits@$$CBU?$pair@QAUFTextureInfo@@$$CBK@std@@V?$vector@PAUFPoly@@V?$allocator@PAUFPoly@@@std@@@2@V?$_Uhash_compare@$$CBU?$pair@QAUFTextureInfo@@$$CBK@std@@USurfKey_Hash@@U?$equal_to@$$CBU?$pair@QAUFTextureInfo@@$$CBK@std@@@2@@2@V?$allocator@U?$pair@$$CBU?$pair@QAUFTextureInfo@@$$CBK@std@@V?$vector@PAUFPoly@@V?$allocator@PAUFPoly@@@std@@@2@@std@@@2@$0A@@std@@@std@@QAE@XZ 10018d70 f i D3D9RenderDevice.obj
 0001:00017e00       ??1?$_Hash@V?$_Umap_traits@PAVAActor@@HV?$_Uhash_compare@PAVAActor@@U?$hash@PAVAActor@@@std@@U?$equal_to@PAVAActor@@@3@@std@@V?$allocator@U?$pair@QAVAActor@@H@std@@@3@$0A@@std@@@std@@QAE@XZ 10018e00 f i D3D9RenderDevice.obj
 0001:00017eb0       ??1?$_Hash@V?$_Uset_traits@V?$basic_string@GU?$char_traits@G@std@@V?$allocator@G@2@@std@@V?$_Uhash_compare@V?$basic_string@GU?$char_traits@G@std@@V?$allocator@G@2@@std@@U?$hash@V?$basic_string@GU?$char_traits@G@std@@V?$allocator@G@2@@std@@@2@U?$equal_to@V?$basic_string@GU?$char_traits@G@std@@V?$allocator@G@2@@std@@@2@@2@V?$allocator@V?$basic_string@GU?$char_traits@G@std@@V?$allocator@G@2@@std@@@2@$0A@@std@@@std@@QAE@XZ 10018eb0 f i D3D9RenderDevice.obj
 0001:00017f30       ??1?$_Hash_vec@V?$allocator@V?$_List_unchecked_const_iterator@V?$_List_val@U?$_List_simple_types@V?$basic_string@GU?$char_traits@G@std@@V?$allocator@G@2@@std@@@std@@@std@@U_Iterator_base0@2@@std@@@std@@@std@@QAE@XZ 10018f30 f i D3D9RenderDevice.obj
 0001:00017f60       ??1?$_Hash_vec@V?$allocator@V?$_List_unchecked_iterator@V?$_List_val@U?$_List_simple_types@U?$pair@$$CBU?$pair@QAUFTextureInfo@@$$CBK@std@@V?$vector@PAUFPoly@@V?$allocator@PAUFPoly@@@std@@@2@@std@@@std@@@std@@@std@@@std@@@std@@QAE@XZ 10018f60 f i D3D9RenderDevice.obj
 0001:00017f90       ??1?$_Hash_vec@V?$allocator@V?$_List_unchecked_iterator@V?$_List_val@U?$_List_simple_types@U?$pair@QAVAActor@@H@std@@@std@@@std@@@std@@@std@@@std@@QAE@XZ 10018f90 f i D3D9RenderDevice.obj
 0001:00017fc0       ??1?$_List_node_emplace_op2@V?$allocator@U?$_List_node@U?$pair@$$CBU?$pair@QAUFTextureInfo@@$$CBK@std@@V?$vector@PAUFPoly@@V?$allocator@PAUFPoly@@@std@@@2@@std@@PAX@std@@@std@@@std@@QAE@XZ 10018fc0 f i D3D9RenderDevice.obj
 0001:00018060       ??1?$_List_node_emplace_op2@V?$allocator@U?$_List_node@U?$pair@QAVAActor@@H@std@@PAX@std@@@std@@@std@@QAE@XZ 10019060 f i D3D9RenderDevice.obj
 0001:000180b0       ??1?$_Tree@V?$_Tset_traits@IU?$less@I@std@@V?$allocator@I@2@$0A@@std@@@std@@QAE@XZ 100190b0 f i D3D9RenderDevice.obj
 0001:00018130       ??1?$_Tree@V?$_Tset_traits@VFPlane@@U?$less@VFPlane@@@std@@V?$allocator@VFPlane@@@3@$0A@@std@@@std@@QAE@XZ 10019130 f i D3D9RenderDevice.obj
 0001:000181b0       ??1?$_Tree_temp_node@V?$allocator@U?$_Tree_node@IPAX@std@@@std@@@std@@QAE@XZ 100191b0 f i D3D9RenderDevice.obj
 0001:00018200       ??1?$_Tree_temp_node@V?$allocator@U?$_Tree_node@VFPlane@@PAX@std@@@std@@@std@@QAE@XZ 10019200 f i D3D9RenderDevice.obj
 0001:00018250       ??1?$_Tree_temp_node_alloc@V?$allocator@U?$_Tree_node@IPAX@std@@@std@@@std@@QAE@XZ 10019250 f i D3D9RenderDevice.obj
 0001:000182a0       ??1?$_Tree_temp_node_alloc@V?$allocator@U?$_Tree_node@VFPlane@@PAX@std@@@std@@@std@@QAE@XZ 100192a0 f i D3D9RenderDevice.obj
 0001:000182f0       ??1?$basic_string@GU?$char_traits@G@std@@V?$allocator@G@2@@std@@QAE@XZ 100192f0 f i D3D9RenderDevice.obj
 0001:00018390       ??1?$deque@HV?$allocator@H@std@@@std@@QAE@XZ 10019390 f i D3D9RenderDevice.obj
 0001:000183f0       ??1?$list@U?$pair@$$CBU?$pair@QAUFTextureInfo@@$$CBK@std@@V?$vector@PAUFPoly@@V?$allocator@PAUFPoly@@@std@@@2@@std@@V?$allocator@U?$pair@$$CBU?$pair@QAUFTextureInfo@@$$CBK@std@@V?$vector@PAUFPoly@@V?$allocator@PAUFPoly@@@std@@@2@@std@@@2@@std@@QAE@XZ 100193f0 f i D3D9RenderDevice.obj
 0001:00018440       ??1?$list@U?$pair@QAVAActor@@H@std@@V?$allocator@U?$pair@QAVAActor@@H@std@@@2@@std@@QAE@XZ 10019440 f i D3D9RenderDevice.obj
 0001:000184b0       ??1?$list@V?$basic_string@GU?$char_traits@G@std@@V?$allocator@G@2@@std@@V?$allocator@V?$basic_string@GU?$char_traits@G@std@@V?$allocator@G@2@@std@@@2@@std@@QAE@XZ 100194b0 f i D3D9RenderDevice.obj
 0001:00018530       ??1?$pair@$$CBU?$pair@QAUFTextureInfo@@$$CBK@std@@V?$vector@PAUFPoly@@V?$allocator@PAUFPoly@@@std@@@2@@std@@QAE@XZ 10019530 f i D3D9RenderDevice.obj
 0001:000185a0       ??1?$rbtree@KUFCachedTexture@@@@QAE@XZ 100195a0 f i D3D9RenderDevice.obj
 0001:000185b0       ??1?$rbtree@_KUFCachedTexture@@@@QAE@XZ 100195b0 f i D3D9RenderDevice.obj
 0001:000185c0       ??1?$set@VFPlane@@U?$less@VFPlane@@@std@@V?$allocator@VFPlane@@@3@@std@@QAE@XZ 100195c0 f i D3D9RenderDevice.obj
 0001:00018610       ??1?$unordered_map@$$CBU?$pair@QAUFTextureInfo@@$$CBK@std@@V?$vector@PAUFPoly@@V?$allocator@PAUFPoly@@@std@@@2@USurfKey_Hash@@U?$equal_to@$$CBU?$pair@QAUFTextureInfo@@$$CBK@std@@@2@V?$allocator@U?$pair@$$CBU?$pair@QAUFTextureInfo@@$$CBK@std@@V?$vector@PAUFPoly@@V?$allocator@PAUFPoly@@@std@@@2@@std@@@2@@std@@QAE@XZ 10019610 f i D3D9RenderDevice.obj
 0001:00018660       ??1?$unordered_map@PAVAActor@@HU?$hash@PAVAActor@@@std@@U?$equal_to@PAVAActor@@@3@V?$allocator@U?$pair@QAVAActor@@H@std@@@3@@std@@QAE@XZ 10019660 f i D3D9RenderDevice.obj
 0001:000186b0       ??1?$unordered_set@V?$basic_string@GU?$char_traits@G@std@@V?$allocator@G@2@@std@@U?$hash@V?$basic_string@GU?$char_traits@G@std@@V?$allocator@G@2@@std@@@2@U?$equal_to@V?$basic_string@GU?$char_traits@G@std@@V?$allocator@G@2@@std@@@2@V?$allocator@V?$basic_string@GU?$char_traits@G@std@@V?$allocator@G@2@@std@@@2@@std@@QAE@XZ 100196b0 f i D3D9RenderDevice.obj
 0001:00018730       ??1?$vector@PAUFPoly@@V?$allocator@PAUFPoly@@@std@@@std@@QAE@XZ 10019730 f i D3D9RenderDevice.obj
 0001:00018760       ??1?$vector@UTileFuncCall@UD3D9RenderDevice@@V?$allocator@UTileFuncCall@UD3D9RenderDevice@@@std@@@std@@QAE@XZ 10019760 f i D3D9RenderDevice.obj
 0001:000187b0       ??1UD3D9RenderDevice@@UAE@XZ 100197b0 f i D3D9RenderDevice.obj
 0001:00018930       ??1_Clear_guard@?$_Hash@V?$_Umap_traits@$$CBU?$pair@QAUFTextureInfo@@$$CBK@std@@V?$vector@PAUFPoly@@V?$allocator@PAUFPoly@@@std@@@2@V?$_Uhash_compare@$$CBU?$pair@QAUFTextureInfo@@$$CBK@std@@USurfKey_Hash@@U?$equal_to@$$CBU?$pair@QAUFTextureInfo@@$$CBK@std@@@2@@2@V?$allocator@U?$pair@$$CBU?$pair@QAUFTextureInfo@@$$CBK@std@@V?$vector@PAUFPoly@@V?$allocator@PAUFPoly@@@std@@@2@@std@@@2@$0A@@std@@@std@@QAE@XZ 10019930 f i D3D9RenderDevice.obj
 0001:00018980       ??1_Clear_guard@?$_Hash@V?$_Umap_traits@PAVAActor@@HV?$_Uhash_compare@PAVAActor@@U?$hash@PAVAActor@@@std@@U?$equal_to@PAVAActor@@@3@@std@@V?$allocator@U?$pair@QAVAActor@@H@std@@@3@$0A@@std@@@std@@QAE@XZ 10019980 f i D3D9RenderDevice.obj
 0001:00018a50       ??1_Range_eraser@?$_Hash@V?$_Umap_traits@PAVAActor@@HV?$_Uhash_compare@PAVAActor@@U?$hash@PAVAActor@@@std@@U?$equal_to@PAVAActor@@@3@@std@@V?$allocator@U?$pair@QAVAActor@@H@std@@@3@$0A@@std@@@std@@QAE@XZ 10019a50 f i D3D9RenderDevice.obj
 0001:00018a70       ??1_Range_eraser@?$_Hash@V?$_Uset_traits@V?$basic_string@GU?$char_traits@G@std@@V?$allocator@G@2@@std@@V?$_Uhash_compare@V?$basic_string@GU?$char_traits@G@std@@V?$allocator@G@2@@std@@U?$hash@V?$basic_string@GU?$char_traits@G@std@@V?$allocator@G@2@@std@@@2@U?$equal_to@V?$basic_string@GU?$char_traits@G@std@@V?$allocator@G@2@@std@@@2@@2@V?$allocator@V?$basic_string@GU?$char_traits@G@std@@V?$allocator@G@2@@std@@@2@$0A@@std@@@std@@QAE@XZ 10019a70 f i D3D9RenderDevice.obj
 0001:00018a90       ??1_Reallocation_guard@?$vector@PAUFPoly@@V?$allocator@PAUFPoly@@@std@@@std@@QAE@XZ 10019a90 f i D3D9RenderDevice.obj
 0001:00018ab0       ??1_Reallocation_guard@?$vector@UTileFuncCall@UD3D9RenderDevice@@V?$allocator@UTileFuncCall@UD3D9RenderDevice@@@std@@@std@@QAE@XZ 10019ab0 f i D3D9RenderDevice.obj
 0001:00018ad0       ??4?$unordered_set@V?$basic_string@GU?$char_traits@G@std@@V?$allocator@G@2@@std@@U?$hash@V?$basic_string@GU?$char_traits@G@std@@V?$allocator@G@2@@std@@@2@U?$equal_to@V?$basic_string@GU?$char_traits@G@std@@V?$allocator@G@2@@std@@@2@V?$allocator@V?$basic_string@GU?$char_traits@G@std@@V?$allocator@G@2@@std@@@2@@std@@QAEAAV01@$$QAV01@@Z 10019ad0 f i D3D9RenderDevice.obj
 0001:00018bf0       ??6?$basic_ostream@DU?$char_traits@D@std@@@std@@QAEAAV01@I@Z 10019bf0 f i D3D9RenderDevice.obj
 0001:00018dd0       ??9FVector@@QBE_NABV0@@Z   10019dd0 f i D3D9RenderDevice.obj
 0001:00018e10       ??DFCoords@@QBE?AV0@M@Z    10019e10 f i D3D9RenderDevice.obj
 0001:00018e60       ??E?$_Tree_unchecked_const_iterator@V?$_Tree_val@U?$_Tree_simple_types@VFPlane@@@std@@@std@@U_Iterator_base0@2@@std@@QAEAAV01@XZ 10019e60 f i D3D9RenderDevice.obj
 0001:00018ec0       ??_Dods_stream@@QAEXXZ     10019ec0 f i D3D9RenderDevice.obj
 0001:00018f20       ??_GLightSlots@UD3D9RenderDevice@@QAEPAXI@Z 10019f20 f i D3D9RenderDevice.obj
 0001:00018fe0       ??_H@YGXPAXIIP6EPAX0@Z@Z   10019fe0 f i D3D9RenderDevice.obj
 0001:00019010       ?AddRenderPass@UD3D9RenderDevice@@QAIXPAUFTextureInfo@@KM@Z 1001a010 f i D3D9RenderDevice.obj
 0001:00019060       ?BindTexture@UD3D9RenderDevice@@QAI_NKAAUFTexInfo@@AAUFTextureInfo@@KAAPAUFCachedTexture@@@Z 1001a060 f   D3D9RenderDevice.obj
 0001:00019720       ?BufferAdditionalClippedVerts@UD3D9RenderDevice@@QAIXPAPAUFTransTexture@@H@Z 1001a720 f   D3D9RenderDevice.obj
 0001:00019b50       ?BufferStaticComplexSurfaceGeometry@UD3D9RenderDevice@@QAIIABUFSurfaceFacet@@ABUFGLMapDot@@_N@Z 1001ab50 f   D3D9RenderDevice.obj
 0001:00019fe0       ?BufferTriangleSurfaceGeometry@UD3D9RenderDevice@@QAIIABV?$vector@UFRenderVert@@V?$allocator@UFRenderVert@@@std@@@std@@@Z 1001afe0 f   D3D9RenderDevice.obj
 0001:0001a030       ?CacheTextureInfo@UD3D9RenderDevice@@QAIXPAUFCachedTexture@@ABUFTextureInfo@@K@Z 1001b030 f   D3D9RenderDevice.obj
 0001:0001a360       ?ConfigValidate_RequiredExtensions@UD3D9RenderDevice@@QAEXXZ 1001b360 f   D3D9RenderDevice.obj
 0001:0001a3d0       ?ConvertBGRA7777_BGRA8888@UD3D9RenderDevice@@QAIXPBUFMipmapBase@@H@Z 1001b3d0 f   D3D9RenderDevice.obj
 0001:0001a500       ?ConvertBGRA7777_BGRA8888_NoClamp@UD3D9RenderDevice@@QAIXPBUFMipmapBase@@H@Z 1001b500 f   D3D9RenderDevice.obj
 0001:0001a620       ?ConvertBGRA8_BGRA8888@UD3D9RenderDevice@@QAIXPBUFMipmapBase@@H@Z 1001b620 f   D3D9RenderDevice.obj
 0001:0001a750       ?ConvertBGRA8_BGRA8888_NoClamp@UD3D9RenderDevice@@QAIXPBUFMipmapBase@@H@Z 1001b750 f   D3D9RenderDevice.obj
 0001:0001a870       ?ConvertDXT1_DXT1@UD3D9RenderDevice@@QAIXPBUFMipmapBase@@H@Z 1001b870 f   D3D9RenderDevice.obj
 0001:0001a960       ?ConvertDXT1_DXT3@UD3D9RenderDevice@@QAIXPBUFMipmapBase@@H@Z 1001b960 f   D3D9RenderDevice.obj
 0001:0001aa50       ?ConvertDXT35_DXT35@UD3D9RenderDevice@@QAIXPBUFMipmapBase@@H@Z 1001ba50 f   D3D9RenderDevice.obj
 0001:0001ab30       ?ConvertP8_RGB565@UD3D9RenderDevice@@QAIXPBUFMipmapBase@@PBUFColor@@H@Z 1001bb30 f   D3D9RenderDevice.obj
 0001:0001ac60       ?ConvertP8_RGB565_NoStep@UD3D9RenderDevice@@QAIXPBUFMipmapBase@@PBUFColor@@H@Z 1001bc60 f   D3D9RenderDevice.obj
 0001:0001ad60       ?ConvertP8_RGBA5551@UD3D9RenderDevice@@QAIXPBUFMipmapBase@@PBUFColor@@H@Z 1001bd60 f   D3D9RenderDevice.obj
 0001:0001aeb0       ?ConvertP8_RGBA5551_NoStep@UD3D9RenderDevice@@QAIXPBUFMipmapBase@@PBUFColor@@H@Z 1001beb0 f   D3D9RenderDevice.obj
 0001:0001afc0       ?ConvertP8_RGBA8888@UD3D9RenderDevice@@QAIXPBUFMipmapBase@@PBUFColor@@H@Z 1001bfc0 f   D3D9RenderDevice.obj
 0001:0001b100       ?ConvertP8_RGBA8888_NoStep@UD3D9RenderDevice@@QAIXPBUFMipmapBase@@PBUFColor@@H@Z 1001c100 f   D3D9RenderDevice.obj
 0001:0001b210       ?ConvertRGBA8_BGRA8888@UD3D9RenderDevice@@QAIXPBUFMipmapBase@@H@Z 1001c210 f   D3D9RenderDevice.obj
 0001:0001b340       ?ConvertRGBA8_BGRA8888_NoClamp@UD3D9RenderDevice@@QAIXPBUFMipmapBase@@H@Z 1001c340 f   D3D9RenderDevice.obj
 0001:0001b460       ?DisableSubsequentTextures@UD3D9RenderDevice@@QAIXK@Z 1001c460 f i D3D9RenderDevice.obj
 0001:0001b4e0       ?DrawGouraudPolygonOld@UD3D9RenderDevice@@QAEXPAUFSceneNode@@AAUFTextureInfo@@PAPAUFTransTexture@@HKPAVFSpanBuffer@@@Z 1001c4e0 f   D3D9RenderDevice.obj
 0001:0001b6e0       ?EndBufferingExcept@UD3D9RenderDevice@@QAIXK@Z 1001c6e0 f i D3D9RenderDevice.obj
 0001:0001b700       ?EndBufferingNoCheck@UD3D9RenderDevice@@QAEXXZ 1001c700 f   D3D9RenderDevice.obj
 0001:0001b770       ?EndGouraudPolygonBufferingNoCheck@UD3D9RenderDevice@@QAEXXZ 1001c770 f   D3D9RenderDevice.obj
 0001:0001b890       ?EndLineBufferingNoCheck@UD3D9RenderDevice@@QAEXXZ 1001c890 f   D3D9RenderDevice.obj
 0001:0001b9a0       ?EndPointBufferingNoCheck@UD3D9RenderDevice@@QAEXXZ 1001c9a0 f   D3D9RenderDevice.obj
 0001:0001bac0       ?EndTileBufferingNoCheck@UD3D9RenderDevice@@QAEXXZ 1001cac0 f   D3D9RenderDevice.obj
 0001:0001bbe0       ?ExplainResult@UD3D9RenderDevice@@QAE?AVFString@@J@Z 1001cbe0 f   D3D9RenderDevice.obj
 0001:0001c070       ?FailedInitf@UD3D9RenderDevice@@QAAHPBDZZ 1001d070 f   D3D9RenderDevice.obj
 0001:0001c0d0       ?FlushVertexBuffers@UD3D9RenderDevice@@QAEXXZ 1001d0d0 f i D3D9RenderDevice.obj
 0001:0001c0f0       ?FreePermanentResources@UD3D9RenderDevice@@QAEXXZ 1001d0f0 f   D3D9RenderDevice.obj
 0001:0001c370       ?InitFrameRateLimitTimerSafe@UD3D9RenderDevice@@QAEXXZ 1001d370 f   D3D9RenderDevice.obj
 0001:0001c390       ?InitNoTextureSafe@UD3D9RenderDevice@@QAEXXZ 1001d390 f   D3D9RenderDevice.obj
 0001:0001c510       ?InitOrInvalidateTexEnvState@UD3D9RenderDevice@@QAEXXZ 1001d510 f   D3D9RenderDevice.obj
 0001:0001c550       ?InitPermanentResourcesAndRenderingState@UD3D9RenderDevice@@QAEXXZ 1001d550 f   D3D9RenderDevice.obj
 0001:0001caa0       ?InternalConstructor@UD3D9RenderDevice@@SAXPAX@Z 1001daa0 f i D3D9RenderDevice.obj
 0001:0001cab0       ?LockTexCoordBuffer@UD3D9RenderDevice@@QAIXKI@Z 1001dab0 f i D3D9RenderDevice.obj
 0001:0001ccf0       ?LockVertexColorBuffer@UD3D9RenderDevice@@QAEXI@Z 1001dcf0 f i D3D9RenderDevice.obj
 0001:0001cf10       ?ParseCommand@@YA_NPAPBDPBD@Z 1001df10 f i D3D9RenderDevice.obj
 0001:0001cfa0       ?RenderPassesExec@UD3D9RenderDevice@@QAEXXZ 1001dfa0 f   D3D9RenderDevice.obj
 0001:0001d0a0       ?RenderPassesNoCheckSetup@UD3D9RenderDevice@@QAEXXZ 1001e0a0 f   D3D9RenderDevice.obj
 0001:0001d430       ?ResetDevice@UD3D9RenderDevice@@QAEHXZ 1001e430 f   D3D9RenderDevice.obj
 0001:0001d590       ?ScanForOldTextures@UD3D9RenderDevice@@QAEXXZ 1001e590 f   D3D9RenderDevice.obj
 0001:0001d770       ?SetBlend@UD3D9RenderDevice@@QAIXK_N@Z 1001e770 f i D3D9RenderDevice.obj
 0001:0001d7b0       ?SetBlendNoCheck@UD3D9RenderDevice@@QAIXK_N@Z 1001e7b0 f   D3D9RenderDevice.obj
 0001:0001da20       ?SetDefaultStreamState@UD3D9RenderDevice@@QAEXXZ 1001ea20 f i D3D9RenderDevice.obj
 0001:0001da40       ?SetDefaultTextureState@UD3D9RenderDevice@@QAEXXZ 1001ea40 f i D3D9RenderDevice.obj
 0001:0001dac0       ?SetNoTexture@UD3D9RenderDevice@@QAIXH@Z 1001eac0 f i D3D9RenderDevice.obj
 0001:0001dae0       ?SetNoTextureNoCheck@UD3D9RenderDevice@@QAIXH@Z 1001eae0 f   D3D9RenderDevice.obj
 0001:0001db90       ?SetTexEnvNoCheck@UD3D9RenderDevice@@QAIXKK@Z 1001eb90 f   D3D9RenderDevice.obj
 0001:0001dcb0       ?SetTexFilter@UD3D9RenderDevice@@QAIXKE@Z 1001ecb0 f i D3D9RenderDevice.obj
 0001:0001dcd0       ?SetTexFilterNoCheck@UD3D9RenderDevice@@QAIXKE@Z 1001ecd0 f   D3D9RenderDevice.obj
 0001:0001de10       ?SetTexLODBiasState@UD3D9RenderDevice@@QAIXH@Z 1001ee10 f   D3D9RenderDevice.obj
 0001:0001de60       ?SetTexMaxAnisotropyState@UD3D9RenderDevice@@QAIXH@Z 1001ee60 f   D3D9RenderDevice.obj
 0001:0001de90       ?SetTexture@UD3D9RenderDevice@@QAIXHAAUFTextureInfo@@KM@Z 1001ee90 f i D3D9RenderDevice.obj
 0001:0001df30       ?SetTextureNoCheck@UD3D9RenderDevice@@QAIXKAAUFTexInfo@@AAUFTextureInfo@@K@Z 1001ef30 f   D3D9RenderDevice.obj
 0001:0001e450       ?SetTextureNoPanBias@UD3D9RenderDevice@@QAIXHAAUFTextureInfo@@K@Z 1001f450 f i D3D9RenderDevice.obj
 0001:0001e4d0       ?SetVertexDeclNoCheck@UD3D9RenderDevice@@QAIXPAUIDirect3DVertexDeclaration9@@@Z 1001f4d0 f   D3D9RenderDevice.obj
 0001:0001e570       ?ShutdownFrameRateLimitTimer@UD3D9RenderDevice@@QAEXXZ 1001f570 f   D3D9RenderDevice.obj
 0001:0001e590       ?StaticClass@UD3D9RenderDevice@@SAPAVUClass@@XZ 1001f590 f   D3D9RenderDevice.obj
 0001:0001e5a0       ?StaticConfigName@UD3D9RenderDevice@@SAPBDXZ 1001f5a0 f   D3D9RenderDevice.obj
 0001:0001e5b0       ?StaticConstructor@UD3D9RenderDevice@@SAXPAVUClass@@@Z 1001f5b0 f   D3D9RenderDevice.obj
 0001:0001e5d0       ?StaticConstructorReal@UD3D9RenderDevice@@QAEXXZ 1001f5d0 f   D3D9RenderDevice.obj
 0001:0001ea40       ?StaticConstructorThunk@UD3D9RenderDevice@@QAEXXZ 1001fa40 f i D3D9RenderDevice.obj
 0001:0001ea50       ?UnlockTexCoordBuffer@UD3D9RenderDevice@@QAIXK@Z 1001fa50 f i D3D9RenderDevice.obj
 0001:0001eae0       ?UnlockVertexColorBuffer@UD3D9RenderDevice@@QAEXXZ 1001fae0 f i D3D9RenderDevice.obj
 0001:0001eb70       ?UnsetRes@UD3D9RenderDevice@@QAEXXZ 1001fb70 f   D3D9RenderDevice.obj
 0001:0001ec20       ?XMMatrixDecompose@DirectX@@YQ_NPAT__m128@@00UXMMATRIX@1@@Z 1001fc20 f i D3D9RenderDevice.obj
 0001:0001f110       ?XMMatrixInverse@DirectX@@YQ?AUXMMATRIX@1@PAT__m128@@U21@@Z 10020110 f i D3D9RenderDevice.obj
 0001:0001f3c0       ?XMMatrixLookAtLH@DirectX@@YQ?AUXMMATRIX@1@T__m128@@00@Z 100203c0 f i D3D9RenderDevice.obj
 0001:0001f530       ?XMMatrixLookToLH@DirectX@@YQ?AUXMMATRIX@1@T__m128@@00@Z 10020530 f i D3D9RenderDevice.obj
 0001:0001f6b0       ?XMMatrixOrthographicOffCenterLH@DirectX@@YQ?AUXMMATRIX@1@MMMMMM@Z 100206b0 f i D3D9RenderDevice.obj
 0001:0001f790       ?XMMatrixRotationRollPitchYawFromVector@DirectX@@YQ?AUXMMATRIX@1@T__m128@@@Z 10020790 f i D3D9RenderDevice.obj
 0001:0001f9f0       ?XMMatrixRotationY@DirectX@@YQ?AUXMMATRIX@1@M@Z 100209f0 f i D3D9RenderDevice.obj
 0001:0001fa40       ?XMMatrixRotationZ@DirectX@@YQ?AUXMMATRIX@1@M@Z 10020a40 f i D3D9RenderDevice.obj
 0001:0001fa90       ?XMMatrixScalingFromVector@DirectX@@YQ?AUXMMATRIX@1@T__m128@@@Z 10020a90 f i D3D9RenderDevice.obj
 0001:0001fac0       ?XMScalarSinCos@DirectX@@YAXPAM0M@Z 10020ac0 f i D3D9RenderDevice.obj
 0001:0001fbf0       ?XMVectorRound@DirectX@@YQ?AT__m128@@T2@@Z 10020bf0 f i D3D9RenderDevice.obj
 0001:0001fc00       ?_Assign_grow@?$_Hash_vec@V?$allocator@V?$_List_unchecked_iterator@V?$_List_val@U?$_List_simple_types@U?$pair@$$CBU?$pair@QAUFTextureInfo@@$$CBK@std@@V?$vector@PAUFPoly@@V?$allocator@PAUFPoly@@@std@@@2@@std@@@std@@@std@@@std@@@std@@@std@@QAEXIV?$_List_unchecked_iterator@V?$_List_val@U?$_List_simple_types@U?$pair@$$CBU?$pair@QAUFTextureInfo@@$$CBK@std@@V?$vector@PAUFPoly@@V?$allocator@PAUFPoly@@@std@@@2@@std@@@std@@@std@@@2@@Z 10020c00 f i D3D9RenderDevice.obj
 0001:0001fca0       ?_Assign_grow@?$_Hash_vec@V?$allocator@V?$_List_unchecked_iterator@V?$_List_val@U?$_List_simple_types@U?$pair@QAVAActor@@H@std@@@std@@@std@@@std@@@std@@@std@@QAEXIV?$_List_unchecked_iterator@V?$_List_val@U?$_List_simple_types@U?$pair@QAVAActor@@H@std@@@std@@@std@@@2@@Z 10020ca0 f i D3D9RenderDevice.obj
 0001:0001fd40       ?_Forced_rehash@?$_Hash@V?$_Umap_traits@$$CBU?$pair@QAUFTextureInfo@@$$CBK@std@@V?$vector@PAUFPoly@@V?$allocator@PAUFPoly@@@std@@@2@V?$_Uhash_compare@$$CBU?$pair@QAUFTextureInfo@@$$CBK@std@@USurfKey_Hash@@U?$equal_to@$$CBU?$pair@QAUFTextureInfo@@$$CBK@std@@@2@@2@V?$allocator@U?$pair@$$CBU?$pair@QAUFTextureInfo@@$$CBK@std@@V?$vector@PAUFPoly@@V?$allocator@PAUFPoly@@@std@@@2@@std@@@2@$0A@@std@@@std@@IAEXI@Z 10020d40 f i D3D9RenderDevice.obj
 0001:0001ff00       ?_Forced_rehash@?$_Hash@V?$_Umap_traits@PAVAActor@@HV?$_Uhash_compare@PAVAActor@@U?$hash@PAVAActor@@@std@@U?$equal_to@PAVAActor@@@3@@std@@V?$allocator@U?$pair@QAVAActor@@H@std@@@3@$0A@@std@@@std@@IAEXI@Z 10020f00 f i D3D9RenderDevice.obj
 0001:00020090       ?_Growmap@?$deque@HV?$allocator@H@std@@@std@@AAEXI@Z 10021090 f i D3D9RenderDevice.obj
 0001:000201d0       ?_Insert_new_node_before@?$_Hash@V?$_Umap_traits@PAVAActor@@HV?$_Uhash_compare@PAVAActor@@U?$hash@PAVAActor@@@std@@U?$equal_to@PAVAActor@@@3@@std@@V?$allocator@U?$pair@QAVAActor@@H@std@@@3@$0A@@std@@@std@@IAEPAU?$_List_node@U?$pair@QAVAActor@@H@std@@PAX@2@IQAU32@0@Z 100211d0 f i D3D9RenderDevice.obj
 0001:00020230       ?_Insert_node@?$_Tree_val@U?$_Tree_simple_types@I@std@@@std@@QAEPAU?$_Tree_node@IPAX@2@U?$_Tree_id@PAU?$_Tree_node@IPAX@std@@@2@QAU32@@Z 10021230 f i D3D9RenderDevice.obj
 0001:00020420       ?_Insert_node@?$_Tree_val@U?$_Tree_simple_types@VFPlane@@@std@@@std@@QAEPAU?$_Tree_node@VFPlane@@PAX@2@U?$_Tree_id@PAU?$_Tree_node@VFPlane@@PAX@std@@@2@QAU32@@Z 10021420 f i D3D9RenderDevice.obj
 0001:00020610       ?_Rehash_for_1@?$_Hash@V?$_Umap_traits@PAVAActor@@HV?$_Uhash_compare@PAVAActor@@U?$hash@PAVAActor@@@std@@U?$equal_to@PAVAActor@@@3@@std@@V?$allocator@U?$pair@QAVAActor@@H@std@@@3@$0A@@std@@@std@@IAEXXZ 10021610 f i D3D9RenderDevice.obj
 0001:000206a0       ?_Throw_tree_length_error@std@@YAXXZ 100216a0 f i D3D9RenderDevice.obj
 0001:000206b0       ?_Tidy@?$deque@HV?$allocator@H@std@@@std@@AAEXXZ 100216b0 f i D3D9RenderDevice.obj
 0001:00020780       ?_Unchecked_erase@?$_Hash@V?$_Umap_traits@PAVAActor@@HV?$_Uhash_compare@PAVAActor@@U?$hash@PAVAActor@@@std@@U?$equal_to@PAVAActor@@@3@@std@@V?$allocator@U?$pair@QAVAActor@@H@std@@@3@$0A@@std@@@std@@AAEPAU?$_List_node@U?$pair@QAVAActor@@H@std@@PAX@2@PAU32@QAU32@@Z 10021780 f i D3D9RenderDevice.obj
 0001:000208f0       ?_Unchecked_erase@?$_Hash@V?$_Uset_traits@V?$basic_string@GU?$char_traits@G@std@@V?$allocator@G@2@@std@@V?$_Uhash_compare@V?$basic_string@GU?$char_traits@G@std@@V?$allocator@G@2@@std@@U?$hash@V?$basic_string@GU?$char_traits@G@std@@V?$allocator@G@2@@std@@@2@U?$equal_to@V?$basic_string@GU?$char_traits@G@std@@V?$allocator@G@2@@std@@@2@@2@V?$allocator@V?$basic_string@GU?$char_traits@G@std@@V?$allocator@G@2@@std@@@2@$0A@@std@@@std@@AAEPAU?$_List_node@V?$basic_string@GU?$char_traits@G@std@@V?$allocator@G@2@@std@@PAX@2@PAU32@QAU32@@Z 100218f0 f i D3D9RenderDevice.obj
 0001:00020ab0       ?_Xlen@?$deque@HV?$allocator@H@std@@@std@@CAXXZ 10021ab0 f i D3D9RenderDevice.obj
 0001:00020ac0       ?_Xlength@?$vector@PAUFPoly@@V?$allocator@PAUFPoly@@@std@@@std@@CAXXZ 10021ac0 f i D3D9RenderDevice.obj
 0001:00020ad0       ?_Xlength@?$vector@UTileFuncCall@UD3D9RenderDevice@@V?$allocator@UTileFuncCall@UD3D9RenderDevice@@@std@@@std@@CAXXZ 10021ad0 f i D3D9RenderDevice.obj
 0001:00020ae0       ?alloc_node@?$rbtree_allocator@V?$rbtree@KV?$rbtree_node_pool@V?$rbtree@_KUFCachedTexture@@@@@@@@@@QAEPAUnode_t@?$rbtree@KV?$rbtree_node_pool@V?$rbtree@_KUFCachedTexture@@@@@@@@XZ 10021ae0 f i D3D9RenderDevice.obj
 0001:00020b50       ?appError@@YAXPBDZZ        10021b50 f i D3D9RenderDevice.obj
 0001:00020b60       ?appSprintf@@YAPADPBDZZ    10021b60 f i D3D9RenderDevice.obj
 0001:00020ba0       ?begin@?$rbtree@KUFCachedTexture@@@@QAEPAUnode_t@1@XZ 10021ba0 f i D3D9RenderDevice.obj
 0001:00020bc0       ?begin@?$rbtree@KV?$rbtree_node_pool@V?$rbtree@_KUFCachedTexture@@@@@@@@QAEPAUnode_t@1@XZ 10021bc0 f i D3D9RenderDevice.obj
 0001:00020be0       ?begin@?$rbtree@_KUFCachedTexture@@@@QAEPAUnode_t@1@XZ 10021be0 f i D3D9RenderDevice.obj
 0001:00020c00       ?bridge_initRemixApi@remixapi@@YA?AW4remixapi_ErrorCode@@PAUremixapi_Interface@@@Z 10021c00 f i D3D9RenderDevice.obj
 0001:00020cb0       ?clear@?$rbtree@KUFCachedTexture@@@@QAIXPAV?$rbtree_allocator@V?$rbtree@KUFCachedTexture@@@@@@@Z 10021cb0 f i D3D9RenderDevice.obj
 0001:00020d80       ?clear@?$rbtree@KV?$rbtree_node_pool@V?$rbtree@_KUFCachedTexture@@@@@@@@QAIXPAV?$rbtree_allocator@V?$rbtree@KV?$rbtree_node_pool@V?$rbtree@_KUFCachedTexture@@@@@@@@@@@Z 10021d80 f i D3D9RenderDevice.obj
 0001:00020e50       ?clear@?$rbtree@_KUFCachedTexture@@@@QAIXPAV?$rbtree_allocator@V?$rbtree@_KUFCachedTexture@@@@@@@Z 10021e50 f i D3D9RenderDevice.obj
 0001:00020f20       ?deallocate@?$allocator@PAH@std@@QAEXQAPAHI@Z 10021f20 f i D3D9RenderDevice.obj
 0001:00020fa0       ?deallocate@?$allocator@PAUFPoly@@@std@@QAEXQAPAUFPoly@@I@Z 10021fa0 f i D3D9RenderDevice.obj
 0001:00021020       ?deallocate@?$allocator@U?$_List_node@U?$pair@$$CBU?$pair@QAUFTextureInfo@@$$CBK@std@@V?$vector@PAUFPoly@@V?$allocator@PAUFPoly@@@std@@@2@@std@@PAX@std@@@std@@QAEXQAU?$_List_node@U?$pair@$$CBU?$pair@QAUFTextureInfo@@$$CBK@std@@V?$vector@PAUFPoly@@V?$allocator@PAUFPoly@@@std@@@2@@std@@PAX@2@I@Z 10022020 f i D3D9RenderDevice.obj
 0001:000210a0       ?deallocate@?$allocator@U?$_Tree_node@IPAX@std@@@std@@QAEXQAU?$_Tree_node@IPAX@2@I@Z 100220a0 f i D3D9RenderDevice.obj
 0001:00021120       ?deallocate@?$allocator@UTileFuncCall@UD3D9RenderDevice@@@std@@QAEXQAUTileFuncCall@UD3D9RenderDevice@@I@Z 10022120 f i D3D9RenderDevice.obj
 0001:000211a0       ?deallocate@?$allocator@V?$_List_unchecked_const_iterator@V?$_List_val@U?$_List_simple_types@V?$basic_string@GU?$char_traits@G@std@@V?$allocator@G@2@@std@@@std@@@std@@U_Iterator_base0@2@@std@@@std@@QAEXQAV?$_List_unchecked_const_iterator@V?$_List_val@U?$_List_simple_types@V?$basic_string@GU?$char_traits@G@std@@V?$allocator@G@2@@std@@@std@@@std@@U_Iterator_base0@2@@2@I@Z 100221a0 f i D3D9RenderDevice.obj
 0001:00021220       ?deallocate@?$allocator@V?$_List_unchecked_iterator@V?$_List_val@U?$_List_simple_types@U?$pair@$$CBU?$pair@QAUFTextureInfo@@$$CBK@std@@V?$vector@PAUFPoly@@V?$allocator@PAUFPoly@@@std@@@2@@std@@@std@@@std@@@std@@@std@@QAEXQAV?$_List_unchecked_iterator@V?$_List_val@U?$_List_simple_types@U?$pair@$$CBU?$pair@QAUFTextureInfo@@$$CBK@std@@V?$vector@PAUFPoly@@V?$allocator@PAUFPoly@@@std@@@2@@std@@@std@@@std@@@2@I@Z 10022220 f i D3D9RenderDevice.obj
 0001:000212a0       ?deallocate@?$allocator@V?$_List_unchecked_iterator@V?$_List_val@U?$_List_simple_types@U?$pair@QAVAActor@@H@std@@@std@@@std@@@std@@@std@@QAEXQAV?$_List_unchecked_iterator@V?$_List_val@U?$_List_simple_types@U?$pair@QAVAActor@@H@std@@@std@@@std@@@2@I@Z 100222a0 f i D3D9RenderDevice.obj
 0001:00021320       ?drawLevelSurfaces@UD3D9RenderDevice@@QAEXPAUFSceneNode@@AAUFSurfaceInfo@@AAV?$vector@PAUFSurfaceFacet@@V?$allocator@PAUFSurfaceFacet@@@std@@@std@@@Z 10022320 f   D3D9RenderDevice.obj
 0001:00021570       ?endWorldDraw@UD3D9RenderDevice@@QAEXPAUFSceneNode@@@Z 10022570 f   D3D9RenderDevice.obj
 0001:00021720       ?fillHashTexture@UD3D9RenderDevice@@QAEXUFTexConvertCtx@1@AAUFTextureInfo@@@Z 10022720 f   D3D9RenderDevice.obj
 0001:00021840       ?find@?$rbtree@KV?$rbtree_node_pool@V?$rbtree@_KUFCachedTexture@@@@@@@@QAIPAUnode_t@1@K@Z 10022840 f i D3D9RenderDevice.obj
 0001:00021930       ?getVertBufferPos@UD3D9RenderDevice@@QAEII@Z 10022930 f i D3D9RenderDevice.obj
 0001:00021a10       ?insert@?$rbtree@KUFCachedTexture@@@@QAI_NPAUnode_t@1@@Z 10022a10 f i D3D9RenderDevice.obj
 0001:00021be0       ?insert@?$rbtree@KV?$rbtree_node_pool@V?$rbtree@_KUFCachedTexture@@@@@@@@QAI_NPAUnode_t@1@@Z 10022be0 f i D3D9RenderDevice.obj
 0001:00021db0       ?insert@?$rbtree@_KUFCachedTexture@@@@QAI_NPAUnode_t@1@@Z 10022db0 f i D3D9RenderDevice.obj
 0001:00021f90       ?left_rotate@?$rbtree@KUFCachedTexture@@@@AAIXPAUnode_t@1@@Z 10022f90 f i D3D9RenderDevice.obj
 0001:00021fd0       ?left_rotate@?$rbtree@KV?$rbtree_node_pool@V?$rbtree@_KUFCachedTexture@@@@@@@@AAIXPAUnode_t@1@@Z 10022fd0 f i D3D9RenderDevice.obj
 0001:00022010       ?left_rotate@?$rbtree@_KUFCachedTexture@@@@AAIXPAUnode_t@1@@Z 10023010 f i D3D9RenderDevice.obj
 0001:00022050       ?link_to_tail@CCachedTextureChain@@QAIXPAUFCachedTexture@@@Z 10023050 f i D3D9RenderDevice.obj
 0001:00022070       ?needsNewBuffer@UD3D9RenderDevice@@QAE_NKIPAUFTextureInfo@@@Z 10023070 f i D3D9RenderDevice.obj
 0001:000220f0       ?next_node@?$rbtree@KUFCachedTexture@@@@QAIPAUnode_t@1@PAU21@@Z 100230f0 f i D3D9RenderDevice.obj
 0001:00022130       ?next_node@?$rbtree@KV?$rbtree_node_pool@V?$rbtree@_KUFCachedTexture@@@@@@@@QAIPAUnode_t@1@PAU21@@Z 10023130 f i D3D9RenderDevice.obj
 0001:00022170       ?next_node@?$rbtree@_KUFCachedTexture@@@@QAIPAUnode_t@1@PAU21@@Z 10023170 f i D3D9RenderDevice.obj
 0001:000221b0       ?push_back@?$vector@PAUFPoly@@V?$allocator@PAUFPoly@@@std@@@std@@QAEXABQAUFPoly@@@Z 100231b0 f i D3D9RenderDevice.obj
 0001:000221e0       ?push_back@?$vector@UTileFuncCall@UD3D9RenderDevice@@V?$allocator@UTileFuncCall@UD3D9RenderDevice@@@std@@@std@@QAEX$$QAUTileFuncCall@UD3D9RenderDevice@@@Z 100231e0 f i D3D9RenderDevice.obj
 0001:00022220       ?remove@?$rbtree@KUFCachedTexture@@@@QAIXPAUnode_t@1@@Z 10023220 f i D3D9RenderDevice.obj
 0001:000224d0       ?remove@?$rbtree@KV?$rbtree_node_pool@V?$rbtree@_KUFCachedTexture@@@@@@@@QAIXPAUnode_t@1@@Z 100234d0 f i D3D9RenderDevice.obj
 0001:00022780       ?remove@?$rbtree@_KUFCachedTexture@@@@QAIXPAUnode_t@1@@Z 10023780 f i D3D9RenderDevice.obj
 0001:00022a30       ?renderAnchor@UD3D9RenderDevice@@QAEXPBU_D3DMATRIX@@PAVUTexture@@II@Z 10023a30 f   D3D9RenderDevice.obj
 0001:00022fd0       ?renderLights@UD3D9RenderDevice@@QAEXPAUFSceneNode@@V?$vector@PAVAActor@@V?$allocator@PAVAActor@@@std@@@std@@@Z 10023fd0 f   D3D9RenderDevice.obj
 0001:00023340       ?renderMover@UD3D9RenderDevice@@QAEXPAUFSceneNode@@PAVABrush@@@Z 10024340 f   D3D9RenderDevice.obj
 0001:00023c60       ?renderRTXAnchor@UD3D9RenderDevice@@QAEXABVRTXAnchor@@PAVUTexture@@@Z 10024c60 f   D3D9RenderDevice.obj
 0001:00023ef0       ?renderSkyZoneAnchor@UD3D9RenderDevice@@QAEXPAVASkyZoneInfo@@PBVFVector@@@Z 10024ef0 f   D3D9RenderDevice.obj
 0001:00024140       ?renderSprite@UD3D9RenderDevice@@QAEXPAUFSceneNode@@PAVAActor@@@Z 10025140 f   D3D9RenderDevice.obj
 0001:00024390       ?renderSpriteGeo@UD3D9RenderDevice@@QAEXPAUFSceneNode@@ABVFVector@@MMAAUFTextureInfo@@KVFPlane@@@Z 10025390 f   D3D9RenderDevice.obj
 0001:00024aa0       ?renderSurfaceBuckets@UD3D9RenderDevice@@QAEXABUActorRenderData@@N@Z 10025aa0 f   D3D9RenderDevice.obj
 0001:00024ca0       ?reserve@?$_Hash@V?$_Umap_traits@$$CBU?$pair@QAUFTextureInfo@@$$CBK@std@@V?$vector@PAUFPoly@@V?$allocator@PAUFPoly@@@std@@@2@V?$_Uhash_compare@$$CBU?$pair@QAUFTextureInfo@@$$CBK@std@@USurfKey_Hash@@U?$equal_to@$$CBU?$pair@QAUFTextureInfo@@$$CBK@std@@@2@@2@V?$allocator@U?$pair@$$CBU?$pair@QAUFTextureInfo@@$$CBK@std@@V?$vector@PAUFPoly@@V?$allocator@PAUFPoly@@@std@@@2@@std@@@2@$0A@@std@@@std@@QAEXI@Z 10025ca0 f i D3D9RenderDevice.obj
 0001:00024d70       ?reserve@?$_Hash@V?$_Umap_traits@PAVUTexture@@UFTextureInfo@@V?$_Uhash_compare@PAVUTexture@@U?$hash@PAVUTexture@@@std@@U?$equal_to@PAVUTexture@@@3@@std@@V?$allocator@U?$pair@QAVUTexture@@UFTextureInfo@@@std@@@4@$0A@@std@@@std@@QAEXI@Z 10025d70 f i D3D9RenderDevice.obj
 0001:00024e40       ?right_rotate@?$rbtree@KUFCachedTexture@@@@AAIXPAUnode_t@1@@Z 10025e40 f i D3D9RenderDevice.obj
 0001:00024e80       ?right_rotate@?$rbtree@KV?$rbtree_node_pool@V?$rbtree@_KUFCachedTexture@@@@@@@@AAIXPAUnode_t@1@@Z 10025e80 f i D3D9RenderDevice.obj
 0001:00024ec0       ?right_rotate@?$rbtree@_KUFCachedTexture@@@@AAIXPAUnode_t@1@@Z 10025ec0 f i D3D9RenderDevice.obj
 0001:00024f00       ?setCompatMatrix@UD3D9RenderDevice@@QAEXPAUFSceneNode@@@Z 10025f00 f   D3D9RenderDevice.obj
 0001:00024fe0       ?setIdentityMatrix@UD3D9RenderDevice@@QAEXXZ 10025fe0 f   D3D9RenderDevice.obj
 0001:00025060       ?setProjection@UD3D9RenderDevice@@QAEXMM@Z 10026060 f   D3D9RenderDevice.obj
 0001:00025170       ?shouldGenHashTexture@UD3D9RenderDevice@@QAE_NABUFTextureInfo@@@Z 10026170 f   D3D9RenderDevice.obj
 0001:00025340       ?slotMap@LightSlots@UD3D9RenderDevice@@QAE?BV?$unordered_map@PAVAActor@@HU?$hash@PAVAActor@@@std@@U?$equal_to@PAVAActor@@@3@V?$allocator@U?$pair@QAVAActor@@H@std@@@3@@std@@XZ 10026340 f i D3D9RenderDevice.obj
 0001:000253a0       ?startWorldDraw@UD3D9RenderDevice@@QAEXPAUFSceneNode@@@Z 100263a0 f   D3D9RenderDevice.obj
 0001:000255d0       ?updateActors@LightSlots@UD3D9RenderDevice@@QAE?AV?$unordered_set@HU?$hash@H@std@@U?$equal_to@H@2@V?$allocator@H@2@@std@@ABV?$vector@PAVAActor@@V?$allocator@PAVAActor@@@std@@@4@@Z 100265d0 f   D3D9RenderDevice.obj
 0001:00025bf0       ?updateQuadBuffer@UD3D9RenderDevice@@QAEXK@Z 10026bf0 f i D3D9RenderDevice.obj
 0001:00025f10       _wmemcmp                   10026f10 f i D3D9RenderDevice.obj
 0001:00026060       ?DrawFogSurface@URenderDevice@@UAEXPAUFSceneNode@@AAUFFogSurf@@@Z 10027060 f   DS9Compat.obj
 0001:00026070       ?DrawTriangles@URenderDevice@@UAEXPAUFSceneNode@@AAUFTextureInfo@@PAPAUFTransTexture@@HPAGHKPAVFSpanBuffer@@@Z 10027070 f   DS9Compat.obj
 0001:00026080       ?MaxVertices@URenderDevice@@UAEHXZ 10027080 f   DS9Compat.obj
 0001:00026090       ?PostDrawFogSurface@URenderDevice@@UAEXXZ 10027090 f   DS9Compat.obj
 0001:000260a0       ?PostDrawGouraud@URenderDevice@@UAEXM@Z 100270a0 f   DS9Compat.obj
 0001:000260b0       ?PreDrawFogSurface@URenderDevice@@UAEXXZ 100270b0 f   DS9Compat.obj
 0001:000260c0       ?PreDrawGouraud@URenderDevice@@UAEXPAUFSceneNode@@MVFPlane@@@Z 100270c0 f   DS9Compat.obj
 0001:000260d0       ?PrecacheTexture@UD3D9RenderDevice@@UAEXAAUFTextureInfo@@K@Z 100270d0 f   DS9Compat.obj
 0001:00026140       ?ReadPixels@URenderDevice@@UAEXPAUFColor@@H@Z 10027140 f   DS9Compat.obj
 0001:00026150       ?ShutdownAfterError@URenderDevice@@UAEXXZ 10027150 f   DS9Compat.obj
 0001:00026160       ?SupportsTextureFormat@URenderDevice@@UAEHW4ETextureFormat@@@Z 10027160 f   DS9Compat.obj
 0001:00026170       ??$?0AANN$0A@@?$basic_json@Vmap@std@@Vvector@2@V?$basic_string@DU?$char_traits@D@std@@V?$allocator@D@2@@2@_N_J_KNVallocator@2@Uadl_serializer@json_abi_v3_12_0@nlohmann@@V?$vector@EV?$allocator@E@std@@@2@X@json_abi_v3_12_0@nlohmann@@QAE@AAN@Z 10027170 f i RTXLevelProperties.obj
 0001:00026210       ??$?0AAV?$basic_string@DU?$char_traits@D@std@@V?$allocator@D@2@@std@@V01@$0A@@?$basic_json@Vmap@std@@Vvector@2@V?$basic_string@DU?$char_traits@D@std@@V?$allocator@D@2@@2@_N_J_KNVallocator@2@Uadl_serializer@json_abi_v3_12_0@nlohmann@@V?$vector@EV?$allocator@E@std@@@2@X@json_abi_v3_12_0@nlohmann@@QAE@AAV?$basic_string@DU?$char_traits@D@std@@V?$allocator@D@2@@std@@@Z 10027210 f i RTXLevelProperties.obj
 0001:000262c0       ??$?0AA_J_J$0A@@?$basic_json@Vmap@std@@Vvector@2@V?$basic_string@DU?$char_traits@D@std@@V?$allocator@D@2@@2@_N_J_KNVallocator@2@Uadl_serializer@json_abi_v3_12_0@nlohmann@@V?$vector@EV?$allocator@E@std@@@2@X@json_abi_v3_12_0@nlohmann@@QAE@AA_J@Z 100272c0 f i RTXLevelProperties.obj
 0001:00026350       ??$?0AA_K_K$0A@@?$basic_json@Vmap@std@@Vvector@2@V?$basic_string@DU?$char_traits@D@std@@V?$allocator@D@2@@2@_N_J_KNVallocator@2@Uadl_serializer@json_abi_v3_12_0@nlohmann@@V?$vector@EV?$allocator@E@std@@@2@X@json_abi_v3_12_0@nlohmann@@QAE@AA_K@Z 10027350 f i RTXLevelProperties.obj
 0001:000263e0       ??$?0AA_N_N$0A@@?$basic_json@Vmap@std@@Vvector@2@V?$basic_string@DU?$char_traits@D@std@@V?$allocator@D@2@@2@_N_J_KNVallocator@2@Uadl_serializer@json_abi_v3_12_0@nlohmann@@V?$vector@EV?$allocator@E@std@@@2@X@json_abi_v3_12_0@nlohmann@@QAE@AA_N@Z 100273e0 f i RTXLevelProperties.obj
 0001:00026470       ??$?0PAD$0A@@?$basic_string@DU?$char_traits@D@std@@V?$allocator@D@2@@std@@QAE@PAD0ABV?$allocator@D@1@@Z 10027470 f i RTXLevelProperties.obj
 0001:00026560       ??$?8DU?$char_traits@D@std@@V?$allocator@D@1@@std@@YA_NABV?$basic_string@DU?$char_traits@D@std@@V?$allocator@D@2@@0@0@Z 10027560 f i RTXLevelProperties.obj
 0001:00026590       ??$?9V?$iter_impl@V?$basic_json@Vmap@std@@Vvector@2@V?$basic_string@DU?$char_traits@D@std@@V?$allocator@D@2@@2@_N_J_KNVallocator@2@Uadl_serializer@json_abi_v3_12_0@nlohmann@@V?$vector@EV?$allocator@E@std@@@2@X@json_abi_v3_12_0@nlohmann@@@detail@json_abi_v3_12_0@nlohmann@@$0A@@?$iter_impl@V?$basic_json@Vmap@std@@Vvector@2@V?$basic_string@DU?$char_traits@D@std@@V?$allocator@D@2@@2@_N_J_KNVallocator@2@Uadl_serializer@json_abi_v3_12_0@nlohmann@@V?$vector@EV?$allocator@E@std@@@2@X@json_abi_v3_12_0@nlohmann@@@detail@json_abi_v3_12_0@nlohmann@@QBE_NABV0123@@Z 10027590 f i RTXLevelProperties.obj
 0001:00026670       ??$?A$$CBD@?$basic_json@Vmap@std@@Vvector@2@V?$basic_string@DU?$char_traits@D@std@@V?$allocator@D@2@@2@_N_J_KNVallocator@2@Uadl_serializer@json_abi_v3_12_0@nlohmann@@V?$vector@EV?$allocator@E@std@@@2@X@json_abi_v3_12_0@nlohmann@@QAEAAV012@PBD@Z 10027670 f i RTXLevelProperties.obj
 0001:000267a0       ??$?BV?$basic_string@DU?$char_traits@D@std@@V?$allocator@D@2@@std@@$0A@@?$basic_json@Vmap@std@@Vvector@2@V?$basic_string@DU?$char_traits@D@std@@V?$allocator@D@2@@2@_N_J_KNVallocator@2@Uadl_serializer@json_abi_v3_12_0@nlohmann@@V?$vector@EV?$allocator@E@std@@@2@X@json_abi_v3_12_0@nlohmann@@QBE?AV?$basic_string@DU?$char_traits@D@std@@V?$allocator@D@2@@std@@XZ 100277a0 f i RTXLevelProperties.obj
 0001:00026850       ??$_Allocate_for_capacity@$0A@@?$basic_string@DU?$char_traits@D@std@@V?$allocator@D@2@@std@@CAPADAAV?$allocator@D@1@AAI@Z 10027850 f i RTXLevelProperties.obj
 0001:00026890       ??$_Copy_memmove@PADPAD@std@@YAPADPAD00@Z 10027890 f i RTXLevelProperties.obj
 0001:000268b0       ??$_Copy_memmove@PAEPAE@std@@YAPAEPAE00@Z 100278b0 f i RTXLevelProperties.obj
 0001:000268d0       ??$_Copy_memmove@PAIPAI@std@@YAPAIPAI00@Z 100278d0 f i RTXLevelProperties.obj
 0001:000268f0       ??$_Copy_memmove@PAPAV?$basic_json@Vmap@std@@Vvector@2@V?$basic_string@DU?$char_traits@D@std@@V?$allocator@D@2@@2@_N_J_KNVallocator@2@Uadl_serializer@json_abi_v3_12_0@nlohmann@@V?$vector@EV?$allocator@E@std@@@2@X@json_abi_v3_12_0@nlohmann@@PAPAV123@@std@@YAPAPAV?$basic_json@Vmap@std@@Vvector@2@V?$basic_string@DU?$char_traits@D@std@@V?$allocator@D@2@@2@_N_J_KNVallocator@2@Uadl_serializer@json_abi_v3_12_0@nlohmann@@V?$vector@EV?$allocator@E@std@@@2@X@json_abi_v3_12_0@nlohmann@@PAPAV123@00@Z 100278f0 f i RTXLevelProperties.obj
 0001:00026910       ??$_Copy_memmove@PBDPAD@std@@YAPADPBD0PAD@Z 10027910 f i RTXLevelProperties.obj
 0001:00026930       ??$_Copy_memmove_tail@PAD@std@@YAPADQBDQADII@Z 10027930 f i RTXLevelProperties.obj
 0001:00026950       ??$_Copy_memmove_tail@PAE@std@@YAPAEQBDQAEII@Z 10027950 f i RTXLevelProperties.obj
 0001:00026970       ??$_Copy_memmove_tail@PAI@std@@YAPAIQBDQAIII@Z 10027970 f i RTXLevelProperties.obj
 0001:00026990       ??$_Copy_memmove_tail@PAPAV?$basic_json@Vmap@std@@Vvector@2@V?$basic_string@DU?$char_traits@D@std@@V?$allocator@D@2@@2@_N_J_KNVallocator@2@Uadl_serializer@json_abi_v3_12_0@nlohmann@@V?$vector@EV?$allocator@E@std@@@2@X@json_abi_v3_12_0@nlohmann@@@std@@YAPAPAV?$basic_json@Vmap@std@@Vvector@2@V?$basic_string@DU?$char_traits@D@std@@V?$allocator@D@2@@2@_N_J_KNVallocator@2@Uadl_serializer@json_abi_v3_12_0@nlohmann@@V?$vector@EV?$allocator@E@std@@@2@X@json_abi_v3_12_0@nlohmann@@QBDQAPAV123@II@Z 10027990 f i RTXLevelProperties.obj
 0001:000269b0       ??$_Copy_nodes@$0A@@?$_Tree@V?$_Tmap_traits@V?$basic_string@DU?$char_traits@D@std@@V?$allocator@D@2@@std@@V?$basic_json@Vmap@std@@Vvector@2@V?$basic_string@DU?$char_traits@D@std@@V?$allocator@D@2@@2@_N_J_KNVallocator@2@Uadl_serializer@json_abi_v3_12_0@nlohmann@@V?$vector@EV?$allocator@E@std@@@2@X@json_abi_v3_12_0@nlohmann@@U?$less@X@2@V?$allocator@U?$pair@$$CBV?$basic_string@DU?$char_traits@D@std@@V?$allocator@D@2@@std@@V?$basic_json@Vmap@std@@Vvector@2@V?$basic_string@DU?$char_traits@D@std@@V?$allocator@D@2@@2@_N_J_KNVallocator@2@Uadl_serializer@json_abi_v3_12_0@nlohmann@@V?$vector@EV?$allocator@E@std@@@2@X@json_abi_v3_12_0@nlohmann@@@std@@@2@$0A@@std@@@std@@IAEPAU?$_Tree_node@U?$pair@$$CBV?$basic_string@DU?$char_traits@D@std@@V?$allocator@D@2@@std@@V?$basic_json@Vmap@std@@Vvector@2@V?$basic_string@DU?$char_traits@D@std@@V?$allocator@D@2@@2@_N_J_KNVallocator@2@Uadl_serializer@json_abi_v3_12_0@nlohmann@@V?$vector@EV?$allocator@E@std@@@2@X@json_abi_v3_12_0@nlohmann@@@std@@PAX@1@PAU21@0@Z 100279b0 f i RTXLevelProperties.obj
 0001:00026ad0       ??$_Copy_vbool@V?$_Vb_iterator@U?$_Wrap_alloc@V?$allocator@I@std@@@std@@@std@@V12@@std@@YA?AV?$_Vb_iterator@U?$_Wrap_alloc@V?$allocator@I@std@@@std@@@0@V10@00@Z 10027ad0 f i RTXLevelProperties.obj
 0001:00026ec0       ??$_Destroy_range@V?$allocator@V?$basic_string@DU?$char_traits@D@std@@V?$allocator@D@2@@std@@@std@@@std@@YAXPAV?$basic_string@DU?$char_traits@D@std@@V?$allocator@D@2@@0@QAV10@AAV?$allocator@V?$basic_string@DU?$char_traits@D@std@@V?$allocator@D@2@@std@@@0@@Z 10027ec0 f i RTXLevelProperties.obj
 0001:00026f00       ??$_Emplace@V?$basic_string@DU?$char_traits@D@std@@V?$allocator@D@2@@std@@$$T@?$_Tree@V?$_Tmap_traits@V?$basic_string@DU?$char_traits@D@std@@V?$allocator@D@2@@std@@V?$basic_json@Vmap@std@@Vvector@2@V?$basic_string@DU?$char_traits@D@std@@V?$allocator@D@2@@2@_N_J_KNVallocator@2@Uadl_serializer@json_abi_v3_12_0@nlohmann@@V?$vector@EV?$allocator@E@std@@@2@X@json_abi_v3_12_0@nlohmann@@U?$less@X@2@V?$allocator@U?$pair@$$CBV?$basic_string@DU?$char_traits@D@std@@V?$allocator@D@2@@std@@V?$basic_json@Vmap@std@@Vvector@2@V?$basic_string@DU?$char_traits@D@std@@V?$allocator@D@2@@2@_N_J_KNVallocator@2@Uadl_serializer@json_abi_v3_12_0@nlohmann@@V?$vector@EV?$allocator@E@std@@@2@X@json_abi_v3_12_0@nlohmann@@@std@@@2@$0A@@std@@@std@@IAE?AU?$pair@PAU?$_Tree_node@U?$pair@$$CBV?$basic_string@DU?$char_traits@D@std@@V?$allocator@D@2@@std@@V?$basic_json@Vmap@std@@Vvector@2@V?$basic_string@DU?$char_traits@D@std@@V?$allocator@D@2@@2@_N_J_KNVallocator@2@Uadl_serializer@json_abi_v3_12_0@nlohmann@@V?$vector@EV?$allocator@E@std@@@2@X@json_abi_v3_12_0@nlohmann@@@std@@PAX@std@@_N@1@$$QAV?$basic_string@DU?$char_traits@D@std@@V?$allocator@D@2@@1@$$QA$$T@Z 10027f00 f i RTXLevelProperties.obj
 0001:00027080       ??$_Emplace_one_at_back@V?$basic_json@Vmap@std@@Vvector@2@V?$basic_string@DU?$char_traits@D@std@@V?$allocator@D@2@@2@_N_J_KNVallocator@2@Uadl_serializer@json_abi_v3_12_0@nlohmann@@V?$vector@EV?$allocator@E@std@@@2@X@json_abi_v3_12_0@nlohmann@@@?$vector@V?$basic_json@Vmap@std@@Vvector@2@V?$basic_string@DU?$char_traits@D@std@@V?$allocator@D@2@@2@_N_J_KNVallocator@2@Uadl_serializer@json_abi_v3_12_0@nlohmann@@V?$vector@EV?$allocator@E@std@@@2@X@json_abi_v3_12_0@nlohmann@@V?$allocator@V?$basic_json@Vmap@std@@Vvector@2@V?$basic_string@DU?$char_traits@D@std@@V?$allocator@D@2@@2@_N_J_KNVallocator@2@Uadl_serializer@json_abi_v3_12_0@nlohmann@@V?$vector@EV?$allocator@E@std@@@2@X@json_abi_v3_12_0@nlohmann@@@std@@@std@@AAEAAV?$basic_json@Vmap@std@@Vvector@2@V?$basic_string@DU?$char_traits@D@std@@V?$allocator@D@2@@2@_N_J_KNVallocator@2@Uadl_serializer@json_abi_v3_12_0@nlohmann@@V?$vector@EV?$allocator@E@std@@@2@X@json_abi_v3_12_0@nlohmann@@$$QAV234@@Z 10028080 f i RTXLevelProperties.obj
 0001:00027120       ??$_Emplace_reallocate@$$T@?$vector@V?$basic_json@Vmap@std@@Vvector@2@V?$basic_string@DU?$char_traits@D@std@@V?$allocator@D@2@@2@_N_J_KNVallocator@2@Uadl_serializer@json_abi_v3_12_0@nlohmann@@V?$vector@EV?$allocator@E@std@@@2@X@json_abi_v3_12_0@nlohmann@@V?$allocator@V?$basic_json@Vmap@std@@Vvector@2@V?$basic_string@DU?$char_traits@D@std@@V?$allocator@D@2@@2@_N_J_KNVallocator@2@Uadl_serializer@json_abi_v3_12_0@nlohmann@@V?$vector@EV?$allocator@E@std@@@2@X@json_abi_v3_12_0@nlohmann@@@std@@@std@@AAEPAV?$basic_json@Vmap@std@@Vvector@2@V?$basic_string@DU?$char_traits@D@std@@V?$allocator@D@2@@2@_N_J_KNVallocator@2@Uadl_serializer@json_abi_v3_12_0@nlohmann@@V?$vector@EV?$allocator@E@std@@@2@X@json_abi_v3_12_0@nlohmann@@QAV234@$$QA$$T@Z 10028120 f i RTXLevelProperties.obj
 0001:000272c0       ??$_Emplace_reallocate@AAN@?$vector@V?$basic_json@Vmap@std@@Vvector@2@V?$basic_string@DU?$char_traits@D@std@@V?$allocator@D@2@@2@_N_J_KNVallocator@2@Uadl_serializer@json_abi_v3_12_0@nlohmann@@V?$vector@EV?$allocator@E@std@@@2@X@json_abi_v3_12_0@nlohmann@@V?$allocator@V?$basic_json@Vmap@std@@Vvector@2@V?$basic_string@DU?$char_traits@D@std@@V?$allocator@D@2@@2@_N_J_KNVallocator@2@Uadl_serializer@json_abi_v3_12_0@nlohmann@@V?$vector@EV?$allocator@E@std@@@2@X@json_abi_v3_12_0@nlohmann@@@std@@@std@@AAEPAV?$basic_json@Vmap@std@@Vvector@2@V?$basic_string@DU?$char_traits@D@std@@V?$allocator@D@2@@2@_N_J_KNVallocator@2@Uadl_serializer@json_abi_v3_12_0@nlohmann@@V?$vector@EV?$allocator@E@std@@@2@X@json_abi_v3_12_0@nlohmann@@QAV234@AAN@Z 100282c0 f i RTXLevelProperties.obj
 0001:000274a0       ??$_Emplace_reallocate@AAV?$basic_string@DU?$char_traits@D@std@@V?$allocator@D@2@@std@@@?$vector@V?$basic_json@Vmap@std@@Vvector@2@V?$basic_string@DU?$char_traits@D@std@@V?$allocator@D@2@@2@_N_J_KNVallocator@2@Uadl_serializer@json_abi_v3_12_0@nlohmann@@V?$vector@EV?$allocator@E@std@@@2@X@json_abi_v3_12_0@nlohmann@@V?$allocator@V?$basic_json@Vmap@std@@Vvector@2@V?$basic_string@DU?$char_traits@D@std@@V?$allocator@D@2@@2@_N_J_KNVallocator@2@Uadl_serializer@json_abi_v3_12_0@nlohmann@@V?$vector@EV?$allocator@E@std@@@2@X@json_abi_v3_12_0@nlohmann@@@std@@@std@@AAEPAV?$basic_json@Vmap@std@@Vvector@2@V?$basic_string@DU?$char_traits@D@std@@V?$allocator@D@2@@2@_N_J_KNVallocator@2@Uadl_serializer@json_abi_v3_12_0@nlohmann@@V?$vector@EV?$allocator@E@std@@@2@X@json_abi_v3_12_0@nlohmann@@QAV234@AAV?$basic_string@DU?$char_traits@D@std@@V?$allocator@D@2@@1@@Z 100284a0 f i RTXLevelProperties.obj
 0001:00027630       ??$_Emplace_reallocate@AA_J@?$vector@V?$basic_json@Vmap@std@@Vvector@2@V?$basic_string@DU?$char_traits@D@std@@V?$allocator@D@2@@2@_N_J_KNVallocator@2@Uadl_serializer@json_abi_v3_12_0@nlohmann@@V?$vector@EV?$allocator@E@std@@@2@X@json_abi_v3_12_0@nlohmann@@V?$allocator@V?$basic_json@Vmap@std@@Vvector@2@V?$basic_string@DU?$char_traits@D@std@@V?$allocator@D@2@@2@_N_J_KNVallocator@2@Uadl_serializer@json_abi_v3_12_0@nlohmann@@V?$vector@EV?$allocator@E@std@@@2@X@json_abi_v3_12_0@nlohmann@@@std@@@std@@AAEPAV?$basic_json@Vmap@std@@Vvector@2@V?$basic_string@DU?$char_traits@D@std@@V?$allocator@D@2@@2@_N_J_KNVallocator@2@Uadl_serializer@json_abi_v3_12_0@nlohmann@@V?$vector@EV?$allocator@E@std@@@2@X@json_abi_v3_12_0@nlohmann@@QAV234@AA_J@Z 10028630 f i RTXLevelProperties.obj
 0001:00027810       ??$_Emplace_reallocate@AA_K@?$vector@V?$basic_json@Vmap@std@@Vvector@2@V?$basic_string@DU?$char_traits@D@std@@V?$allocator@D@2@@2@_N_J_KNVallocator@2@Uadl_serializer@json_abi_v3_12_0@nlohmann@@V?$vector@EV?$allocator@E@std@@@2@X@json_abi_v3_12_0@nlohmann@@V?$allocator@V?$basic_json@Vmap@std@@Vvector@2@V?$basic_string@DU?$char_traits@D@std@@V?$allocator@D@2@@2@_N_J_KNVallocator@2@Uadl_serializer@json_abi_v3_12_0@nlohmann@@V?$vector@EV?$allocator@E@std@@@2@X@json_abi_v3_12_0@nlohmann@@@std@@@std@@AAEPAV?$basic_json@Vmap@std@@Vvector@2@V?$basic_string@DU?$char_traits@D@std@@V?$allocator@D@2@@2@_N_J_KNVallocator@2@Uadl_serializer@json_abi_v3_12_0@nlohmann@@V?$vector@EV?$allocator@E@std@@@2@X@json_abi_v3_12_0@nlohmann@@QAV234@AA_K@Z 10028810 f i RTXLevelProperties.obj
 0001:000279f0       ??$_Emplace_reallocate@AA_N@?$vector@V?$basic_json@Vmap@std@@Vvector@2@V?$basic_string@DU?$char_traits@D@std@@V?$allocator@D@2@@2@_N_J_KNVallocator@2@Uadl_serializer@json_abi_v3_12_0@nlohmann@@V?$vector@EV?$allocator@E@std@@@2@X@json_abi_v3_12_0@nlohmann@@V?$allocator@V?$basic_json@Vmap@std@@Vvector@2@V?$basic_string@DU?$char_traits@D@std@@V?$allocator@D@2@@2@_N_J_KNVallocator@2@Uadl_serializer@json_abi_v3_12_0@nlohmann@@V?$vector@EV?$allocator@E@std@@@2@X@json_abi_v3_12_0@nlohmann@@@std@@@std@@AAEPAV?$basic_json@Vmap@std@@Vvector@2@V?$basic_string@DU?$char_traits@D@std@@V?$allocator@D@2@@2@_N_J_KNVallocator@2@Uadl_serializer@json_abi_v3_12_0@nlohmann@@V?$vector@EV?$allocator@E@std@@@2@X@json_abi_v3_12_0@nlohmann@@QAV234@AA_N@Z 100289f0 f i RTXLevelProperties.obj
 0001:00027bd0       ??$_Emplace_reallocate@ABQAV?$basic_json@Vmap@std@@Vvector@2@V?$basic_string@DU?$char_traits@D@std@@V?$allocator@D@2@@2@_N_J_KNVallocator@2@Uadl_serializer@json_abi_v3_12_0@nlohmann@@V?$vector@EV?$allocator@E@std@@@2@X@json_abi_v3_12_0@nlohmann@@@?$vector@PAV?$basic_json@Vmap@std@@Vvector@2@V?$basic_string@DU?$char_traits@D@std@@V?$allocator@D@2@@2@_N_J_KNVallocator@2@Uadl_serializer@json_abi_v3_12_0@nlohmann@@V?$vector@EV?$allocator@E@std@@@2@X@json_abi_v3_12_0@nlohmann@@V?$allocator@PAV?$basic_json@Vmap@std@@Vvector@2@V?$basic_string@DU?$char_traits@D@std@@V?$allocator@D@2@@2@_N_J_KNVallocator@2@Uadl_serializer@json_abi_v3_12_0@nlohmann@@V?$vector@EV?$allocator@E@std@@@2@X@json_abi_v3_12_0@nlohmann@@@std@@@std@@AAEPAPAV?$basic_json@Vmap@std@@Vvector@2@V?$basic_string@DU?$char_traits@D@std@@V?$allocator@D@2@@2@_N_J_KNVallocator@2@Uadl_serializer@json_abi_v3_12_0@nlohmann@@V?$vector@EV?$allocator@E@std@@@2@X@json_abi_v3_12_0@nlohmann@@QAPAV234@ABQAV234@@Z 10028bd0 f i RTXLevelProperties.obj
 0001:00027d50       ??$_Emplace_reallocate@D@?$vector@DV?$allocator@D@std@@@std@@AAEPADQAD$$QAD@Z 10028d50 f i RTXLevelProperties.obj
 0001:00027ea0       ??$_Emplace_reallocate@PAV?$basic_json@Vmap@std@@Vvector@2@V?$basic_string@DU?$char_traits@D@std@@V?$allocator@D@2@@2@_N_J_KNVallocator@2@Uadl_serializer@json_abi_v3_12_0@nlohmann@@V?$vector@EV?$allocator@E@std@@@2@X@json_abi_v3_12_0@nlohmann@@@?$vector@PAV?$basic_json@Vmap@std@@Vvector@2@V?$basic_string@DU?$char_traits@D@std@@V?$allocator@D@2@@2@_N_J_KNVallocator@2@Uadl_serializer@json_abi_v3_12_0@nlohmann@@V?$vector@EV?$allocator@E@std@@@2@X@json_abi_v3_12_0@nlohmann@@V?$allocator@PAV?$basic_json@Vmap@std@@Vvector@2@V?$basic_string@DU?$char_traits@D@std@@V?$allocator@D@2@@2@_N_J_KNVallocator@2@Uadl_serializer@json_abi_v3_12_0@nlohmann@@V?$vector@EV?$allocator@E@std@@@2@X@json_abi_v3_12_0@nlohmann@@@std@@@std@@AAEPAPAV?$basic_json@Vmap@std@@Vvector@2@V?$basic_string@DU?$char_traits@D@std@@V?$allocator@D@2@@2@_N_J_KNVallocator@2@Uadl_serializer@json_abi_v3_12_0@nlohmann@@V?$vector@EV?$allocator@E@std@@@2@X@json_abi_v3_12_0@nlohmann@@QAPAV234@$$QAPAV234@@Z 10028ea0 f i RTXLevelProperties.obj
 0001:00028020       ??$_Emplace_reallocate@V?$basic_json@Vmap@std@@Vvector@2@V?$basic_string@DU?$char_traits@D@std@@V?$allocator@D@2@@2@_N_J_KNVallocator@2@Uadl_serializer@json_abi_v3_12_0@nlohmann@@V?$vector@EV?$allocator@E@std@@@2@X@json_abi_v3_12_0@nlohmann@@@?$vector@V?$basic_json@Vmap@std@@Vvector@2@V?$basic_string@DU?$char_traits@D@std@@V?$allocator@D@2@@2@_N_J_KNVallocator@2@Uadl_serializer@json_abi_v3_12_0@nlohmann@@V?$vector@EV?$allocator@E@std@@@2@X@json_abi_v3_12_0@nlohmann@@V?$allocator@V?$basic_json@Vmap@std@@Vvector@2@V?$basic_string@DU?$char_traits@D@std@@V?$allocator@D@2@@2@_N_J_KNVallocator@2@Uadl_serializer@json_abi_v3_12_0@nlohmann@@V?$vector@EV?$allocator@E@std@@@2@X@json_abi_v3_12_0@nlohmann@@@std@@@std@@AAEPAV?$basic_json@Vmap@std@@Vvector@2@V?$basic_string@DU?$char_traits@D@std@@V?$allocator@D@2@@2@_N_J_KNVallocator@2@Uadl_serializer@json_abi_v3_12_0@nlohmann@@V?$vector@EV?$allocator@E@std@@@2@X@json_abi_v3_12_0@nlohmann@@QAV234@$$QAV234@@Z 10029020 f i RTXLevelProperties.obj
 0001:000281d0       ??$_Emplace_reallocate@V?$basic_string@DU?$char_traits@D@std@@V?$allocator@D@2@@std@@@?$vector@V?$basic_string@DU?$char_traits@D@std@@V?$allocator@D@2@@std@@V?$allocator@V?$basic_string@DU?$char_traits@D@std@@V?$allocator@D@2@@std@@@2@@std@@AAEPAV?$basic_string@DU?$char_traits@D@std@@V?$allocator@D@2@@1@QAV21@$$QAV21@@Z 100291d0 f i RTXLevelProperties.obj
 0001:000283a0       ??$_Emplace_reallocate@V?$unique_ptr@VRTXAnchor@@U?$default_delete@VRTXAnchor@@@std@@@std@@@?$vector@V?$unique_ptr@VRTXAnchor@@U?$default_delete@VRTXAnchor@@@std@@@std@@V?$allocator@V?$unique_ptr@VRTXAnchor@@U?$default_delete@VRTXAnchor@@@std@@@std@@@2@@std@@AAEPAV?$unique_ptr@VRTXAnchor@@U?$default_delete@VRTXAnchor@@@std@@@1@QAV21@$$QAV21@@Z 100293a0 f i RTXLevelProperties.obj
 0001:00028540       ??$_Emplace_reallocate@W4value_t@detail@json_abi_v3_12_0@nlohmann@@@?$vector@V?$basic_json@Vmap@std@@Vvector@2@V?$basic_string@DU?$char_traits@D@std@@V?$allocator@D@2@@2@_N_J_KNVallocator@2@Uadl_serializer@json_abi_v3_12_0@nlohmann@@V?$vector@EV?$allocator@E@std@@@2@X@json_abi_v3_12_0@nlohmann@@V?$allocator@V?$basic_json@Vmap@std@@Vvector@2@V?$basic_string@DU?$char_traits@D@std@@V?$allocator@D@2@@2@_N_J_KNVallocator@2@Uadl_serializer@json_abi_v3_12_0@nlohmann@@V?$vector@EV?$allocator@E@std@@@2@X@json_abi_v3_12_0@nlohmann@@@std@@@std@@AAEPAV?$basic_json@Vmap@std@@Vvector@2@V?$basic_string@DU?$char_traits@D@std@@V?$allocator@D@2@@2@_N_J_KNVallocator@2@Uadl_serializer@json_abi_v3_12_0@nlohmann@@V?$vector@EV?$allocator@E@std@@@2@X@json_abi_v3_12_0@nlohmann@@QAV234@$$QAW4value_t@detail@34@@Z 10029540 f i RTXLevelProperties.obj
 0001:000286e0       ??$_Erase_tree@V?$allocator@U?$_Tree_node@U?$pair@$$CBV?$basic_string@DU?$char_traits@D@std@@V?$allocator@D@2@@std@@V?$basic_json@Vmap@std@@Vvector@2@V?$basic_string@DU?$char_traits@D@std@@V?$allocator@D@2@@2@_N_J_KNVallocator@2@Uadl_serializer@json_abi_v3_12_0@nlohmann@@V?$vector@EV?$allocator@E@std@@@2@X@json_abi_v3_12_0@nlohmann@@@std@@PAX@std@@@std@@@?$_Tree_val@U?$_Tree_simple_types@U?$pair@$$CBV?$basic_string@DU?$char_traits@D@std@@V?$allocator@D@2@@std@@V?$basic_json@Vmap@std@@Vvector@2@V?$basic_string@DU?$char_traits@D@std@@V?$allocator@D@2@@2@_N_J_KNVallocator@2@Uadl_serializer@json_abi_v3_12_0@nlohmann@@V?$vector@EV?$allocator@E@std@@@2@X@json_abi_v3_12_0@nlohmann@@@std@@@std@@@std@@QAEXAAV?$allocator@U?$_Tree_node@U?$pair@$$CBV?$basic_string@DU?$char_traits@D@std@@V?$allocator@D@2@@std@@V?$basic_json@Vmap@std@@Vvector@2@V?$basic_string@DU?$char_traits@D@std@@V?$allocator@D@2@@2@_N_J_KNVallocator@2@Uadl_serializer@json_abi_v3_12_0@nlohmann@@V?$vector@EV?$allocator@E@std@@@2@X@json_abi_v3_12_0@nlohmann@@@std@@PAX@std@@@1@PAU?$_Tree_node@U?$pair@$$CBV?$basic_string@DU?$char_traits@D@std@@V?$allocator@D@2@@std@@V?$basic_json@Vmap@std@@Vvector@2@V?$basic_string@DU?$char_traits@D@std@@V?$allocator@D@2@@2@_N_J_KNVallocator@2@Uadl_serializer@json_abi_v3_12_0@nlohmann@@V?$vector@EV?$allocator@E@std@@@2@X@json_abi_v3_12_0@nlohmann@@@std@@PAX@1@@Z 100296e0 f i RTXLevelProperties.obj
 0001:000287a0       ??$_Erase_tree_and_orphan@V?$allocator@U?$_Tree_node@U?$pair@$$CBV?$basic_string@DU?$char_traits@D@std@@V?$allocator@D@2@@std@@V?$basic_json@Vmap@std@@Vvector@2@V?$basic_string@DU?$char_traits@D@std@@V?$allocator@D@2@@2@_N_J_KNVallocator@2@Uadl_serializer@json_abi_v3_12_0@nlohmann@@V?$vector@EV?$allocator@E@std@@@2@X@json_abi_v3_12_0@nlohmann@@@std@@PAX@std@@@std@@@?$_Tree_val@U?$_Tree_simple_types@U?$pair@$$CBV?$basic_string@DU?$char_traits@D@std@@V?$allocator@D@2@@std@@V?$basic_json@Vmap@std@@Vvector@2@V?$basic_string@DU?$char_traits@D@std@@V?$allocator@D@2@@2@_N_J_KNVallocator@2@Uadl_serializer@json_abi_v3_12_0@nlohmann@@V?$vector@EV?$allocator@E@std@@@2@X@json_abi_v3_12_0@nlohmann@@@std@@@std@@@std@@QAEXAAV?$allocator@U?$_Tree_node@U?$pair@$$CBV?$basic_string@DU?$char_traits@D@std@@V?$allocator@D@2@@std@@V?$basic_json@Vmap@std@@Vvector@2@V?$basic_string@DU?$char_traits@D@std@@V?$allocator@D@2@@2@_N_J_KNVallocator@2@Uadl_serializer@json_abi_v3_12_0@nlohmann@@V?$vector@EV?$allocator@E@std@@@2@X@json_abi_v3_12_0@nlohmann@@@std@@PAX@std@@@1@PAU?$_Tree_node@U?$pair@$$CBV?$basic_string@DU?$char_traits@D@std@@V?$allocator@D@2@@std@@V?$basic_json@Vmap@std@@Vvector@2@V?$basic_string@DU?$char_traits@D@std@@V?$allocator@D@2@@2@_N_J_KNVallocator@2@Uadl_serializer@json_abi_v3_12_0@nlohmann@@V?$vector@EV?$allocator@E@std@@@2@X@json_abi_v3_12_0@nlohmann@@@std@@PAX@1@@Z 100297a0 f i RTXLevelProperties.obj
 0001:00028860       ??$_Fill_zero_memset@PAI@std@@YAXPAII@Z 10029860 f i RTXLevelProperties.obj
 0001:00028880       ??$_Find_last@V?$basic_string@DU?$char_traits@D@std@@V?$allocator@D@2@@std@@@?$_Hash@V?$_Umap_traits@V?$basic_string@DU?$char_traits@D@std@@V?$allocator@D@2@@std@@V12@V?$_Uhash_compare@V?$basic_string@DU?$char_traits@D@std@@V?$allocator@D@2@@std@@U?$hash@V?$basic_string@DU?$char_traits@D@std@@V?$allocator@D@2@@std@@@2@U?$equal_to@V?$basic_string@DU?$char_traits@D@std@@V?$allocator@D@2@@std@@@2@@2@V?$allocator@U?$pair@$$CBV?$basic_string@DU?$char_traits@D@std@@V?$allocator@D@2@@std@@V12@@std@@@2@$0A@@std@@@std@@IBE?AU?$_Hash_find_last_result@PAU?$_List_node@U?$pair@$$CBV?$basic_string@DU?$char_traits@D@std@@V?$allocator@D@2@@std@@V12@@std@@PAX@std@@@1@ABV?$basic_string@DU?$char_traits@D@std@@V?$allocator@D@2@@1@I@Z 10029880 f i RTXLevelProperties.obj
 0001:00028910       ??$_Find_last@V?$basic_string@GU?$char_traits@G@std@@V?$allocator@G@2@@std@@@?$_Hash@V?$_Uset_traits@V?$basic_string@GU?$char_traits@G@std@@V?$allocator@G@2@@std@@V?$_Uhash_compare@V?$basic_string@GU?$char_traits@G@std@@V?$allocator@G@2@@std@@U?$hash@V?$basic_string@GU?$char_traits@G@std@@V?$allocator@G@2@@std@@@2@U?$equal_to@V?$basic_string@GU?$char_traits@G@std@@V?$allocator@G@2@@std@@@2@@2@V?$allocator@V?$basic_string@GU?$char_traits@G@std@@V?$allocator@G@2@@std@@@2@$0A@@std@@@std@@IBE?AU?$_Hash_find_last_result@PAU?$_List_node@V?$basic_string@GU?$char_traits@G@std@@V?$allocator@G@2@@std@@PAX@std@@@1@ABV?$basic_string@GU?$char_traits@G@std@@V?$allocator@G@2@@1@I@Z 10029910 f i RTXLevelProperties.obj
 0001:000289b0       ??$_Find_last_vectorized@$$CBDD@std@@YAPBDQBD0D@Z 100299b0 f i RTXLevelProperties.obj
 0001:000289d0       ??$_Find_lower_bound@V?$basic_string@DU?$char_traits@D@std@@V?$allocator@D@2@@std@@@?$_Tree@V?$_Tmap_traits@V?$basic_string@DU?$char_traits@D@std@@V?$allocator@D@2@@std@@V?$basic_json@Vmap@std@@Vvector@2@V?$basic_string@DU?$char_traits@D@std@@V?$allocator@D@2@@2@_N_J_KNVallocator@2@Uadl_serializer@json_abi_v3_12_0@nlohmann@@V?$vector@EV?$allocator@E@std@@@2@X@json_abi_v3_12_0@nlohmann@@U?$less@X@2@V?$allocator@U?$pair@$$CBV?$basic_string@DU?$char_traits@D@std@@V?$allocator@D@2@@std@@V?$basic_json@Vmap@std@@Vvector@2@V?$basic_string@DU?$char_traits@D@std@@V?$allocator@D@2@@2@_N_J_KNVallocator@2@Uadl_serializer@json_abi_v3_12_0@nlohmann@@V?$vector@EV?$allocator@E@std@@@2@X@json_abi_v3_12_0@nlohmann@@@std@@@2@$0A@@std@@@std@@IBE?AU?$_Tree_find_result@PAU?$_Tree_node@U?$pair@$$CBV?$basic_string@DU?$char_traits@D@std@@V?$allocator@D@2@@std@@V?$basic_json@Vmap@std@@Vvector@2@V?$basic_string@DU?$char_traits@D@std@@V?$allocator@D@2@@2@_N_J_KNVallocator@2@Uadl_serializer@json_abi_v3_12_0@nlohmann@@V?$vector@EV?$allocator@E@std@@@2@X@json_abi_v3_12_0@nlohmann@@@std@@PAX@std@@@1@ABV?$basic_string@DU?$char_traits@D@std@@V?$allocator@D@2@@1@@Z 100299d0 f i RTXLevelProperties.obj
 0001:00028a70       ??$_Find_vectorized@$$CBDD@std@@YAPBDQBD0D@Z 10029a70 f i RTXLevelProperties.obj
 0001:00028a90       ??$_Fputc@D@std@@YA_NDPAU_iobuf@@@Z 10029a90 f i RTXLevelProperties.obj
 0001:00028ab0       ??$_Free_non_head@V?$allocator@U?$_List_node@V?$basic_string@GU?$char_traits@G@std@@V?$allocator@G@2@@std@@PAX@std@@@std@@@?$_List_node@V?$basic_string@GU?$char_traits@G@std@@V?$allocator@G@2@@std@@PAX@std@@SAXAAV?$allocator@U?$_List_node@V?$basic_string@GU?$char_traits@G@std@@V?$allocator@G@2@@std@@PAX@std@@@1@PAU01@@Z 10029ab0 f i RTXLevelProperties.obj
 0001:00028b40       ??$_Freenode@V?$allocator@U?$_Tree_node@U?$pair@$$CBV?$basic_string@DU?$char_traits@D@std@@V?$allocator@D@2@@std@@V?$basic_json@Vmap@std@@Vvector@2@V?$basic_string@DU?$char_traits@D@std@@V?$allocator@D@2@@2@_N_J_KNVallocator@2@Uadl_serializer@json_abi_v3_12_0@nlohmann@@V?$vector@EV?$allocator@E@std@@@2@X@json_abi_v3_12_0@nlohmann@@@std@@PAX@std@@@std@@@?$_Tree_node@U?$pair@$$CBV?$basic_string@DU?$char_traits@D@std@@V?$allocator@D@2@@std@@V?$basic_json@Vmap@std@@Vvector@2@V?$basic_string@DU?$char_traits@D@std@@V?$allocator@D@2@@2@_N_J_KNVallocator@2@Uadl_serializer@json_abi_v3_12_0@nlohmann@@V?$vector@EV?$allocator@E@std@@@2@X@json_abi_v3_12_0@nlohmann@@@std@@PAX@std@@SAXAAV?$allocator@U?$_Tree_node@U?$pair@$$CBV?$basic_string@DU?$char_traits@D@std@@V?$allocator@D@2@@std@@V?$basic_json@Vmap@std@@Vvector@2@V?$basic_string@DU?$char_traits@D@std@@V?$allocator@D@2@@2@_N_J_KNVallocator@2@Uadl_serializer@json_abi_v3_12_0@nlohmann@@V?$vector@EV?$allocator@E@std@@@2@X@json_abi_v3_12_0@nlohmann@@@std@@PAX@std@@@1@PAU01@@Z 10029b40 f i RTXLevelProperties.obj
 0001:00028be0       ??$_Hash_array_representation@D@std@@YAIQBDI@Z 10029be0 f i RTXLevelProperties.obj
 0001:00028c10       ??$_Integral_to_string@DH@std@@YA?AV?$basic_string@DU?$char_traits@D@std@@V?$allocator@D@2@@0@H@Z 10029c10 f i RTXLevelProperties.obj
 0001:00028cb0       ??$_Integral_to_string@DI@std@@YA?AV?$basic_string@DU?$char_traits@D@std@@V?$allocator@D@2@@0@I@Z 10029cb0 f i RTXLevelProperties.obj
 0001:00028d30       ??$_Is_all_bits_zero@I@std@@YA_NABI@Z 10029d30 f i RTXLevelProperties.obj
 0001:00028d50       ??$_Reallocate_grow_by@V<lambda_1>@?1??replace@?$basic_string@DU?$char_traits@D@std@@V?$allocator@D@2@@std@@QAEAAV34@IIQBDI@Z@IIPBDI@?$basic_string@DU?$char_traits@D@std@@V?$allocator@D@2@@std@@AAEAAV01@IV<lambda_1>@?1??replace@01@QAEAAV01@IIQBDI@Z@IIPBDI@Z 10029d50 f i RTXLevelProperties.obj
 0001:00028e90       ??$_Resize@I@?$vector@IV?$allocator@I@std@@@std@@AAEXIABI@Z 10029e90 f i RTXLevelProperties.obj
 0001:00029020       ??$_Traits_compare@U?$char_traits@D@std@@@std@@YAHQBDI0I@Z 1002a020 f i RTXLevelProperties.obj
 0001:000290b0       ??$_Traits_equal@U?$char_traits@D@std@@@std@@YA_NQBDI0I@Z 1002a0b0 f i RTXLevelProperties.obj
 0001:00029130       ??$_Try_emplace@ABV?$basic_string@DU?$char_traits@D@std@@V?$allocator@D@2@@std@@$$V@?$_Hash@V?$_Umap_traits@V?$basic_string@DU?$char_traits@D@std@@V?$allocator@D@2@@std@@V12@V?$_Uhash_compare@V?$basic_string@DU?$char_traits@D@std@@V?$allocator@D@2@@std@@U?$hash@V?$basic_string@DU?$char_traits@D@std@@V?$allocator@D@2@@std@@@2@U?$equal_to@V?$basic_string@DU?$char_traits@D@std@@V?$allocator@D@2@@std@@@2@@2@V?$allocator@U?$pair@$$CBV?$basic_string@DU?$char_traits@D@std@@V?$allocator@D@2@@std@@V12@@std@@@2@$0A@@std@@@std@@IAE?AU?$pair@PAU?$_List_node@U?$pair@$$CBV?$basic_string@DU?$char_traits@D@std@@V?$allocator@D@2@@std@@V12@@std@@PAX@std@@_N@1@ABV?$basic_string@DU?$char_traits@D@std@@V?$allocator@D@2@@1@@Z 1002a130 f i RTXLevelProperties.obj
 0001:00029350       ??$_UIntegral_to_buff@DI@std@@YAPADPADI@Z 1002a350 f i RTXLevelProperties.obj
 0001:00029390       ??$_Uninitialized_fill_n@V?$allocator@I@std@@@std@@YAPAIPAIIABIAAV?$allocator@I@0@@Z 1002a390 f i RTXLevelProperties.obj
 0001:000293e0       ??$_Uninitialized_move@PAV?$basic_json@Vmap@std@@Vvector@2@V?$basic_string@DU?$char_traits@D@std@@V?$allocator@D@2@@2@_N_J_KNVallocator@2@Uadl_serializer@json_abi_v3_12_0@nlohmann@@V?$vector@EV?$allocator@E@std@@@2@X@json_abi_v3_12_0@nlohmann@@V?$allocator@V?$basic_json@Vmap@std@@Vvector@2@V?$basic_string@DU?$char_traits@D@std@@V?$allocator@D@2@@2@_N_J_KNVallocator@2@Uadl_serializer@json_abi_v3_12_0@nlohmann@@V?$vector@EV?$allocator@E@std@@@2@X@json_abi_v3_12_0@nlohmann@@@std@@@std@@YAPAV?$basic_json@Vmap@std@@Vvector@2@V?$basic_string@DU?$char_traits@D@std@@V?$allocator@D@2@@2@_N_J_KNVallocator@2@Uadl_serializer@json_abi_v3_12_0@nlohmann@@V?$vector@EV?$allocator@E@std@@@2@X@json_abi_v3_12_0@nlohmann@@QAV123@0PAV123@AAV?$allocator@V?$basic_json@Vmap@std@@Vvector@2@V?$basic_string@DU?$char_traits@D@std@@V?$allocator@D@2@@2@_N_J_KNVallocator@2@Uadl_serializer@json_abi_v3_12_0@nlohmann@@V?$vector@EV?$allocator@E@std@@@2@X@json_abi_v3_12_0@nlohmann@@@0@@Z 1002a3e0 f i RTXLevelProperties.obj
 0001:00029490       ??$_Uninitialized_move@PAV?$basic_string@DU?$char_traits@D@std@@V?$allocator@D@2@@std@@V?$allocator@V?$basic_string@DU?$char_traits@D@std@@V?$allocator@D@2@@std@@@2@@std@@YAPAV?$basic_string@DU?$char_traits@D@std@@V?$allocator@D@2@@0@QAV10@0PAV10@AAV?$allocator@V?$basic_string@DU?$char_traits@D@std@@V?$allocator@D@2@@std@@@0@@Z 1002a490 f i RTXLevelProperties.obj
 0001:00029550       ??$_Uninitialized_move@PAV?$unique_ptr@VRTXAnchor@@U?$default_delete@VRTXAnchor@@@std@@@std@@V?$allocator@V?$unique_ptr@VRTXAnchor@@U?$default_delete@VRTXAnchor@@@std@@@std@@@2@@std@@YAPAV?$unique_ptr@VRTXAnchor@@U?$default_delete@VRTXAnchor@@@std@@@0@QAV10@0PAV10@AAV?$allocator@V?$unique_ptr@VRTXAnchor@@U?$default_delete@VRTXAnchor@@@std@@@std@@@0@@Z 1002a550 f i RTXLevelProperties.obj
 0001:000295e0       ??$at@AAY04$$CBD$0A@@?$basic_json@Vmap@std@@Vvector@2@V?$basic_string@DU?$char_traits@D@std@@V?$allocator@D@2@@2@_N_J_KNVallocator@2@Uadl_serializer@json_abi_v3_12_0@nlohmann@@V?$vector@EV?$allocator@E@std@@@2@X@json_abi_v3_12_0@nlohmann@@QAEAAV012@AAY04$$CBD@Z 1002a5e0 f i RTXLevelProperties.obj
 0001:00029770       ??$at@AAY05$$CBD$0A@@?$basic_json@Vmap@std@@Vvector@2@V?$basic_string@DU?$char_traits@D@std@@V?$allocator@D@2@@2@_N_J_KNVallocator@2@Uadl_serializer@json_abi_v3_12_0@nlohmann@@V?$vector@EV?$allocator@E@std@@@2@X@json_abi_v3_12_0@nlohmann@@QAEAAV012@AAY05$$CBD@Z 1002a770 f i RTXLevelProperties.obj
 0001:00029870       ??$at@AAY07$$CBD$0A@@?$basic_json@Vmap@std@@Vvector@2@V?$basic_string@DU?$char_traits@D@std@@V?$allocator@D@2@@2@_N_J_KNVallocator@2@Uadl_serializer@json_abi_v3_12_0@nlohmann@@V?$vector@EV?$allocator@E@std@@@2@X@json_abi_v3_12_0@nlohmann@@QAEAAV012@AAY07$$CBD@Z 1002a870 f i RTXLevelProperties.obj
 0001:00029a00       ??$at@AAY08$$CBD$0A@@?$basic_json@Vmap@std@@Vvector@2@V?$basic_string@DU?$char_traits@D@std@@V?$allocator@D@2@@2@_N_J_KNVallocator@2@Uadl_serializer@json_abi_v3_12_0@nlohmann@@V?$vector@EV?$allocator@E@std@@@2@X@json_abi_v3_12_0@nlohmann@@QAEAAV012@AAY08$$CBD@Z 1002aa00 f i RTXLevelProperties.obj
 0001:00029b00       ??$at@AAY09$$CBD$0A@@?$basic_json@Vmap@std@@Vvector@2@V?$basic_string@DU?$char_traits@D@std@@V?$allocator@D@2@@2@_N_J_KNVallocator@2@Uadl_serializer@json_abi_v3_12_0@nlohmann@@V?$vector@EV?$allocator@E@std@@@2@X@json_abi_v3_12_0@nlohmann@@QAEAAV012@AAY09$$CBD@Z 1002ab00 f i RTXLevelProperties.obj
 0001:00029c00       ??$at@AAY0O@$$CBD$0A@@?$basic_json@Vmap@std@@Vvector@2@V?$basic_string@DU?$char_traits@D@std@@V?$allocator@D@2@@2@_N_J_KNVallocator@2@Uadl_serializer@json_abi_v3_12_0@nlohmann@@V?$vector@EV?$allocator@E@std@@@2@X@json_abi_v3_12_0@nlohmann@@QAEAAV012@AAY0O@$$CBD@Z 1002ac00 f i RTXLevelProperties.obj
 0001:00029d00       ??$compute_boundaries@N@dtoa_impl@detail@json_abi_v3_12_0@nlohmann@@YA?AUboundaries@0123@N@Z 1002ad00 f i RTXLevelProperties.obj
 0001:00029e30       ??$concat@V?$basic_string@DU?$char_traits@D@std@@V?$allocator@D@2@@std@@AAY05$$CBDV12@AAY0M@$$CBD@detail@json_abi_v3_12_0@nlohmann@@YA?AV?$basic_string@DU?$char_traits@D@std@@V?$allocator@D@2@@std@@AAY05$$CBD$$QAV34@AAY0M@$$CBD@Z 1002ae30 f i RTXLevelProperties.obj
 0001:00029f20       ??$concat@V?$basic_string@DU?$char_traits@D@std@@V?$allocator@D@2@@std@@AAY0BB@$$CBDABV12@DV12@AAY02$$CBD@detail@json_abi_v3_12_0@nlohmann@@YA?AV?$basic_string@DU?$char_traits@D@std@@V?$allocator@D@2@@std@@AAY0BB@$$CBDABV34@$$QAD$$QAV34@AAY02$$CBD@Z 1002af20 f i RTXLevelProperties.obj
 0001:0002a140       ??$concat@V?$basic_string@DU?$char_traits@D@std@@V?$allocator@D@2@@std@@AAY0BG@$$CBDPBD@detail@json_abi_v3_12_0@nlohmann@@YA?AV?$basic_string@DU?$char_traits@D@std@@V?$allocator@D@2@@std@@AAY0BG@$$CBD$$QAPBD@Z 1002b140 f i RTXLevelProperties.obj
 0001:0002a230       ??$concat@V?$basic_string@DU?$char_traits@D@std@@V?$allocator@D@2@@std@@AAY0BH@$$CBDV12@@detail@json_abi_v3_12_0@nlohmann@@YA?AV?$basic_string@DU?$char_traits@D@std@@V?$allocator@D@2@@std@@AAY0BH@$$CBD$$QAV34@@Z 1002b230 f i RTXLevelProperties.obj
 0001:0002a300       ??$concat@V?$basic_string@DU?$char_traits@D@std@@V?$allocator@D@2@@std@@AAY0BI@$$CBDV12@@detail@json_abi_v3_12_0@nlohmann@@YA?AV?$basic_string@DU?$char_traits@D@std@@V?$allocator@D@2@@std@@AAY0BI@$$CBD$$QAV34@@Z 1002b300 f i RTXLevelProperties.obj
 0001:0002a3d0       ??$concat@V?$basic_string@DU?$char_traits@D@std@@V?$allocator@D@2@@std@@AAY0BJ@$$CBDPBD@detail@json_abi_v3_12_0@nlohmann@@YA?AV?$basic_string@DU?$char_traits@D@std@@V?$allocator@D@2@@std@@AAY0BJ@$$CBD$$QAPBD@Z 1002b3d0 f i RTXLevelProperties.obj
 0001:0002a4c0       ??$concat@V?$basic_string@DU?$char_traits@D@std@@V?$allocator@D@2@@std@@AAY0BK@$$CBDV12@D@detail@json_abi_v3_12_0@nlohmann@@YA?AV?$basic_string@DU?$char_traits@D@std@@V?$allocator@D@2@@std@@AAY0BK@$$CBD$$QAV34@$$QAD@Z 1002b4c0 f i RTXLevelProperties.obj
 0001:0002a6b0       ??$concat@V?$basic_string@DU?$char_traits@D@std@@V?$allocator@D@2@@std@@AAY0BN@$$CBDPBD@detail@json_abi_v3_12_0@nlohmann@@YA?AV?$basic_string@DU?$char_traits@D@std@@V?$allocator@D@2@@std@@AAY0BN@$$CBD$$QAPBD@Z 1002b6b0 f i RTXLevelProperties.obj
 0001:0002a7a0       ??$concat@V?$basic_string@DU?$char_traits@D@std@@V?$allocator@D@2@@std@@AAY0BN@$$CBDV12@AAY04$$CBDV12@@detail@json_abi_v3_12_0@nlohmann@@YA?AV?$basic_string@DU?$char_traits@D@std@@V?$allocator@D@2@@std@@AAY0BN@$$CBD$$QAV34@AAY04$$CBD1@Z 1002b7a0 f i RTXLevelProperties.obj
 0001:0002a8c0       ??$concat@V?$basic_string@DU?$char_traits@D@std@@V?$allocator@D@2@@std@@AAY0BO@$$CBDPBD@detail@json_abi_v3_12_0@nlohmann@@YA?AV?$basic_string@DU?$char_traits@D@std@@V?$allocator@D@2@@std@@AAY0BO@$$CBD$$QAPBD@Z 1002b8c0 f i RTXLevelProperties.obj
 0001:0002a9b0       ??$concat@V?$basic_string@DU?$char_traits@D@std@@V?$allocator@D@2@@std@@AAY0CH@$$CBDV12@@detail@json_abi_v3_12_0@nlohmann@@YA?AV?$basic_string@DU?$char_traits@D@std@@V?$allocator@D@2@@std@@AAY0CH@$$CBD$$QAV34@@Z 1002b9b0 f i RTXLevelProperties.obj
 0001:0002aa80       ??$concat@V?$basic_string@DU?$char_traits@D@std@@V?$allocator@D@2@@std@@AAY0DD@$$CBDPBD@detail@json_abi_v3_12_0@nlohmann@@YA?AV?$basic_string@DU?$char_traits@D@std@@V?$allocator@D@2@@std@@AAY0DD@$$CBD$$QAPBD@Z 1002ba80 f i RTXLevelProperties.obj
 0001:0002ab70       ??$concat@V?$basic_string@DU?$char_traits@D@std@@V?$allocator@D@2@@std@@AAY0N@$$CBDV12@AAY0BB@$$CBD@detail@json_abi_v3_12_0@nlohmann@@YA?AV?$basic_string@DU?$char_traits@D@std@@V?$allocator@D@2@@std@@AAY0N@$$CBD$$QAV34@AAY0BB@$$CBD@Z 1002bb70 f i RTXLevelProperties.obj
 0001:0002ac60       ??$concat@V?$basic_string@DU?$char_traits@D@std@@V?$allocator@D@2@@std@@AAY0P@$$CBDABV12@D@detail@json_abi_v3_12_0@nlohmann@@YA?AV?$basic_string@DU?$char_traits@D@std@@V?$allocator@D@2@@std@@AAY0P@$$CBDABV34@$$QAD@Z 1002bc60 f i RTXLevelProperties.obj
 0001:0002ae50       ??$concat@V?$basic_string@DU?$char_traits@D@std@@V?$allocator@D@2@@std@@PBDAAY0P@$$CBDV12@D@detail@json_abi_v3_12_0@nlohmann@@YA?AV?$basic_string@DU?$char_traits@D@std@@V?$allocator@D@2@@std@@$$QAPBDAAY0P@$$CBD$$QAV34@$$QAD@Z 1002be50 f i RTXLevelProperties.obj
 0001:0002b070       ??$concat@V?$basic_string@DU?$char_traits@D@std@@V?$allocator@D@2@@std@@V12@AAY0M@$$CBDV12@AAY02$$CBDV12@ABV12@@detail@json_abi_v3_12_0@nlohmann@@YA?AV?$basic_string@DU?$char_traits@D@std@@V?$allocator@D@2@@std@@$$QAV34@AAY0M@$$CBD0AAY02$$CBD0ABV34@@Z 1002c070 f i RTXLevelProperties.obj
 0001:0002b1d0       ??$concat@V?$basic_string@DU?$char_traits@D@std@@V?$allocator@D@2@@std@@V12@V12@ABV12@@detail@json_abi_v3_12_0@nlohmann@@YA?AV?$basic_string@DU?$char_traits@D@std@@V?$allocator@D@2@@std@@$$QAV34@0ABV34@@Z 1002c1d0 f i RTXLevelProperties.obj
 0001:0002b2a0       ??$create@$$T$0A@@other_error@detail@json_abi_v3_12_0@nlohmann@@SA?AV0123@HABV?$basic_string@DU?$char_traits@D@std@@V?$allocator@D@2@@std@@$$T@Z 1002c2a0 f i RTXLevelProperties.obj
 0001:0002b4c0       ??$create@$$T$0A@@out_of_range@detail@json_abi_v3_12_0@nlohmann@@SA?AV0123@HABV?$basic_string@DU?$char_traits@D@std@@V?$allocator@D@2@@std@@$$T@Z 1002c4c0 f i RTXLevelProperties.obj
 0001:0002b6e0       ??$create@$$T$0A@@parse_error@detail@json_abi_v3_12_0@nlohmann@@SA?AV0123@HABUposition_t@123@ABV?$basic_string@DU?$char_traits@D@std@@V?$allocator@D@2@@std@@$$T@Z 1002c6e0 f i RTXLevelProperties.obj
 0001:0002bb30       ??$create@$$T$0A@@type_error@detail@json_abi_v3_12_0@nlohmann@@SA?AV0123@HABV?$basic_string@DU?$char_traits@D@std@@V?$allocator@D@2@@std@@$$T@Z 1002cb30 f i RTXLevelProperties.obj
 0001:0002bd50       ??$create@PAV?$basic_json@Vmap@std@@Vvector@2@V?$basic_string@DU?$char_traits@D@std@@V?$allocator@D@2@@2@_N_J_KNVallocator@2@Uadl_serializer@json_abi_v3_12_0@nlohmann@@V?$vector@EV?$allocator@E@std@@@2@X@json_abi_v3_12_0@nlohmann@@$0A@@invalid_iterator@detail@json_abi_v3_12_0@nlohmann@@SA?AV0123@HABV?$basic_string@DU?$char_traits@D@std@@V?$allocator@D@2@@std@@PAV?$basic_json@Vmap@std@@Vvector@2@V?$basic_string@DU?$char_traits@D@std@@V?$allocator@D@2@@2@_N_J_KNVallocator@2@Uadl_serializer@json_abi_v3_12_0@nlohmann@@V?$vector@EV?$allocator@E@std@@@2@X@23@@Z 1002cd50 f i RTXLevelProperties.obj
 0001:0002bf80       ??$create@PAV?$basic_json@Vmap@std@@Vvector@2@V?$basic_string@DU?$char_traits@D@std@@V?$allocator@D@2@@2@_N_J_KNVallocator@2@Uadl_serializer@json_abi_v3_12_0@nlohmann@@V?$vector@EV?$allocator@E@std@@@2@X@json_abi_v3_12_0@nlohmann@@$0A@@out_of_range@detail@json_abi_v3_12_0@nlohmann@@SA?AV0123@HABV?$basic_string@DU?$char_traits@D@std@@V?$allocator@D@2@@std@@PAV?$basic_json@Vmap@std@@Vvector@2@V?$basic_string@DU?$char_traits@D@std@@V?$allocator@D@2@@2@_N_J_KNVallocator@2@Uadl_serializer@json_abi_v3_12_0@nlohmann@@V?$vector@EV?$allocator@E@std@@@2@X@23@@Z 1002cf80 f i RTXLevelProperties.obj
 0001:0002c1b0       ??$create@PAV?$basic_json@Vmap@std@@Vvector@2@V?$basic_string@DU?$char_traits@D@std@@V?$allocator@D@2@@2@_N_J_KNVallocator@2@Uadl_serializer@json_abi_v3_12_0@nlohmann@@V?$vector@EV?$allocator@E@std@@@2@X@json_abi_v3_12_0@nlohmann@@$0A@@type_error@detail@json_abi_v3_12_0@nlohmann@@SA?AV0123@HABV?$basic_string@DU?$char_traits@D@std@@V?$allocator@D@2@@std@@PAV?$basic_json@Vmap@std@@Vvector@2@V?$basic_string@DU?$char_traits@D@std@@V?$allocator@D@2@@2@_N_J_KNVallocator@2@Uadl_serializer@json_abi_v3_12_0@nlohmann@@V?$vector@EV?$allocator@E@std@@@2@X@23@@Z 1002d1b0 f i RTXLevelProperties.obj
 0001:0002c3e0       ??$create@PBV?$basic_json@Vmap@std@@Vvector@2@V?$basic_string@DU?$char_traits@D@std@@V?$allocator@D@2@@2@_N_J_KNVallocator@2@Uadl_serializer@json_abi_v3_12_0@nlohmann@@V?$vector@EV?$allocator@E@std@@@2@X@json_abi_v3_12_0@nlohmann@@$0A@@out_of_range@detail@json_abi_v3_12_0@nlohmann@@SA?AV0123@HABV?$basic_string@DU?$char_traits@D@std@@V?$allocator@D@2@@std@@PBV?$basic_json@Vmap@std@@Vvector@2@V?$basic_string@DU?$char_traits@D@std@@V?$allocator@D@2@@2@_N_J_KNVallocator@2@Uadl_serializer@json_abi_v3_12_0@nlohmann@@V?$vector@EV?$allocator@E@std@@@2@X@23@@Z 1002d3e0 f i RTXLevelProperties.obj
 0001:0002c610       ??$create@PBV?$basic_json@Vmap@std@@Vvector@2@V?$basic_string@DU?$char_traits@D@std@@V?$allocator@D@2@@2@_N_J_KNVallocator@2@Uadl_serializer@json_abi_v3_12_0@nlohmann@@V?$vector@EV?$allocator@E@std@@@2@X@json_abi_v3_12_0@nlohmann@@$0A@@type_error@detail@json_abi_v3_12_0@nlohmann@@SA?AV0123@HABV?$basic_string@DU?$char_traits@D@std@@V?$allocator@D@2@@std@@PBV?$basic_json@Vmap@std@@Vvector@2@V?$basic_string@DU?$char_traits@D@std@@V?$allocator@D@2@@2@_N_J_KNVallocator@2@Uadl_serializer@json_abi_v3_12_0@nlohmann@@V?$vector@EV?$allocator@E@std@@@2@X@23@@Z 1002d610 f i RTXLevelProperties.obj
 0001:0002c840       ??$create@V?$map@V?$basic_string@DU?$char_traits@D@std@@V?$allocator@D@2@@std@@V?$basic_json@Vmap@std@@Vvector@2@V?$basic_string@DU?$char_traits@D@std@@V?$allocator@D@2@@2@_N_J_KNVallocator@2@Uadl_serializer@json_abi_v3_12_0@nlohmann@@V?$vector@EV?$allocator@E@std@@@2@X@json_abi_v3_12_0@nlohmann@@U?$less@X@2@V?$allocator@U?$pair@$$CBV?$basic_string@DU?$char_traits@D@std@@V?$allocator@D@2@@std@@V?$basic_json@Vmap@std@@Vvector@2@V?$basic_string@DU?$char_traits@D@std@@V?$allocator@D@2@@2@_N_J_KNVallocator@2@Uadl_serializer@json_abi_v3_12_0@nlohmann@@V?$vector@EV?$allocator@E@std@@@2@X@json_abi_v3_12_0@nlohmann@@@std@@@2@@std@@$$V@?$basic_json@Vmap@std@@Vvector@2@V?$basic_string@DU?$char_traits@D@std@@V?$allocator@D@2@@2@_N_J_KNVallocator@2@Uadl_serializer@json_abi_v3_12_0@nlohmann@@V?$vector@EV?$allocator@E@std@@@2@X@json_abi_v3_12_0@nlohmann@@CAPAV?$map@V?$basic_string@DU?$char_traits@D@std@@V?$allocator@D@2@@std@@V?$basic_json@Vmap@std@@Vvector@2@V?$basic_string@DU?$char_traits@D@std@@V?$allocator@D@2@@2@_N_J_KNVallocator@2@Uadl_serializer@json_abi_v3_12_0@nlohmann@@V?$vector@EV?$allocator@E@std@@@2@X@json_abi_v3_12_0@nlohmann@@U?$less@X@2@V?$allocator@U?$pair@$$CBV?$basic_string@DU?$char_traits@D@std@@V?$allocator@D@2@@std@@V?$basic_json@Vmap@std@@Vvector@2@V?$basic_string@DU?$char_traits@D@std@@V?$allocator@D@2@@2@_N_J_KNVallocator@2@Uadl_serializer@json_abi_v3_12_0@nlohmann@@V?$vector@EV?$allocator@E@std@@@2@X@json_abi_v3_12_0@nlohmann@@@std@@@2@@std@@XZ 1002d840 f i RTXLevelProperties.obj
 0001:0002c8d0       ??$destroy@U?$pair@$$CBV?$basic_string@DU?$char_traits@D@std@@V?$allocator@D@2@@std@@V?$basic_json@Vmap@std@@Vvector@2@V?$basic_string@DU?$char_traits@D@std@@V?$allocator@D@2@@2@_N_J_KNVallocator@2@Uadl_serializer@json_abi_v3_12_0@nlohmann@@V?$vector@EV?$allocator@E@std@@@2@X@json_abi_v3_12_0@nlohmann@@@std@@@?$_Default_allocator_traits@V?$allocator@U?$_Tree_node@U?$pair@$$CBV?$basic_string@DU?$char_traits@D@std@@V?$allocator@D@2@@std@@V?$basic_json@Vmap@std@@Vvector@2@V?$basic_string@DU?$char_traits@D@std@@V?$allocator@D@2@@2@_N_J_KNVallocator@2@Uadl_serializer@json_abi_v3_12_0@nlohmann@@V?$vector@EV?$allocator@E@std@@@2@X@json_abi_v3_12_0@nlohmann@@@std@@PAX@std@@@std@@@std@@SAXAAV?$allocator@U?$_Tree_node@U?$pair@$$CBV?$basic_string@DU?$char_traits@D@std@@V?$allocator@D@2@@std@@V?$basic_json@Vmap@std@@Vvector@2@V?$basic_string@DU?$char_traits@D@std@@V?$allocator@D@2@@2@_N_J_KNVallocator@2@Uadl_serializer@json_abi_v3_12_0@nlohmann@@V?$vector@EV?$allocator@E@std@@@2@X@json_abi_v3_12_0@nlohmann@@@std@@PAX@std@@@1@QAU?$pair@$$CBV?$basic_string@DU?$char_traits@D@std@@V?$allocator@D@2@@std@@V?$basic_json@Vmap@std@@Vvector@2@V?$basic_string@DU?$char_traits@D@std@@V?$allocator@D@2@@2@_N_J_KNVallocator@2@Uadl_serializer@json_abi_v3_12_0@nlohmann@@V?$vector@EV?$allocator@E@std@@@2@X@json_abi_v3_12_0@nlohmann@@@1@@Z 1002d8d0 f i RTXLevelProperties.obj
 0001:0002c950       ??$destroy@V?$basic_string@DU?$char_traits@D@std@@V?$allocator@D@2@@std@@@?$_Default_allocator_traits@V?$allocator@V?$basic_string@DU?$char_traits@D@std@@V?$allocator@D@2@@std@@@std@@@std@@SAXAAV?$allocator@V?$basic_string@DU?$char_traits@D@std@@V?$allocator@D@2@@std@@@1@QAV?$basic_string@DU?$char_traits@D@std@@V?$allocator@D@2@@1@@Z 1002d950 f i RTXLevelProperties.obj
 0001:0002c980       ??$dump_integer@E$0A@@?$serializer@V?$basic_json@Vmap@std@@Vvector@2@V?$basic_string@DU?$char_traits@D@std@@V?$allocator@D@2@@2@_N_J_KNVallocator@2@Uadl_serializer@json_abi_v3_12_0@nlohmann@@V?$vector@EV?$allocator@E@std@@@2@X@json_abi_v3_12_0@nlohmann@@@detail@json_abi_v3_12_0@nlohmann@@AAEXE@Z 1002d980 f i RTXLevelProperties.obj
 0001:0002cae0       ??$dump_integer@_K$0A@@?$serializer@V?$basic_json@Vmap@std@@Vvector@2@V?$basic_string@DU?$char_traits@D@std@@V?$allocator@D@2@@2@_N_J_KNVallocator@2@Uadl_serializer@json_abi_v3_12_0@nlohmann@@V?$vector@EV?$allocator@E@std@@@2@X@json_abi_v3_12_0@nlohmann@@@detail@json_abi_v3_12_0@nlohmann@@AAEX_K@Z 1002dae0 f i RTXLevelProperties.obj
 0001:0002cc40       ??$emplace@V?$basic_string@GU?$char_traits@G@std@@V?$allocator@G@2@@std@@@?$_Hash@V?$_Uset_traits@V?$basic_string@GU?$char_traits@G@std@@V?$allocator@G@2@@std@@V?$_Uhash_compare@V?$basic_string@GU?$char_traits@G@std@@V?$allocator@G@2@@std@@U?$hash@V?$basic_string@GU?$char_traits@G@std@@V?$allocator@G@2@@std@@@2@U?$equal_to@V?$basic_string@GU?$char_traits@G@std@@V?$allocator@G@2@@std@@@2@@2@V?$allocator@V?$basic_string@GU?$char_traits@G@std@@V?$allocator@G@2@@std@@@2@$0A@@std@@@std@@QAE?AU?$pair@V?$_List_const_iterator@V?$_List_val@U?$_List_simple_types@V?$basic_string@GU?$char_traits@G@std@@V?$allocator@G@2@@std@@@std@@@std@@@std@@_N@1@$$QAV?$basic_string@GU?$char_traits@G@std@@V?$allocator@G@2@@1@@Z 1002dc40 f i RTXLevelProperties.obj
 0001:0002ce70       ??$emplace_back@$$T@?$vector@V?$basic_json@Vmap@std@@Vvector@2@V?$basic_string@DU?$char_traits@D@std@@V?$allocator@D@2@@2@_N_J_KNVallocator@2@Uadl_serializer@json_abi_v3_12_0@nlohmann@@V?$vector@EV?$allocator@E@std@@@2@X@json_abi_v3_12_0@nlohmann@@V?$allocator@V?$basic_json@Vmap@std@@Vvector@2@V?$basic_string@DU?$char_traits@D@std@@V?$allocator@D@2@@2@_N_J_KNVallocator@2@Uadl_serializer@json_abi_v3_12_0@nlohmann@@V?$vector@EV?$allocator@E@std@@@2@X@json_abi_v3_12_0@nlohmann@@@std@@@std@@QAEAAV?$basic_json@Vmap@std@@Vvector@2@V?$basic_string@DU?$char_traits@D@std@@V?$allocator@D@2@@2@_N_J_KNVallocator@2@Uadl_serializer@json_abi_v3_12_0@nlohmann@@V?$vector@EV?$allocator@E@std@@@2@X@json_abi_v3_12_0@nlohmann@@$$QA$$T@Z 1002de70 f i RTXLevelProperties.obj
 0001:0002cef0       ??$emplace_back@AAN@?$vector@V?$basic_json@Vmap@std@@Vvector@2@V?$basic_string@DU?$char_traits@D@std@@V?$allocator@D@2@@2@_N_J_KNVallocator@2@Uadl_serializer@json_abi_v3_12_0@nlohmann@@V?$vector@EV?$allocator@E@std@@@2@X@json_abi_v3_12_0@nlohmann@@V?$allocator@V?$basic_json@Vmap@std@@Vvector@2@V?$basic_string@DU?$char_traits@D@std@@V?$allocator@D@2@@2@_N_J_KNVallocator@2@Uadl_serializer@json_abi_v3_12_0@nlohmann@@V?$vector@EV?$allocator@E@std@@@2@X@json_abi_v3_12_0@nlohmann@@@std@@@std@@QAEAAV?$basic_json@Vmap@std@@Vvector@2@V?$basic_string@DU?$char_traits@D@std@@V?$allocator@D@2@@2@_N_J_KNVallocator@2@Uadl_serializer@json_abi_v3_12_0@nlohmann@@V?$vector@EV?$allocator@E@std@@@2@X@json_abi_v3_12_0@nlohmann@@AAN@Z 1002def0 f i RTXLevelProperties.obj
 0001:0002cfb0       ??$emplace_back@AA_J@?$vector@V?$basic_json@Vmap@std@@Vvector@2@V?$basic_string@DU?$char_traits@D@std@@V?$allocator@D@2@@2@_N_J_KNVallocator@2@Uadl_serializer@json_abi_v3_12_0@nlohmann@@V?$vector@EV?$allocator@E@std@@@2@X@json_abi_v3_12_0@nlohmann@@V?$allocator@V?$basic_json@Vmap@std@@Vvector@2@V?$basic_string@DU?$char_traits@D@std@@V?$allocator@D@2@@2@_N_J_KNVallocator@2@Uadl_serializer@json_abi_v3_12_0@nlohmann@@V?$vector@EV?$allocator@E@std@@@2@X@json_abi_v3_12_0@nlohmann@@@std@@@std@@QAEAAV?$basic_json@Vmap@std@@Vvector@2@V?$basic_string@DU?$char_traits@D@std@@V?$allocator@D@2@@2@_N_J_KNVallocator@2@Uadl_serializer@json_abi_v3_12_0@nlohmann@@V?$vector@EV?$allocator@E@std@@@2@X@json_abi_v3_12_0@nlohmann@@AA_J@Z 1002dfb0 f i RTXLevelProperties.obj
 0001:0002d070       ??$emplace_back@AA_K@?$vector@V?$basic_json@Vmap@std@@Vvector@2@V?$basic_string@DU?$char_traits@D@std@@V?$allocator@D@2@@2@_N_J_KNVallocator@2@Uadl_serializer@json_abi_v3_12_0@nlohmann@@V?$vector@EV?$allocator@E@std@@@2@X@json_abi_v3_12_0@nlohmann@@V?$allocator@V?$basic_json@Vmap@std@@Vvector@2@V?$basic_string@DU?$char_traits@D@std@@V?$allocator@D@2@@2@_N_J_KNVallocator@2@Uadl_serializer@json_abi_v3_12_0@nlohmann@@V?$vector@EV?$allocator@E@std@@@2@X@json_abi_v3_12_0@nlohmann@@@std@@@std@@QAEAAV?$basic_json@Vmap@std@@Vvector@2@V?$basic_string@DU?$char_traits@D@std@@V?$allocator@D@2@@2@_N_J_KNVallocator@2@Uadl_serializer@json_abi_v3_12_0@nlohmann@@V?$vector@EV?$allocator@E@std@@@2@X@json_abi_v3_12_0@nlohmann@@AA_K@Z 1002e070 f i RTXLevelProperties.obj
 0001:0002d130       ??$erase@V?$iter_impl@V?$basic_json@Vmap@std@@Vvector@2@V?$basic_string@DU?$char_traits@D@std@@V?$allocator@D@2@@2@_N_J_KNVallocator@2@Uadl_serializer@json_abi_v3_12_0@nlohmann@@V?$vector@EV?$allocator@E@std@@@2@X@json_abi_v3_12_0@nlohmann@@@detail@json_abi_v3_12_0@nlohmann@@$0A@@?$basic_json@Vmap@std@@Vvector@2@V?$basic_string@DU?$char_traits@D@std@@V?$allocator@D@2@@2@_N_J_KNVallocator@2@Uadl_serializer@json_abi_v3_12_0@nlohmann@@V?$vector@EV?$allocator@E@std@@@2@X@json_abi_v3_12_0@nlohmann@@QAE?AV?$iter_impl@V?$basic_json@Vmap@std@@Vvector@2@V?$basic_string@DU?$char_traits@D@std@@V?$allocator@D@2@@2@_N_J_KNVallocator@2@Uadl_serializer@json_abi_v3_12_0@nlohmann@@V?$vector@EV?$allocator@E@std@@@2@X@json_abi_v3_12_0@nlohmann@@@detail@12@V3412@@Z 1002e130 f i RTXLevelProperties.obj
 0001:0002d3d0       ??$fill@PAV?$_List_unchecked_iterator@V?$_List_val@U?$_List_simple_types@U?$pair@$$CBV?$basic_string@DU?$char_traits@D@std@@V?$allocator@D@2@@std@@V12@@std@@@std@@@std@@@std@@V12@@std@@YAXQAV?$_List_unchecked_iterator@V?$_List_val@U?$_List_simple_types@U?$pair@$$CBV?$basic_string@DU?$char_traits@D@std@@V?$allocator@D@2@@std@@V12@@std@@@std@@@std@@@0@0ABV10@@Z 1002e3d0 f i RTXLevelProperties.obj
 0001:0002d440       ??$fill_n@V?$_Vb_iterator@U?$_Wrap_alloc@V?$allocator@I@std@@@std@@@std@@I_N@std@@YA?AV?$_Vb_iterator@U?$_Wrap_alloc@V?$allocator@I@std@@@std@@@0@V10@IAB_N@Z 1002e440 f i RTXLevelProperties.obj
 0001:0002d570       ??$find@$$BY05DU?$less@X@std@@$0A@@?$_Tree@V?$_Tmap_traits@V?$basic_string@DU?$char_traits@D@std@@V?$allocator@D@2@@std@@V?$basic_json@Vmap@std@@Vvector@2@V?$basic_string@DU?$char_traits@D@std@@V?$allocator@D@2@@2@_N_J_KNVallocator@2@Uadl_serializer@json_abi_v3_12_0@nlohmann@@V?$vector@EV?$allocator@E@std@@@2@X@json_abi_v3_12_0@nlohmann@@U?$less@X@2@V?$allocator@U?$pair@$$CBV?$basic_string@DU?$char_traits@D@std@@V?$allocator@D@2@@std@@V?$basic_json@Vmap@std@@Vvector@2@V?$basic_string@DU?$char_traits@D@std@@V?$allocator@D@2@@2@_N_J_KNVallocator@2@Uadl_serializer@json_abi_v3_12_0@nlohmann@@V?$vector@EV?$allocator@E@std@@@2@X@json_abi_v3_12_0@nlohmann@@@std@@@2@$0A@@std@@@std@@QAE?AV?$_Tree_iterator@V?$_Tree_val@U?$_Tree_simple_types@U?$pair@$$CBV?$basic_string@DU?$char_traits@D@std@@V?$allocator@D@2@@std@@V?$basic_json@Vmap@std@@Vvector@2@V?$basic_string@DU?$char_traits@D@std@@V?$allocator@D@2@@2@_N_J_KNVallocator@2@Uadl_serializer@json_abi_v3_12_0@nlohmann@@V?$vector@EV?$allocator@E@std@@@2@X@json_abi_v3_12_0@nlohmann@@@std@@@std@@@std@@@1@AAY05$$CBD@Z 1002e570 f i RTXLevelProperties.obj
 0001:0002d650       ??$find@$$BY08DU?$less@X@std@@$0A@@?$_Tree@V?$_Tmap_traits@V?$basic_string@DU?$char_traits@D@std@@V?$allocator@D@2@@std@@V?$basic_json@Vmap@std@@Vvector@2@V?$basic_string@DU?$char_traits@D@std@@V?$allocator@D@2@@2@_N_J_KNVallocator@2@Uadl_serializer@json_abi_v3_12_0@nlohmann@@V?$vector@EV?$allocator@E@std@@@2@X@json_abi_v3_12_0@nlohmann@@U?$less@X@2@V?$allocator@U?$pair@$$CBV?$basic_string@DU?$char_traits@D@std@@V?$allocator@D@2@@std@@V?$basic_json@Vmap@std@@Vvector@2@V?$basic_string@DU?$char_traits@D@std@@V?$allocator@D@2@@2@_N_J_KNVallocator@2@Uadl_serializer@json_abi_v3_12_0@nlohmann@@V?$vector@EV?$allocator@E@std@@@2@X@json_abi_v3_12_0@nlohmann@@@std@@@2@$0A@@std@@@std@@QAE?AV?$_Tree_iterator@V?$_Tree_val@U?$_Tree_simple_types@U?$pair@$$CBV?$basic_string@DU?$char_traits@D@std@@V?$allocator@D@2@@std@@V?$basic_json@Vmap@std@@Vvector@2@V?$basic_string@DU?$char_traits@D@std@@V?$allocator@D@2@@2@_N_J_KNVallocator@2@Uadl_serializer@json_abi_v3_12_0@nlohmann@@V?$vector@EV?$allocator@E@std@@@2@X@json_abi_v3_12_0@nlohmann@@@std@@@std@@@std@@@1@AAY08$$CBD@Z 1002e650 f i RTXLevelProperties.obj
 0001:0002d730       ??$find@$$BY09DU?$less@X@std@@$0A@@?$_Tree@V?$_Tmap_traits@V?$basic_string@DU?$char_traits@D@std@@V?$allocator@D@2@@std@@V?$basic_json@Vmap@std@@Vvector@2@V?$basic_string@DU?$char_traits@D@std@@V?$allocator@D@2@@2@_N_J_KNVallocator@2@Uadl_serializer@json_abi_v3_12_0@nlohmann@@V?$vector@EV?$allocator@E@std@@@2@X@json_abi_v3_12_0@nlohmann@@U?$less@X@2@V?$allocator@U?$pair@$$CBV?$basic_string@DU?$char_traits@D@std@@V?$allocator@D@2@@std@@V?$basic_json@Vmap@std@@Vvector@2@V?$basic_string@DU?$char_traits@D@std@@V?$allocator@D@2@@2@_N_J_KNVallocator@2@Uadl_serializer@json_abi_v3_12_0@nlohmann@@V?$vector@EV?$allocator@E@std@@@2@X@json_abi_v3_12_0@nlohmann@@@std@@@2@$0A@@std@@@std@@QAE?AV?$_Tree_iterator@V?$_Tree_val@U?$_Tree_simple_types@U?$pair@$$CBV?$basic_string@DU?$char_traits@D@std@@V?$allocator@D@2@@std@@V?$basic_json@Vmap@std@@Vvector@2@V?$basic_string@DU?$char_traits@D@std@@V?$allocator@D@2@@2@_N_J_KNVallocator@2@Uadl_serializer@json_abi_v3_12_0@nlohmann@@V?$vector@EV?$allocator@E@std@@@2@X@json_abi_v3_12_0@nlohmann@@@std@@@std@@@std@@@1@AAY09$$CBD@Z 1002e730 f i RTXLevelProperties.obj
 0001:0002d810       ??$find@$$BY0O@DU?$less@X@std@@$0A@@?$_Tree@V?$_Tmap_traits@V?$basic_string@DU?$char_traits@D@std@@V?$allocator@D@2@@std@@V?$basic_json@Vmap@std@@Vvector@2@V?$basic_string@DU?$char_traits@D@std@@V?$allocator@D@2@@2@_N_J_KNVallocator@2@Uadl_serializer@json_abi_v3_12_0@nlohmann@@V?$vector@EV?$allocator@E@std@@@2@X@json_abi_v3_12_0@nlohmann@@U?$less@X@2@V?$allocator@U?$pair@$$CBV?$basic_string@DU?$char_traits@D@std@@V?$allocator@D@2@@std@@V?$basic_json@Vmap@std@@Vvector@2@V?$basic_string@DU?$char_traits@D@std@@V?$allocator@D@2@@2@_N_J_KNVallocator@2@Uadl_serializer@json_abi_v3_12_0@nlohmann@@V?$vector@EV?$allocator@E@std@@@2@X@json_abi_v3_12_0@nlohmann@@@std@@@2@$0A@@std@@@std@@QAE?AV?$_Tree_iterator@V?$_Tree_val@U?$_Tree_simple_types@U?$pair@$$CBV?$basic_string@DU?$char_traits@D@std@@V?$allocator@D@2@@std@@V?$basic_json@Vmap@std@@Vvector@2@V?$basic_string@DU?$char_traits@D@std@@V?$allocator@D@2@@2@_N_J_KNVallocator@2@Uadl_serializer@json_abi_v3_12_0@nlohmann@@V?$vector@EV?$allocator@E@std@@@2@X@json_abi_v3_12_0@nlohmann@@@std@@@std@@@std@@@1@AAY0O@$$CBD@Z 1002e810 f i RTXLevelProperties.obj
 0001:0002d8f0       ??$from_json@ABV?$basic_json@Vmap@std@@Vvector@2@V?$basic_string@DU?$char_traits@D@std@@V?$allocator@D@2@@2@_N_J_KNVallocator@2@Uadl_serializer@json_abi_v3_12_0@nlohmann@@V?$vector@EV?$allocator@E@std@@@2@X@json_abi_v3_12_0@nlohmann@@V?$basic_string@DU?$char_traits@D@std@@V?$allocator@D@2@@std@@@?$adl_serializer@V?$basic_string@DU?$char_traits@D@std@@V?$allocator@D@2@@std@@X@json_abi_v3_12_0@nlohmann@@SAXABV?$basic_json@Vmap@std@@Vvector@2@V?$basic_string@DU?$char_traits@D@std@@V?$allocator@D@2@@2@_N_J_KNVallocator@2@Uadl_serializer@json_abi_v3_12_0@nlohmann@@V?$vector@EV?$allocator@E@std@@@2@X@12@AAV?$basic_string@DU?$char_traits@D@std@@V?$allocator@D@2@@std@@@Z 1002e8f0 f i RTXLevelProperties.obj
 0001:0002d9a0       ??$get@$00V?$iter_impl@V?$basic_json@Vmap@std@@Vvector@2@V?$basic_string@DU?$char_traits@D@std@@V?$allocator@D@2@@2@_N_J_KNVallocator@2@Uadl_serializer@json_abi_v3_12_0@nlohmann@@V?$vector@EV?$allocator@E@std@@@2@X@json_abi_v3_12_0@nlohmann@@@detail@json_abi_v3_12_0@nlohmann@@$0A@@detail@json_abi_v3_12_0@nlohmann@@YAAAV?$basic_json@Vmap@std@@Vvector@2@V?$basic_string@DU?$char_traits@D@std@@V?$allocator@D@2@@2@_N_J_KNVallocator@2@Uadl_serializer@json_abi_v3_12_0@nlohmann@@V?$vector@EV?$allocator@E@std@@@2@X@12@ABV?$iteration_proxy_value@V?$iter_impl@V?$basic_json@Vmap@std@@Vvector@2@V?$basic_string@DU?$char_traits@D@std@@V?$allocator@D@2@@2@_N_J_KNVallocator@2@Uadl_serializer@json_abi_v3_12_0@nlohmann@@V?$vector@EV?$allocator@E@std@@@2@X@json_abi_v3_12_0@nlohmann@@@detail@json_abi_v3_12_0@nlohmann@@@012@@Z 1002e9a0 f i RTXLevelProperties.obj
 0001:0002d9b0       ??$get@$0A@V?$iter_impl@V?$basic_json@Vmap@std@@Vvector@2@V?$basic_string@DU?$char_traits@D@std@@V?$allocator@D@2@@2@_N_J_KNVallocator@2@Uadl_serializer@json_abi_v3_12_0@nlohmann@@V?$vector@EV?$allocator@E@std@@@2@X@json_abi_v3_12_0@nlohmann@@@detail@json_abi_v3_12_0@nlohmann@@$0A@@detail@json_abi_v3_12_0@nlohmann@@YAABV?$basic_string@DU?$char_traits@D@std@@V?$allocator@D@2@@std@@ABV?$iteration_proxy_value@V?$iter_impl@V?$basic_json@Vmap@std@@Vvector@2@V?$basic_string@DU?$char_traits@D@std@@V?$allocator@D@2@@2@_N_J_KNVallocator@2@Uadl_serializer@json_abi_v3_12_0@nlohmann@@V?$vector@EV?$allocator@E@std@@@2@X@json_abi_v3_12_0@nlohmann@@@detail@json_abi_v3_12_0@nlohmann@@@012@@Z 1002e9b0 f i RTXLevelProperties.obj
 0001:0002daa0       ??$get_to@M$0A@@?$basic_json@Vmap@std@@Vvector@2@V?$basic_string@DU?$char_traits@D@std@@V?$allocator@D@2@@2@_N_J_KNVallocator@2@Uadl_serializer@json_abi_v3_12_0@nlohmann@@V?$vector@EV?$allocator@E@std@@@2@X@json_abi_v3_12_0@nlohmann@@QBEAAMAAM@Z 1002eaa0 f i RTXLevelProperties.obj
 0001:0002dbd0       ??$get_to@_N$0A@@?$basic_json@Vmap@std@@Vvector@2@V?$basic_string@DU?$char_traits@D@std@@V?$allocator@D@2@@2@_N_J_KNVallocator@2@Uadl_serializer@json_abi_v3_12_0@nlohmann@@V?$vector@EV?$allocator@E@std@@@2@X@json_abi_v3_12_0@nlohmann@@QBEAA_NAA_N@Z 1002ebd0 f i RTXLevelProperties.obj
 0001:0002dc70       ??$grisu2@N@dtoa_impl@detail@json_abi_v3_12_0@nlohmann@@YAXPADAAH1N@Z 1002ec70 f i RTXLevelProperties.obj
 0001:0002ddf0       ??$handle_value@$$T@?$json_sax_dom_callback_parser@V?$basic_json@Vmap@std@@Vvector@2@V?$basic_string@DU?$char_traits@D@std@@V?$allocator@D@2@@2@_N_J_KNVallocator@2@Uadl_serializer@json_abi_v3_12_0@nlohmann@@V?$vector@EV?$allocator@E@std@@@2@X@json_abi_v3_12_0@nlohmann@@Vinput_stream_adapter@detail@23@@detail@json_abi_v3_12_0@nlohmann@@AAE?AU?$pair@_NPAV?$basic_json@Vmap@std@@Vvector@2@V?$basic_string@DU?$char_traits@D@std@@V?$allocator@D@2@@2@_N_J_KNVallocator@2@Uadl_serializer@json_abi_v3_12_0@nlohmann@@V?$vector@EV?$allocator@E@std@@@2@X@json_abi_v3_12_0@nlohmann@@@std@@$$QA$$T_N@Z 1002edf0 f i RTXLevelProperties.obj
 0001:0002e070       ??$handle_value@AAN@?$json_sax_dom_callback_parser@V?$basic_json@Vmap@std@@Vvector@2@V?$basic_string@DU?$char_traits@D@std@@V?$allocator@D@2@@2@_N_J_KNVallocator@2@Uadl_serializer@json_abi_v3_12_0@nlohmann@@V?$vector@EV?$allocator@E@std@@@2@X@json_abi_v3_12_0@nlohmann@@Vinput_stream_adapter@detail@23@@detail@json_abi_v3_12_0@nlohmann@@AAE?AU?$pair@_NPAV?$basic_json@Vmap@std@@Vvector@2@V?$basic_string@DU?$char_traits@D@std@@V?$allocator@D@2@@2@_N_J_KNVallocator@2@Uadl_serializer@json_abi_v3_12_0@nlohmann@@V?$vector@EV?$allocator@E@std@@@2@X@json_abi_v3_12_0@nlohmann@@@std@@AAN_N@Z 1002f070 f i RTXLevelProperties.obj
 0001:0002e330       ??$handle_value@AAV?$basic_string@DU?$char_traits@D@std@@V?$allocator@D@2@@std@@@?$json_sax_dom_callback_parser@V?$basic_json@Vmap@std@@Vvector@2@V?$basic_string@DU?$char_traits@D@std@@V?$allocator@D@2@@2@_N_J_KNVallocator@2@Uadl_serializer@json_abi_v3_12_0@nlohmann@@V?$vector@EV?$allocator@E@std@@@2@X@json_abi_v3_12_0@nlohmann@@Vinput_stream_adapter@detail@23@@detail@json_abi_v3_12_0@nlohmann@@AAE?AU?$pair@_NPAV?$basic_json@Vmap@std@@Vvector@2@V?$basic_string@DU?$char_traits@D@std@@V?$allocator@D@2@@2@_N_J_KNVallocator@2@Uadl_serializer@json_abi_v3_12_0@nlohmann@@V?$vector@EV?$allocator@E@std@@@2@X@json_abi_v3_12_0@nlohmann@@@std@@AAV?$basic_string@DU?$char_traits@D@std@@V?$allocator@D@2@@5@_N@Z 1002f330 f i RTXLevelProperties.obj
 0001:0002e5b0       ??$handle_value@AA_J@?$json_sax_dom_callback_parser@V?$basic_json@Vmap@std@@Vvector@2@V?$basic_string@DU?$char_traits@D@std@@V?$allocator@D@2@@2@_N_J_KNVallocator@2@Uadl_serializer@json_abi_v3_12_0@nlohmann@@V?$vector@EV?$allocator@E@std@@@2@X@json_abi_v3_12_0@nlohmann@@Vinput_stream_adapter@detail@23@@detail@json_abi_v3_12_0@nlohmann@@AAE?AU?$pair@_NPAV?$basic_json@Vmap@std@@Vvector@2@V?$basic_string@DU?$char_traits@D@std@@V?$allocator@D@2@@2@_N_J_KNVallocator@2@Uadl_serializer@json_abi_v3_12_0@nlohmann@@V?$vector@EV?$allocator@E@std@@@2@X@json_abi_v3_12_0@nlohmann@@@std@@AA_J_N@Z 1002f5b0 f i RTXLevelProperties.obj
 0001:0002e860       ??$handle_value@AA_K@?$json_sax_dom_callback_parser@V?$basic_json@Vmap@std@@Vvector@2@V?$basic_string@DU?$char_traits@D@std@@V?$allocator@D@2@@2@_N_J_KNVallocator@2@Uadl_serializer@json_abi_v3_12_0@nlohmann@@V?$vector@EV?$allocator@E@std@@@2@X@json_abi_v3_12_0@nlohmann@@Vinput_stream_adapter@detail@23@@detail@json_abi_v3_12_0@nlohmann@@AAE?AU?$pair@_NPAV?$basic_json@Vmap@std@@Vvector@2@V?$basic_string@DU?$char_traits@D@std@@V?$allocator@D@2@@2@_N_J_KNVallocator@2@Uadl_serializer@json_abi_v3_12_0@nlohmann@@V?$vector@EV?$allocator@E@std@@@2@X@json_abi_v3_12_0@nlohmann@@@std@@AA_K_N@Z 1002f860 f i RTXLevelProperties.obj
 0001:0002eb10       ??$handle_value@AA_N@?$json_sax_dom_callback_parser@V?$basic_json@Vmap@std@@Vvector@2@V?$basic_string@DU?$char_traits@D@std@@V?$allocator@D@2@@2@_N_J_KNVallocator@2@Uadl_serializer@json_abi_v3_12_0@nlohmann@@V?$vector@EV?$allocator@E@std@@@2@X@json_abi_v3_12_0@nlohmann@@Vinput_stream_adapter@detail@23@@detail@json_abi_v3_12_0@nlohmann@@AAE?AU?$pair@_NPAV?$basic_json@Vmap@std@@Vvector@2@V?$basic_string@DU?$char_traits@D@std@@V?$allocator@D@2@@2@_N_J_KNVallocator@2@Uadl_serializer@json_abi_v3_12_0@nlohmann@@V?$vector@EV?$allocator@E@std@@@2@X@json_abi_v3_12_0@nlohmann@@@std@@AA_N_N@Z 1002fb10 f i RTXLevelProperties.obj
 0001:0002edc0       ??$handle_value@W4value_t@detail@json_abi_v3_12_0@nlohmann@@@?$json_sax_dom_callback_parser@V?$basic_json@Vmap@std@@Vvector@2@V?$basic_string@DU?$char_traits@D@std@@V?$allocator@D@2@@2@_N_J_KNVallocator@2@Uadl_serializer@json_abi_v3_12_0@nlohmann@@V?$vector@EV?$allocator@E@std@@@2@X@json_abi_v3_12_0@nlohmann@@Vinput_stream_adapter@detail@23@@detail@json_abi_v3_12_0@nlohmann@@AAE?AU?$pair@_NPAV?$basic_json@Vmap@std@@Vvector@2@V?$basic_string@DU?$char_traits@D@std@@V?$allocator@D@2@@2@_N_J_KNVallocator@2@Uadl_serializer@json_abi_v3_12_0@nlohmann@@V?$vector@EV?$allocator@E@std@@@2@X@json_abi_v3_12_0@nlohmann@@@std@@$$QAW4value_t@123@_N@Z 1002fdc0 f i RTXLevelProperties.obj
 0001:0002f040       ??$handle_value@W4value_t@detail@json_abi_v3_12_0@nlohmann@@@?$json_sax_dom_parser@V?$basic_json@Vmap@std@@Vvector@2@V?$basic_string@DU?$char_traits@D@std@@V?$allocator@D@2@@2@_N_J_KNVallocator@2@Uadl_serializer@json_abi_v3_12_0@nlohmann@@V?$vector@EV?$allocator@E@std@@@2@X@json_abi_v3_12_0@nlohmann@@Vinput_stream_adapter@detail@23@@detail@json_abi_v3_12_0@nlohmann@@AAEPAV?$basic_json@Vmap@std@@Vvector@2@V?$basic_string@DU?$char_traits@D@std@@V?$allocator@D@2@@2@_N_J_KNVallocator@2@Uadl_serializer@json_abi_v3_12_0@nlohmann@@V?$vector@EV?$allocator@E@std@@@2@X@23@$$QAW4value_t@123@@Z 10030040 f i RTXLevelProperties.obj
 0001:0002f1a0       ??$int_to_string@V?$basic_string@DU?$char_traits@D@std@@V?$allocator@D@2@@std@@@detail@json_abi_v3_12_0@nlohmann@@YAXAAV?$basic_string@DU?$char_traits@D@std@@V?$allocator@D@2@@std@@I@Z 100301a0 f i RTXLevelProperties.obj
 0001:0002f2c0       ??$parse@AAV?$basic_ifstream@DU?$char_traits@D@std@@@std@@@?$basic_json@Vmap@std@@Vvector@2@V?$basic_string@DU?$char_traits@D@std@@V?$allocator@D@2@@2@_N_J_KNVallocator@2@Uadl_serializer@json_abi_v3_12_0@nlohmann@@V?$vector@EV?$allocator@E@std@@@2@X@json_abi_v3_12_0@nlohmann@@SA?AV012@AAV?$basic_ifstream@DU?$char_traits@D@std@@@std@@V?$function@$$A6A_NHW4parse_event_t@detail@json_abi_v3_12_0@nlohmann@@AAV?$basic_json@Vmap@std@@Vvector@2@V?$basic_string@DU?$char_traits@D@std@@V?$allocator@D@2@@2@_N_J_KNVallocator@2@Uadl_serializer@json_abi_v3_12_0@nlohmann@@V?$vector@EV?$allocator@E@std@@@2@X@34@@Z@4@_N2@Z 100302c0 f i RTXLevelProperties.obj
 0001:0002f530       ??$parse_error@V0detail@json_abi_v3_12_0@nlohmann@@@?$json_sax_dom_callback_parser@V?$basic_json@Vmap@std@@Vvector@2@V?$basic_string@DU?$char_traits@D@std@@V?$allocator@D@2@@2@_N_J_KNVallocator@2@Uadl_serializer@json_abi_v3_12_0@nlohmann@@V?$vector@EV?$allocator@E@std@@@2@X@json_abi_v3_12_0@nlohmann@@Vinput_stream_adapter@detail@23@@detail@json_abi_v3_12_0@nlohmann@@QAE_NIABV?$basic_string@DU?$char_traits@D@std@@V?$allocator@D@2@@std@@ABVparse_error@123@@Z 10030530 f i RTXLevelProperties.obj
 0001:0002f570       ??$parse_error@V0detail@json_abi_v3_12_0@nlohmann@@@?$json_sax_dom_parser@V?$basic_json@Vmap@std@@Vvector@2@V?$basic_string@DU?$char_traits@D@std@@V?$allocator@D@2@@2@_N_J_KNVallocator@2@Uadl_serializer@json_abi_v3_12_0@nlohmann@@V?$vector@EV?$allocator@E@std@@@2@X@json_abi_v3_12_0@nlohmann@@Vinput_stream_adapter@detail@23@@detail@json_abi_v3_12_0@nlohmann@@QAE_NIABV?$basic_string@DU?$char_traits@D@std@@V?$allocator@D@2@@std@@ABVparse_error@123@@Z 10030570 f i RTXLevelProperties.obj
 0001:0002f5b0       ??$parse_error@Vout_of_range@detail@json_abi_v3_12_0@nlohmann@@@?$json_sax_dom_callback_parser@V?$basic_json@Vmap@std@@Vvector@2@V?$basic_string@DU?$char_traits@D@std@@V?$allocator@D@2@@2@_N_J_KNVallocator@2@Uadl_serializer@json_abi_v3_12_0@nlohmann@@V?$vector@EV?$allocator@E@std@@@2@X@json_abi_v3_12_0@nlohmann@@Vinput_stream_adapter@detail@23@@detail@json_abi_v3_12_0@nlohmann@@QAE_NIABV?$basic_string@DU?$char_traits@D@std@@V?$allocator@D@2@@std@@ABVout_of_range@123@@Z 100305b0 f i RTXLevelProperties.obj
 0001:0002f5f0       ??$parse_error@Vout_of_range@detail@json_abi_v3_12_0@nlohmann@@@?$json_sax_dom_parser@V?$basic_json@Vmap@std@@Vvector@2@V?$basic_string@DU?$char_traits@D@std@@V?$allocator@D@2@@2@_N_J_KNVallocator@2@Uadl_serializer@json_abi_v3_12_0@nlohmann@@V?$vector@EV?$allocator@E@std@@@2@X@json_abi_v3_12_0@nlohmann@@Vinput_stream_adapter@detail@23@@detail@json_abi_v3_12_0@nlohmann@@QAE_NIABV?$basic_string@DU?$char_traits@D@std@@V?$allocator@D@2@@std@@ABVout_of_range@123@@Z 100305f0 f i RTXLevelProperties.obj
 0001:0002f630       ??$reinterpret_bits@_KN@dtoa_impl@detail@json_abi_v3_12_0@nlohmann@@YA_KN@Z 10030630 f i RTXLevelProperties.obj
 0001:0002f640       ??$sax_parse_internal@V?$json_sax_dom_callback_parser@V?$basic_json@Vmap@std@@Vvector@2@V?$basic_string@DU?$char_traits@D@std@@V?$allocator@D@2@@2@_N_J_KNVallocator@2@Uadl_serializer@json_abi_v3_12_0@nlohmann@@V?$vector@EV?$allocator@E@std@@@2@X@json_abi_v3_12_0@nlohmann@@Vinput_stream_adapter@detail@23@@detail@json_abi_v3_12_0@nlohmann@@@?$parser@V?$basic_json@Vmap@std@@Vvector@2@V?$basic_string@DU?$char_traits@D@std@@V?$allocator@D@2@@2@_N_J_KNVallocator@2@Uadl_serializer@json_abi_v3_12_0@nlohmann@@V?$vector@EV?$allocator@E@std@@@2@X@json_abi_v3_12_0@nlohmann@@Vinput_stream_adapter@detail@23@@detail@json_abi_v3_12_0@nlohmann@@AAE_NPAV?$json_sax_dom_callback_parser@V?$basic_json@Vmap@std@@Vvector@2@V?$basic_string@DU?$char_traits@D@std@@V?$allocator@D@2@@2@_N_J_KNVallocator@2@Uadl_serializer@json_abi_v3_12_0@nlohmann@@V?$vector@EV?$allocator@E@std@@@2@X@json_abi_v3_12_0@nlohmann@@Vinput_stream_adapter@detail@23@@123@@Z 10030640 f i RTXLevelProperties.obj
 0001:00030320       ??$sax_parse_internal@V?$json_sax_dom_parser@V?$basic_json@Vmap@std@@Vvector@2@V?$basic_string@DU?$char_traits@D@std@@V?$allocator@D@2@@2@_N_J_KNVallocator@2@Uadl_serializer@json_abi_v3_12_0@nlohmann@@V?$vector@EV?$allocator@E@std@@@2@X@json_abi_v3_12_0@nlohmann@@Vinput_stream_adapter@detail@23@@detail@json_abi_v3_12_0@nlohmann@@@?$parser@V?$basic_json@Vmap@std@@Vvector@2@V?$basic_string@DU?$char_traits@D@std@@V?$allocator@D@2@@2@_N_J_KNVallocator@2@Uadl_serializer@json_abi_v3_12_0@nlohmann@@V?$vector@EV?$allocator@E@std@@@2@X@json_abi_v3_12_0@nlohmann@@Vinput_stream_adapter@detail@23@@detail@json_abi_v3_12_0@nlohmann@@AAE_NPAV?$json_sax_dom_parser@V?$basic_json@Vmap@std@@Vvector@2@V?$basic_string@DU?$char_traits@D@std@@V?$allocator@D@2@@2@_N_J_KNVallocator@2@Uadl_serializer@json_abi_v3_12_0@nlohmann@@V?$vector@EV?$allocator@E@std@@@2@X@json_abi_v3_12_0@nlohmann@@Vinput_stream_adapter@detail@23@@123@@Z 10031320 f i RTXLevelProperties.obj
 0001:00030fa0       ??$to_chars@N@detail@json_abi_v3_12_0@nlohmann@@YAPADPADPBDN@Z 10031fa0 f i RTXLevelProperties.obj
 0001:00031030       ??$use_facet@V?$codecvt@DDU_Mbstatet@@@std@@@std@@YAABV?$codecvt@DDU_Mbstatet@@@0@ABVlocale@0@@Z 10032030 f i RTXLevelProperties.obj
 0001:00031200       ??0?$basic_ifstream@DU?$char_traits@D@std@@@std@@QAE@PBDHH@Z 10032200 f i RTXLevelProperties.obj
 0001:000314c0       ??0?$basic_json@Vmap@std@@Vvector@2@V?$basic_string@DU?$char_traits@D@std@@V?$allocator@D@2@@2@_N_J_KNVallocator@2@Uadl_serializer@json_abi_v3_12_0@nlohmann@@V?$vector@EV?$allocator@E@std@@@2@X@json_abi_v3_12_0@nlohmann@@QAE@$$QAV012@@Z 100324c0 f i RTXLevelProperties.obj
 0001:00031530       ??0?$basic_json@Vmap@std@@Vvector@2@V?$basic_string@DU?$char_traits@D@std@@V?$allocator@D@2@@2@_N_J_KNVallocator@2@Uadl_serializer@json_abi_v3_12_0@nlohmann@@V?$vector@EV?$allocator@E@std@@@2@X@json_abi_v3_12_0@nlohmann@@QAE@ABV012@@Z 10032530 f i RTXLevelProperties.obj
 0001:000318e0       ??0?$basic_json@Vmap@std@@Vvector@2@V?$basic_string@DU?$char_traits@D@std@@V?$allocator@D@2@@2@_N_J_KNVallocator@2@Uadl_serializer@json_abi_v3_12_0@nlohmann@@V?$vector@EV?$allocator@E@std@@@2@X@json_abi_v3_12_0@nlohmann@@QAE@W4value_t@detail@12@@Z 100328e0 f i RTXLevelProperties.obj
 0001:00031ae0       ??0?$basic_string@DU?$char_traits@D@std@@V?$allocator@D@2@@std@@QAE@$$QAV01@@Z 10032ae0 f i RTXLevelProperties.obj
 0001:00031b30       ??0?$basic_string@DU?$char_traits@D@std@@V?$allocator@D@2@@std@@QAE@QBD@Z 10032b30 f i RTXLevelProperties.obj
 0001:00031b70       ??0?$basic_string@GU?$char_traits@G@std@@V?$allocator@G@2@@std@@QAE@$$QAV01@@Z 10032b70 f i RTXLevelProperties.obj
 0001:00031bc0       ??0?$basic_string@GU?$char_traits@G@std@@V?$allocator@G@2@@std@@QAE@IG@Z 10032bc0 f i RTXLevelProperties.obj
 0001:00031cc0       ??0?$json_sax_dom_callback_parser@V?$basic_json@Vmap@std@@Vvector@2@V?$basic_string@DU?$char_traits@D@std@@V?$allocator@D@2@@2@_N_J_KNVallocator@2@Uadl_serializer@json_abi_v3_12_0@nlohmann@@V?$vector@EV?$allocator@E@std@@@2@X@json_abi_v3_12_0@nlohmann@@Vinput_stream_adapter@detail@23@@detail@json_abi_v3_12_0@nlohmann@@QAE@AAV?$basic_json@Vmap@std@@Vvector@2@V?$basic_string@DU?$char_traits@D@std@@V?$allocator@D@2@@2@_N_J_KNVallocator@2@Uadl_serializer@json_abi_v3_12_0@nlohmann@@V?$vector@EV?$allocator@E@std@@@2@X@23@V?$function@$$A6A_NHW4parse_event_t@detail@json_abi_v3_12_0@nlohmann@@AAV?$basic_json@Vmap@std@@Vvector@2@V?$basic_string@DU?$char_traits@D@std@@V?$allocator@D@2@@2@_N_J_KNVallocator@2@Uadl_serializer@json_abi_v3_12_0@nlohmann@@V?$vector@EV?$allocator@E@std@@@2@X@34@@Z@std@@_NPAV?$lexer@V?$basic_json@Vmap@std@@Vvector@2@V?$basic_string@DU?$char_traits@D@std@@V?$allocator@D@2@@2@_N_J_KNVallocator@2@Uadl_serializer@json_abi_v3_12_0@nlohmann@@V?$vector@EV?$allocator@E@std@@@2@X@json_abi_v3_12_0@nlohmann@@Vinput_stream_adapter@detail@23@@123@@Z 10032cc0 f i RTXLevelProperties.obj
 0001:00032040       ??0?$parser@V?$basic_json@Vmap@std@@Vvector@2@V?$basic_string@DU?$char_traits@D@std@@V?$allocator@D@2@@2@_N_J_KNVallocator@2@Uadl_serializer@json_abi_v3_12_0@nlohmann@@V?$vector@EV?$allocator@E@std@@@2@X@json_abi_v3_12_0@nlohmann@@Vinput_stream_adapter@detail@23@@detail@json_abi_v3_12_0@nlohmann@@QAE@$$QAVinput_stream_adapter@123@V?$function@$$A6A_NHW4parse_event_t@detail@json_abi_v3_12_0@nlohmann@@AAV?$basic_json@Vmap@std@@Vvector@2@V?$basic_string@DU?$char_traits@D@std@@V?$allocator@D@2@@2@_N_J_KNVallocator@2@Uadl_serializer@json_abi_v3_12_0@nlohmann@@V?$vector@EV?$allocator@E@std@@@2@X@34@@Z@std@@_N2@Z 10033040 f i RTXLevelProperties.obj
 0001:000321f0       ??0RTXAnchor@@QAE@V?$basic_string@DU?$char_traits@D@std@@V?$allocator@D@2@@std@@VFVector@@111_N@Z 100331f0 f   RTXLevelProperties.obj
 0001:00032390       ??0RTXAnchorLinear@@QAE@V?$basic_string@DU?$char_traits@D@std@@V?$allocator@D@2@@std@@VFVector@@111_N1M@Z 10033390 f i RTXLevelProperties.obj
 0001:00032560       ??0exception@detail@json_abi_v3_12_0@nlohmann@@IAE@HPBD@Z 10033560 f i RTXLevelProperties.obj
 0001:00032600       ??0exception@detail@json_abi_v3_12_0@nlohmann@@QAE@ABV0123@@Z 10033600 f i RTXLevelProperties.obj
 0001:000326b0       ??0invalid_iterator@detail@json_abi_v3_12_0@nlohmann@@QAE@ABV0123@@Z 100336b0 f i RTXLevelProperties.obj
 0001:00032710       ??0json_value@?$basic_json@Vmap@std@@Vvector@2@V?$basic_string@DU?$char_traits@D@std@@V?$allocator@D@2@@2@_N_J_KNVallocator@2@Uadl_serializer@json_abi_v3_12_0@nlohmann@@V?$vector@EV?$allocator@E@std@@@2@X@json_abi_v3_12_0@nlohmann@@QAE@ABV?$basic_string@DU?$char_traits@D@std@@V?$allocator@D@2@@std@@@Z 10033710 f i RTXLevelProperties.obj
 0001:00032790       ??0other_error@detail@json_abi_v3_12_0@nlohmann@@QAE@ABV0123@@Z 10033790 f i RTXLevelProperties.obj
 0001:000327f0       ??0out_of_range@detail@json_abi_v3_12_0@nlohmann@@QAE@ABV0123@@Z 100337f0 f i RTXLevelProperties.obj
 0001:00032850       ??0parse_error@detail@json_abi_v3_12_0@nlohmann@@QAE@ABV0123@@Z 10033850 f i RTXLevelProperties.obj
 0001:000328c0       ??0runtime_error@std@@QAE@PBD@Z 100338c0 f i RTXLevelProperties.obj
 0001:00032940       ??0type_error@detail@json_abi_v3_12_0@nlohmann@@QAE@ABV0123@@Z 10033940 f i RTXLevelProperties.obj
 0001:000329a0       ??1?$_Alloc_construct_ptr@V?$allocator@U?$_List_node@U?$pair@$$CBV?$basic_string@DU?$char_traits@D@std@@V?$allocator@D@2@@std@@V12@@std@@PAX@std@@@std@@@std@@QAE@XZ 100339a0 f i RTXLevelProperties.obj
 0001:000329c0       ??1?$_Alloc_construct_ptr@V?$allocator@U?$_List_node@V?$basic_string@GU?$char_traits@G@std@@V?$allocator@G@2@@std@@PAX@std@@@std@@@std@@QAE@XZ 100339c0 f i RTXLevelProperties.obj
 0001:00032a10       ??1?$_Alloc_construct_ptr@V?$allocator@U?$_Tree_node@U?$pair@$$CBV?$basic_string@DU?$char_traits@D@std@@V?$allocator@D@2@@std@@V?$basic_json@Vmap@std@@Vvector@2@V?$basic_string@DU?$char_traits@D@std@@V?$allocator@D@2@@2@_N_J_KNVallocator@2@Uadl_serializer@json_abi_v3_12_0@nlohmann@@V?$vector@EV?$allocator@E@std@@@2@X@json_abi_v3_12_0@nlohmann@@@std@@PAX@std@@@std@@@std@@QAE@XZ 10033a10 f i RTXLevelProperties.obj
 0001:00032a60       ??1?$_Erase_tree_and_orphan_guard@V?$allocator@U?$_Tree_node@U?$pair@$$CBV?$basic_string@DU?$char_traits@D@std@@V?$allocator@D@2@@std@@V?$basic_json@Vmap@std@@Vvector@2@V?$basic_string@DU?$char_traits@D@std@@V?$allocator@D@2@@2@_N_J_KNVallocator@2@Uadl_serializer@json_abi_v3_12_0@nlohmann@@V?$vector@EV?$allocator@E@std@@@2@X@json_abi_v3_12_0@nlohmann@@@std@@PAX@std@@@std@@@?$_Tree_val@U?$_Tree_simple_types@U?$pair@$$CBV?$basic_string@DU?$char_traits@D@std@@V?$allocator@D@2@@std@@V?$basic_json@Vmap@std@@Vvector@2@V?$basic_string@DU?$char_traits@D@std@@V?$allocator@D@2@@2@_N_J_KNVallocator@2@Uadl_serializer@json_abi_v3_12_0@nlohmann@@V?$vector@EV?$allocator@E@std@@@2@X@json_abi_v3_12_0@nlohmann@@@std@@@std@@@std@@QAE@XZ 10033a60 f i RTXLevelProperties.obj
 0001:00032a80       ??1?$_Func_class@_NHW4parse_event_t@detail@json_abi_v3_12_0@nlohmann@@AAV?$basic_json@Vmap@std@@Vvector@2@V?$basic_string@DU?$char_traits@D@std@@V?$allocator@D@2@@2@_N_J_KNVallocator@2@Uadl_serializer@json_abi_v3_12_0@nlohmann@@V?$vector@EV?$allocator@E@std@@@2@X@34@@std@@QAE@XZ 10033a80 f i RTXLevelProperties.obj
 0001:00032ab0       ??1?$_List_node_emplace_op2@V?$allocator@U?$_List_node@U?$pair@$$CBV?$basic_string@DU?$char_traits@D@std@@V?$allocator@D@2@@std@@V12@@std@@PAX@std@@@std@@@std@@QAE@XZ 10033ab0 f i RTXLevelProperties.obj
 0001:00032b20       ??1?$_List_node_emplace_op2@V?$allocator@U?$_List_node@V?$basic_string@GU?$char_traits@G@std@@V?$allocator@G@2@@std@@PAX@std@@@std@@@std@@QAE@XZ 10033b20 f i RTXLevelProperties.obj
 0001:00032bb0       ??1?$_Ref_count_obj2@V?$output_string_adapter@DV?$basic_string@DU?$char_traits@D@std@@V?$allocator@D@2@@std@@@detail@json_abi_v3_12_0@nlohmann@@@std@@UAE@XZ 10033bb0 f i RTXLevelProperties.obj
 0001:00032bc0       ??1?$_Tidy_guard@V?$vector@EV?$allocator@E@std@@@std@@@std@@QAE@XZ 10033bc0 f i RTXLevelProperties.obj
 0001:00032bd0       ??1?$_Tidy_guard@V?$vector@V?$basic_json@Vmap@std@@Vvector@2@V?$basic_string@DU?$char_traits@D@std@@V?$allocator@D@2@@2@_N_J_KNVallocator@2@Uadl_serializer@json_abi_v3_12_0@nlohmann@@V?$vector@EV?$allocator@E@std@@@2@X@json_abi_v3_12_0@nlohmann@@V?$allocator@V?$basic_json@Vmap@std@@Vvector@2@V?$basic_string@DU?$char_traits@D@std@@V?$allocator@D@2@@2@_N_J_KNVallocator@2@Uadl_serializer@json_abi_v3_12_0@nlohmann@@V?$vector@EV?$allocator@E@std@@@2@X@json_abi_v3_12_0@nlohmann@@@std@@@std@@@std@@QAE@XZ 10033bd0 f i RTXLevelProperties.obj
 0001:00032be0       ??1?$_Tree@V?$_Tmap_traits@V?$basic_string@DU?$char_traits@D@std@@V?$allocator@D@2@@std@@V?$basic_json@Vmap@std@@Vvector@2@V?$basic_string@DU?$char_traits@D@std@@V?$allocator@D@2@@2@_N_J_KNVallocator@2@Uadl_serializer@json_abi_v3_12_0@nlohmann@@V?$vector@EV?$allocator@E@std@@@2@X@json_abi_v3_12_0@nlohmann@@U?$less@X@2@V?$allocator@U?$pair@$$CBV?$basic_string@DU?$char_traits@D@std@@V?$allocator@D@2@@std@@V?$basic_json@Vmap@std@@Vvector@2@V?$basic_string@DU?$char_traits@D@std@@V?$allocator@D@2@@2@_N_J_KNVallocator@2@Uadl_serializer@json_abi_v3_12_0@nlohmann@@V?$vector@EV?$allocator@E@std@@@2@X@json_abi_v3_12_0@nlohmann@@@std@@@2@$0A@@std@@@std@@QAE@XZ 10033be0 f i RTXLevelProperties.obj
 0001:00032c40       ??1?$_Tree_head_scoped_ptr@V?$allocator@U?$_Tree_node@U?$pair@$$CBV?$basic_string@DU?$char_traits@D@std@@V?$allocator@D@2@@std@@V?$basic_json@Vmap@std@@Vvector@2@V?$basic_string@DU?$char_traits@D@std@@V?$allocator@D@2@@2@_N_J_KNVallocator@2@Uadl_serializer@json_abi_v3_12_0@nlohmann@@V?$vector@EV?$allocator@E@std@@@2@X@json_abi_v3_12_0@nlohmann@@@std@@PAX@std@@@std@@V?$_Tree_val@U?$_Tree_simple_types@U?$pair@$$CBV?$basic_string@DU?$char_traits@D@std@@V?$allocator@D@2@@std@@V?$basic_json@Vmap@std@@Vvector@2@V?$basic_string@DU?$char_traits@D@std@@V?$allocator@D@2@@2@_N_J_KNVallocator@2@Uadl_serializer@json_abi_v3_12_0@nlohmann@@V?$vector@EV?$allocator@E@std@@@2@X@json_abi_v3_12_0@nlohmann@@@std@@@std@@@2@@std@@QAE@XZ 10033c40 f i RTXLevelProperties.obj
 0001:00032ca0       ??1?$_Tree_temp_node@V?$allocator@U?$_Tree_node@U?$pair@$$CBV?$basic_string@DU?$char_traits@D@std@@V?$allocator@D@2@@std@@V?$basic_json@Vmap@std@@Vvector@2@V?$basic_string@DU?$char_traits@D@std@@V?$allocator@D@2@@2@_N_J_KNVallocator@2@Uadl_serializer@json_abi_v3_12_0@nlohmann@@V?$vector@EV?$allocator@E@std@@@2@X@json_abi_v3_12_0@nlohmann@@@std@@PAX@std@@@std@@@std@@QAE@XZ 10033ca0 f i RTXLevelProperties.obj
 0001:00032d10       ??1?$_Tree_temp_node_alloc@V?$allocator@U?$_Tree_node@U?$pair@$$CBV?$basic_string@DU?$char_traits@D@std@@V?$allocator@D@2@@std@@V?$basic_json@Vmap@std@@Vvector@2@V?$basic_string@DU?$char_traits@D@std@@V?$allocator@D@2@@2@_N_J_KNVallocator@2@Uadl_serializer@json_abi_v3_12_0@nlohmann@@V?$vector@EV?$allocator@E@std@@@2@X@json_abi_v3_12_0@nlohmann@@@std@@PAX@std@@@std@@@std@@QAE@XZ 10033d10 f i RTXLevelProperties.obj
 0001:00032d60       ??1?$_Uninitialized_backout_al@V?$allocator@V?$basic_json@Vmap@std@@Vvector@2@V?$basic_string@DU?$char_traits@D@std@@V?$allocator@D@2@@2@_N_J_KNVallocator@2@Uadl_serializer@json_abi_v3_12_0@nlohmann@@V?$vector@EV?$allocator@E@std@@@2@X@json_abi_v3_12_0@nlohmann@@@std@@@std@@QAE@XZ 10033d60 f i RTXLevelProperties.obj
 0001:00032dc0       ??1?$_Uninitialized_backout_al@V?$allocator@V?$basic_string@DU?$char_traits@D@std@@V?$allocator@D@2@@std@@@std@@@std@@QAE@XZ 10033dc0 f i RTXLevelProperties.obj
 0001:00032de0       ??1?$_Uninitialized_backout_al@V?$allocator@V?$unique_ptr@VRTXAnchor@@U?$default_delete@VRTXAnchor@@@std@@@std@@@std@@@std@@QAE@XZ 10033de0 f i RTXLevelProperties.obj
 0001:00032e00       ??1?$_Vb_val@V?$allocator@_N@std@@@std@@QAE@XZ 10033e00 f i RTXLevelProperties.obj
 0001:00032e70       ??1?$basic_filebuf@DU?$char_traits@D@std@@@std@@UAE@XZ 10033e70 f i RTXLevelProperties.obj
 0001:00032fe0       ??1?$basic_ifstream@DU?$char_traits@D@std@@@std@@UAE@XZ 10033fe0 f i RTXLevelProperties.obj
 0001:00033070       ??1?$basic_istream@DU?$char_traits@D@std@@@std@@UAE@XZ 10034070 f i RTXLevelProperties.obj
 0001:00033090       ??1?$basic_json@Vmap@std@@Vvector@2@V?$basic_string@DU?$char_traits@D@std@@V?$allocator@D@2@@2@_N_J_KNVallocator@2@Uadl_serializer@json_abi_v3_12_0@nlohmann@@V?$vector@EV?$allocator@E@std@@@2@X@json_abi_v3_12_0@nlohmann@@QAE@XZ 10034090 f i RTXLevelProperties.obj
 0001:000330e0       ??1?$codecvt@DDU_Mbstatet@@@std@@MAE@XZ 100340e0 f i RTXLevelProperties.obj
 0001:00033150       ??1?$function@$$A6A_NHW4parse_event_t@detail@json_abi_v3_12_0@nlohmann@@AAV?$basic_json@Vmap@std@@Vvector@2@V?$basic_string@DU?$char_traits@D@std@@V?$allocator@D@2@@2@_N_J_KNVallocator@2@Uadl_serializer@json_abi_v3_12_0@nlohmann@@V?$vector@EV?$allocator@E@std@@@2@X@34@@Z@std@@QAE@XZ 10034150 f i RTXLevelProperties.obj
 0001:000331b0       ??1?$iteration_proxy_value@V?$iter_impl@V?$basic_json@Vmap@std@@Vvector@2@V?$basic_string@DU?$char_traits@D@std@@V?$allocator@D@2@@2@_N_J_KNVallocator@2@Uadl_serializer@json_abi_v3_12_0@nlohmann@@V?$vector@EV?$allocator@E@std@@@2@X@json_abi_v3_12_0@nlohmann@@@detail@json_abi_v3_12_0@nlohmann@@@detail@json_abi_v3_12_0@nlohmann@@QAE@XZ 100341b0 f i RTXLevelProperties.obj
 0001:00033250       ??1?$json_sax_dom_callback_parser@V?$basic_json@Vmap@std@@Vvector@2@V?$basic_string@DU?$char_traits@D@std@@V?$allocator@D@2@@2@_N_J_KNVallocator@2@Uadl_serializer@json_abi_v3_12_0@nlohmann@@V?$vector@EV?$allocator@E@std@@@2@X@json_abi_v3_12_0@nlohmann@@Vinput_stream_adapter@detail@23@@detail@json_abi_v3_12_0@nlohmann@@QAE@XZ 10034250 f i RTXLevelProperties.obj
 0001:00033380       ??1?$json_sax_dom_parser@V?$basic_json@Vmap@std@@Vvector@2@V?$basic_string@DU?$char_traits@D@std@@V?$allocator@D@2@@2@_N_J_KNVallocator@2@Uadl_serializer@json_abi_v3_12_0@nlohmann@@V?$vector@EV?$allocator@E@std@@@2@X@json_abi_v3_12_0@nlohmann@@Vinput_stream_adapter@detail@23@@detail@json_abi_v3_12_0@nlohmann@@QAE@XZ 10034380 f i RTXLevelProperties.obj
 0001:000333f0       ??1?$lexer@V?$basic_json@Vmap@std@@Vvector@2@V?$basic_string@DU?$char_traits@D@std@@V?$allocator@D@2@@2@_N_J_KNVallocator@2@Uadl_serializer@json_abi_v3_12_0@nlohmann@@V?$vector@EV?$allocator@E@std@@@2@X@json_abi_v3_12_0@nlohmann@@Vinput_stream_adapter@detail@23@@detail@json_abi_v3_12_0@nlohmann@@QAE@XZ 100343f0 f i RTXLevelProperties.obj
 0001:000334a0       ??1?$output_adapter@DV?$basic_string@DU?$char_traits@D@std@@V?$allocator@D@2@@std@@@detail@json_abi_v3_12_0@nlohmann@@QAE@XZ 100344a0 f i RTXLevelProperties.obj
 0001:00033510       ??1?$output_adapter_protocol@D@detail@json_abi_v3_12_0@nlohmann@@UAE@XZ 10034510 f i RTXLevelProperties.obj
 0001:00033520       ??1?$pair@$$CBV?$basic_string@DU?$char_traits@D@std@@V?$allocator@D@2@@std@@V12@@std@@QAE@XZ 10034520 f i RTXLevelProperties.obj
 0001:000335c0       ??1?$pair@$$CBV?$basic_string@DU?$char_traits@D@std@@V?$allocator@D@2@@std@@V?$basic_json@Vmap@std@@Vvector@2@V?$basic_string@DU?$char_traits@D@std@@V?$allocator@D@2@@2@_N_J_KNVallocator@2@Uadl_serializer@json_abi_v3_12_0@nlohmann@@V?$vector@EV?$allocator@E@std@@@2@X@json_abi_v3_12_0@nlohmann@@@std@@QAE@XZ 100345c0 f i RTXLevelProperties.obj
 0001:00033650       ??1?$parser@V?$basic_json@Vmap@std@@Vvector@2@V?$basic_string@DU?$char_traits@D@std@@V?$allocator@D@2@@2@_N_J_KNVallocator@2@Uadl_serializer@json_abi_v3_12_0@nlohmann@@V?$vector@EV?$allocator@E@std@@@2@X@json_abi_v3_12_0@nlohmann@@Vinput_stream_adapter@detail@23@@detail@json_abi_v3_12_0@nlohmann@@QAE@XZ 10034650 f i RTXLevelProperties.obj
 0001:000336d0       ??1?$serializer@V?$basic_json@Vmap@std@@Vvector@2@V?$basic_string@DU?$char_traits@D@std@@V?$allocator@D@2@@2@_N_J_KNVallocator@2@Uadl_serializer@json_abi_v3_12_0@nlohmann@@V?$vector@EV?$allocator@E@std@@@2@X@json_abi_v3_12_0@nlohmann@@@detail@json_abi_v3_12_0@nlohmann@@QAE@XZ 100346d0 f i RTXLevelProperties.obj
 0001:00033770       ??1?$shared_ptr@U?$output_adapter_protocol@D@detail@json_abi_v3_12_0@nlohmann@@@std@@QAE@XZ 10034770 f i RTXLevelProperties.obj
 0001:000337a0       ??1?$shared_ptr@V?$output_string_adapter@DV?$basic_string@DU?$char_traits@D@std@@V?$allocator@D@2@@std@@@detail@json_abi_v3_12_0@nlohmann@@@std@@QAE@XZ 100347a0 f i RTXLevelProperties.obj
 0001:000337d0       ??1?$unique_ptr@V?$basic_string@DU?$char_traits@D@std@@V?$allocator@D@2@@std@@V<lambda_1>@?1???$create@V?$basic_string@DU?$char_traits@D@std@@V?$allocator@D@2@@std@@AAY00$$CBD@?$basic_json@Vmap@std@@Vvector@2@V?$basic_string@DU?$char_traits@D@std@@V?$allocator@D@2@@2@_N_J_KNVallocator@2@Uadl_serializer@json_abi_v3_12_0@nlohmann@@V?$vector@EV?$allocator@E@std@@@2@X@json_abi_v3_12_0@nlohmann@@CAPAV12@AAY00$$CBD@Z@@std@@QAE@XZ 100347d0 f i RTXLevelProperties.obj
 0001:00033820       ??1?$unique_ptr@V?$basic_string@DU?$char_traits@D@std@@V?$allocator@D@2@@std@@V<lambda_1>@?1???$create@V?$basic_string@DU?$char_traits@D@std@@V?$allocator@D@2@@std@@ABV12@@?$basic_json@Vmap@std@@Vvector@2@V?$basic_string@DU?$char_traits@D@std@@V?$allocator@D@2@@2@_N_J_KNVallocator@2@Uadl_serializer@json_abi_v3_12_0@nlohmann@@V?$vector@EV?$allocator@E@std@@@2@X@json_abi_v3_12_0@nlohmann@@CAPAV12@ABV12@@Z@@std@@QAE@XZ 10034820 f i RTXLevelProperties.obj
 0001:00033870       ??1?$unique_ptr@V?$byte_container_with_subtype@V?$vector@EV?$allocator@E@std@@@std@@@json_abi_v3_12_0@nlohmann@@V<lambda_1>@?1???$create@V?$byte_container_with_subtype@V?$vector@EV?$allocator@E@std@@@std@@@json_abi_v3_12_0@nlohmann@@$$V@?$basic_json@Vmap@std@@Vvector@2@V?$basic_string@DU?$char_traits@D@std@@V?$allocator@D@2@@2@_N_J_KNVallocator@2@Uadl_serializer@json_abi_v3_12_0@nlohmann@@V?$vector@EV?$allocator@E@std@@@2@X@23@CAPAV123@XZ@@std@@QAE@XZ 10034870 f i RTXLevelProperties.obj
 0001:000338c0       ??1?$unique_ptr@V?$byte_container_with_subtype@V?$vector@EV?$allocator@E@std@@@std@@@json_abi_v3_12_0@nlohmann@@V<lambda_1>@?1???$create@V?$byte_container_with_subtype@V?$vector@EV?$allocator@E@std@@@std@@@json_abi_v3_12_0@nlohmann@@ABV123@@?$basic_json@Vmap@std@@Vvector@2@V?$basic_string@DU?$char_traits@D@std@@V?$allocator@D@2@@2@_N_J_KNVallocator@2@Uadl_serializer@json_abi_v3_12_0@nlohmann@@V?$vector@EV?$allocator@E@std@@@2@X@23@CAPAV123@ABV123@@Z@@std@@QAE@XZ 100348c0 f i RTXLevelProperties.obj
 0001:00033910       ??1?$unique_ptr@V?$map@V?$basic_string@DU?$char_traits@D@std@@V?$allocator@D@2@@std@@V?$basic_json@Vmap@std@@Vvector@2@V?$basic_string@DU?$char_traits@D@std@@V?$allocator@D@2@@2@_N_J_KNVallocator@2@Uadl_serializer@json_abi_v3_12_0@nlohmann@@V?$vector@EV?$allocator@E@std@@@2@X@json_abi_v3_12_0@nlohmann@@U?$less@X@2@V?$allocator@U?$pair@$$CBV?$basic_string@DU?$char_traits@D@std@@V?$allocator@D@2@@std@@V?$basic_json@Vmap@std@@Vvector@2@V?$basic_string@DU?$char_traits@D@std@@V?$allocator@D@2@@2@_N_J_KNVallocator@2@Uadl_serializer@json_abi_v3_12_0@nlohmann@@V?$vector@EV?$allocator@E@std@@@2@X@json_abi_v3_12_0@nlohmann@@@std@@@2@@std@@V<lambda_1>@?1???$create@V?$map@V?$basic_string@DU?$char_traits@D@std@@V?$allocator@D@2@@std@@V?$basic_json@Vmap@std@@Vvector@2@V?$basic_string@DU?$char_traits@D@std@@V?$allocator@D@2@@2@_N_J_KNVallocator@2@Uadl_serializer@json_abi_v3_12_0@nlohmann@@V?$vector@EV?$allocator@E@std@@@2@X@json_abi_v3_12_0@nlohmann@@U?$less@X@2@V?$allocator@U?$pair@$$CBV?$basic_string@DU?$char_traits@D@std@@V?$allocator@D@2@@std@@V?$basic_json@Vmap@std@@Vvector@2@V?$basic_string@DU?$char_traits@D@std@@V?$allocator@D@2@@2@_N_J_KNVallocator@2@Uadl_serializer@json_abi_v3_12_0@nlohmann@@V?$vector@EV?$allocator@E@std@@@2@X@json_abi_v3_12_0@nlohmann@@@std@@@2@@std@@$$V@?$basic_json@Vmap@std@@Vvector@2@V?$basic_string@DU?$char_traits@D@std@@V?$allocator@D@2@@2@_N_J_KNVallocator@2@Uadl_serializer@json_abi_v3_12_0@nlohmann@@V?$vector@EV?$allocator@E@std@@@2@X@json_abi_v3_12_0@nlohmann@@CAPAV12@XZ@@std@@QAE@XZ 10034910 f i RTXLevelProperties.obj
 0001:00033960       ??1?$unique_ptr@V?$map@V?$basic_string@DU?$char_traits@D@std@@V?$allocator@D@2@@std@@V?$basic_json@Vmap@std@@Vvector@2@V?$basic_string@DU?$char_traits@D@std@@V?$allocator@D@2@@2@_N_J_KNVallocator@2@Uadl_serializer@json_abi_v3_12_0@nlohmann@@V?$vector@EV?$allocator@E@std@@@2@X@json_abi_v3_12_0@nlohmann@@U?$less@X@2@V?$allocator@U?$pair@$$CBV?$basic_string@DU?$char_traits@D@std@@V?$allocator@D@2@@std@@V?$basic_json@Vmap@std@@Vvector@2@V?$basic_string@DU?$char_traits@D@std@@V?$allocator@D@2@@2@_N_J_KNVallocator@2@Uadl_serializer@json_abi_v3_12_0@nlohmann@@V?$vector@EV?$allocator@E@std@@@2@X@json_abi_v3_12_0@nlohmann@@@std@@@2@@std@@V<lambda_1>@?1???$create@V?$map@V?$basic_string@DU?$char_traits@D@std@@V?$allocator@D@2@@std@@V?$basic_json@Vmap@std@@Vvector@2@V?$basic_string@DU?$char_traits@D@std@@V?$allocator@D@2@@2@_N_J_KNVallocator@2@Uadl_serializer@json_abi_v3_12_0@nlohmann@@V?$vector@EV?$allocator@E@std@@@2@X@json_abi_v3_12_0@nlohmann@@U?$less@X@2@V?$allocator@U?$pair@$$CBV?$basic_string@DU?$char_traits@D@std@@V?$allocator@D@2@@std@@V?$basic_json@Vmap@std@@Vvector@2@V?$basic_string@DU?$char_traits@D@std@@V?$allocator@D@2@@2@_N_J_KNVallocator@2@Uadl_serializer@json_abi_v3_12_0@nlohmann@@V?$vector@EV?$allocator@E@std@@@2@X@json_abi_v3_12_0@nlohmann@@@std@@@2@@std@@ABV12@@?$basic_json@Vmap@std@@Vvector@2@V?$basic_string@DU?$char_traits@D@std@@V?$allocator@D@2@@2@_N_J_KNVallocator@2@Uadl_serializer@json_abi_v3_12_0@nlohmann@@V?$vector@EV?$allocator@E@std@@@2@X@json_abi_v3_12_0@nlohmann@@CAPAV12@ABV12@@Z@@std@@QAE@XZ 10034960 f i RTXLevelProperties.obj
 0001:000339b0       ??1?$unique_ptr@V?$vector@V?$basic_json@Vmap@std@@Vvector@2@V?$basic_string@DU?$char_traits@D@std@@V?$allocator@D@2@@2@_N_J_KNVallocator@2@Uadl_serializer@json_abi_v3_12_0@nlohmann@@V?$vector@EV?$allocator@E@std@@@2@X@json_abi_v3_12_0@nlohmann@@V?$allocator@V?$basic_json@Vmap@std@@Vvector@2@V?$basic_string@DU?$char_traits@D@std@@V?$allocator@D@2@@2@_N_J_KNVallocator@2@Uadl_serializer@json_abi_v3_12_0@nlohmann@@V?$vector@EV?$allocator@E@std@@@2@X@json_abi_v3_12_0@nlohmann@@@std@@@std@@V<lambda_1>@?1???$create@V?$vector@V?$basic_json@Vmap@std@@Vvector@2@V?$basic_string@DU?$char_traits@D@std@@V?$allocator@D@2@@2@_N_J_KNVallocator@2@Uadl_serializer@json_abi_v3_12_0@nlohmann@@V?$vector@EV?$allocator@E@std@@@2@X@json_abi_v3_12_0@nlohmann@@V?$allocator@V?$basic_json@Vmap@std@@Vvector@2@V?$basic_string@DU?$char_traits@D@std@@V?$allocator@D@2@@2@_N_J_KNVallocator@2@Uadl_serializer@json_abi_v3_12_0@nlohmann@@V?$vector@EV?$allocator@E@std@@@2@X@json_abi_v3_12_0@nlohmann@@@std@@@std@@$$V@?$basic_json@Vmap@std@@Vvector@2@V?$basic_string@DU?$char_traits@D@std@@V?$allocator@D@2@@2@_N_J_KNVallocator@2@Uadl_serializer@json_abi_v3_12_0@nlohmann@@V?$vector@EV?$allocator@E@std@@@2@X@json_abi_v3_12_0@nlohmann@@CAPAV12@XZ@@std@@QAE@XZ 100349b0 f i RTXLevelProperties.obj
 0001:00033a00       ??1?$unique_ptr@V?$vector@V?$basic_json@Vmap@std@@Vvector@2@V?$basic_string@DU?$char_traits@D@std@@V?$allocator@D@2@@2@_N_J_KNVallocator@2@Uadl_serializer@json_abi_v3_12_0@nlohmann@@V?$vector@EV?$allocator@E@std@@@2@X@json_abi_v3_12_0@nlohmann@@V?$allocator@V?$basic_json@Vmap@std@@Vvector@2@V?$basic_string@DU?$char_traits@D@std@@V?$allocator@D@2@@2@_N_J_KNVallocator@2@Uadl_serializer@json_abi_v3_12_0@nlohmann@@V?$vector@EV?$allocator@E@std@@@2@X@json_abi_v3_12_0@nlohmann@@@std@@@std@@V<lambda_1>@?1???$create@V?$vector@V?$basic_json@Vmap@std@@Vvector@2@V?$basic_string@DU?$char_traits@D@std@@V?$allocator@D@2@@2@_N_J_KNVallocator@2@Uadl_serializer@json_abi_v3_12_0@nlohmann@@V?$vector@EV?$allocator@E@std@@@2@X@json_abi_v3_12_0@nlohmann@@V?$allocator@V?$basic_json@Vmap@std@@Vvector@2@V?$basic_string@DU?$char_traits@D@std@@V?$allocator@D@2@@2@_N_J_KNVallocator@2@Uadl_serializer@json_abi_v3_12_0@nlohmann@@V?$vector@EV?$allocator@E@std@@@2@X@json_abi_v3_12_0@nlohmann@@@std@@@std@@ABV12@@?$basic_json@Vmap@std@@Vvector@2@V?$basic_string@DU?$char_traits@D@std@@V?$allocator@D@2@@2@_N_J_KNVallocator@2@Uadl_serializer@json_abi_v3_12_0@nlohmann@@V?$vector@EV?$allocator@E@std@@@2@X@json_abi_v3_12_0@nlohmann@@CAPAV12@ABV12@@Z@@std@@QAE@XZ 10034a00 f i RTXLevelProperties.obj
 0001:00033a50       ??1?$unique_ptr@VRTXAnchor@@U?$default_delete@VRTXAnchor@@@std@@@std@@QAE@XZ 10034a50 f i RTXLevelProperties.obj
 0001:00033ad0       ??1?$unique_ptr@VRTXAnchorLinear@@U?$default_delete@VRTXAnchorLinear@@@std@@@std@@QAE@XZ 10034ad0 f i RTXLevelProperties.obj
 0001:00033b50       ??1?$unique_ptr@VRTXAnchorPingPong@@U?$default_delete@VRTXAnchorPingPong@@@std@@@std@@QAE@XZ 10034b50 f i RTXLevelProperties.obj
 0001:00033bd0       ??1?$vector@DV?$allocator@D@std@@@std@@QAE@XZ 10034bd0 f i RTXLevelProperties.obj
 0001:00033c00       ??1?$vector@EV?$allocator@E@std@@@std@@QAE@XZ 10034c00 f i RTXLevelProperties.obj
 0001:00033c10       ??1?$vector@IV?$allocator@I@std@@@std@@QAE@XZ 10034c10 f i RTXLevelProperties.obj
 0001:00033c40       ??1?$vector@PAV?$basic_json@Vmap@std@@Vvector@2@V?$basic_string@DU?$char_traits@D@std@@V?$allocator@D@2@@2@_N_J_KNVallocator@2@Uadl_serializer@json_abi_v3_12_0@nlohmann@@V?$vector@EV?$allocator@E@std@@@2@X@json_abi_v3_12_0@nlohmann@@V?$allocator@PAV?$basic_json@Vmap@std@@Vvector@2@V?$basic_string@DU?$char_traits@D@std@@V?$allocator@D@2@@2@_N_J_KNVallocator@2@Uadl_serializer@json_abi_v3_12_0@nlohmann@@V?$vector@EV?$allocator@E@std@@@2@X@json_abi_v3_12_0@nlohmann@@@std@@@std@@QAE@XZ 10034c40 f i RTXLevelProperties.obj
 0001:00033c70       ??1?$vector@V?$basic_json@Vmap@std@@Vvector@2@V?$basic_string@DU?$char_traits@D@std@@V?$allocator@D@2@@2@_N_J_KNVallocator@2@Uadl_serializer@json_abi_v3_12_0@nlohmann@@V?$vector@EV?$allocator@E@std@@@2@X@json_abi_v3_12_0@nlohmann@@V?$allocator@V?$basic_json@Vmap@std@@Vvector@2@V?$basic_string@DU?$char_traits@D@std@@V?$allocator@D@2@@2@_N_J_KNVallocator@2@Uadl_serializer@json_abi_v3_12_0@nlohmann@@V?$vector@EV?$allocator@E@std@@@2@X@json_abi_v3_12_0@nlohmann@@@std@@@std@@QAE@XZ 10034c70 f i RTXLevelProperties.obj
 0001:00033c80       ??1?$vector@V?$basic_string@DU?$char_traits@D@std@@V?$allocator@D@2@@std@@V?$allocator@V?$basic_string@DU?$char_traits@D@std@@V?$allocator@D@2@@std@@@2@@std@@QAE@XZ 10034c80 f i RTXLevelProperties.obj
 0001:00033cd0       ??1?$vector@_NV?$allocator@_N@std@@@std@@QAE@XZ 10034cd0 f i RTXLevelProperties.obj
 0001:00033d40       ??1RTXAnchor@@QAE@XZ       10034d40 f i RTXLevelProperties.obj
 0001:00033db0       ??1RTXAnchorLinear@@QAE@XZ 10034db0 f i RTXLevelProperties.obj
 0001:00033e20       ??1_Clear_guard@?$_Hash@V?$_Umap_traits@V?$basic_string@DU?$char_traits@D@std@@V?$allocator@D@2@@std@@V12@V?$_Uhash_compare@V?$basic_string@DU?$char_traits@D@std@@V?$allocator@D@2@@std@@U?$hash@V?$basic_string@DU?$char_traits@D@std@@V?$allocator@D@2@@std@@@2@U?$equal_to@V?$basic_string@DU?$char_traits@D@std@@V?$allocator@D@2@@std@@@2@@2@V?$allocator@U?$pair@$$CBV?$basic_string@DU?$char_traits@D@std@@V?$allocator@D@2@@std@@V12@@std@@@2@$0A@@std@@@std@@QAE@XZ 10034e20 f i RTXLevelProperties.obj
 0001:00033f00       ??1_Clear_guard@?$_Hash@V?$_Uset_traits@V?$basic_string@GU?$char_traits@G@std@@V?$allocator@G@2@@std@@V?$_Uhash_compare@V?$basic_string@GU?$char_traits@G@std@@V?$allocator@G@2@@std@@U?$hash@V?$basic_string@GU?$char_traits@G@std@@V?$allocator@G@2@@std@@@2@U?$equal_to@V?$basic_string@GU?$char_traits@G@std@@V?$allocator@G@2@@std@@@2@@2@V?$allocator@V?$basic_string@GU?$char_traits@G@std@@V?$allocator@G@2@@std@@@2@$0A@@std@@@std@@QAE@XZ 10034f00 f i RTXLevelProperties.obj
 0001:00033f70       ??1_Range_eraser@?$_Hash@V?$_Umap_traits@V?$basic_string@DU?$char_traits@D@std@@V?$allocator@D@2@@std@@V12@V?$_Uhash_compare@V?$basic_string@DU?$char_traits@D@std@@V?$allocator@D@2@@std@@U?$hash@V?$basic_string@DU?$char_traits@D@std@@V?$allocator@D@2@@std@@@2@U?$equal_to@V?$basic_string@DU?$char_traits@D@std@@V?$allocator@D@2@@std@@@2@@2@V?$allocator@U?$pair@$$CBV?$basic_string@DU?$char_traits@D@std@@V?$allocator@D@2@@std@@V12@@std@@@2@$0A@@std@@@std@@QAE@XZ 10034f70 f i RTXLevelProperties.obj
 0001:00033f90       ??1_Reallocation_guard@?$vector@DV?$allocator@D@std@@@std@@QAE@XZ 10034f90 f i RTXLevelProperties.obj
 0001:00033fb0       ??1_Reallocation_guard@?$vector@IV?$allocator@I@std@@@std@@QAE@XZ 10034fb0 f i RTXLevelProperties.obj
 0001:00033fd0       ??1_Reallocation_guard@?$vector@PAV?$basic_json@Vmap@std@@Vvector@2@V?$basic_string@DU?$char_traits@D@std@@V?$allocator@D@2@@2@_N_J_KNVallocator@2@Uadl_serializer@json_abi_v3_12_0@nlohmann@@V?$vector@EV?$allocator@E@std@@@2@X@json_abi_v3_12_0@nlohmann@@V?$allocator@PAV?$basic_json@Vmap@std@@Vvector@2@V?$basic_string@DU?$char_traits@D@std@@V?$allocator@D@2@@2@_N_J_KNVallocator@2@Uadl_serializer@json_abi_v3_12_0@nlohmann@@V?$vector@EV?$allocator@E@std@@@2@X@json_abi_v3_12_0@nlohmann@@@std@@@std@@QAE@XZ 10034fd0 f i RTXLevelProperties.obj
 0001:00033ff0       ??1_Reallocation_guard@?$vector@V?$basic_json@Vmap@std@@Vvector@2@V?$basic_string@DU?$char_traits@D@std@@V?$allocator@D@2@@2@_N_J_KNVallocator@2@Uadl_serializer@json_abi_v3_12_0@nlohmann@@V?$vector@EV?$allocator@E@std@@@2@X@json_abi_v3_12_0@nlohmann@@V?$allocator@V?$basic_json@Vmap@std@@Vvector@2@V?$basic_string@DU?$char_traits@D@std@@V?$allocator@D@2@@2@_N_J_KNVallocator@2@Uadl_serializer@json_abi_v3_12_0@nlohmann@@V?$vector@EV?$allocator@E@std@@@2@X@json_abi_v3_12_0@nlohmann@@@std@@@std@@QAE@XZ 10034ff0 f i RTXLevelProperties.obj
 0001:00034070       ??1_Reallocation_guard@?$vector@V?$basic_string@DU?$char_traits@D@std@@V?$allocator@D@2@@std@@V?$allocator@V?$basic_string@DU?$char_traits@D@std@@V?$allocator@D@2@@std@@@2@@std@@QAE@XZ 10035070 f i RTXLevelProperties.obj
 0001:000340a0       ??1_Reallocation_guard@?$vector@V?$unique_ptr@VRTXAnchor@@U?$default_delete@VRTXAnchor@@@std@@@std@@V?$allocator@V?$unique_ptr@VRTXAnchor@@U?$default_delete@VRTXAnchor@@@std@@@std@@@2@@std@@QAE@XZ 100350a0 f i RTXLevelProperties.obj
 0001:000340d0       ??1_Ref_count_base@std@@UAE@XZ 100350d0 f i RTXLevelProperties.obj
 0001:000340e0       ??1_Simple_reallocation_guard@?$vector@V?$basic_json@Vmap@std@@Vvector@2@V?$basic_string@DU?$char_traits@D@std@@V?$allocator@D@2@@2@_N_J_KNVallocator@2@Uadl_serializer@json_abi_v3_12_0@nlohmann@@V?$vector@EV?$allocator@E@std@@@2@X@json_abi_v3_12_0@nlohmann@@V?$allocator@V?$basic_json@Vmap@std@@Vvector@2@V?$basic_string@DU?$char_traits@D@std@@V?$allocator@D@2@@2@_N_J_KNVallocator@2@Uadl_serializer@json_abi_v3_12_0@nlohmann@@V?$vector@EV?$allocator@E@std@@@2@X@json_abi_v3_12_0@nlohmann@@@std@@@std@@QAE@XZ 100350e0 f i RTXLevelProperties.obj
 0001:00034100       ??1codecvt_base@std@@UAE@XZ 10035100 f i RTXLevelProperties.obj
 0001:00034160       ??1data@?$basic_json@Vmap@std@@Vvector@2@V?$basic_string@DU?$char_traits@D@std@@V?$allocator@D@2@@2@_N_J_KNVallocator@2@Uadl_serializer@json_abi_v3_12_0@nlohmann@@V?$vector@EV?$allocator@E@std@@@2@X@json_abi_v3_12_0@nlohmann@@QAE@XZ 10035160 f i RTXLevelProperties.obj
 0001:000341b0       ??1exception@detail@json_abi_v3_12_0@nlohmann@@UAE@XZ 100351b0 f i RTXLevelProperties.obj
 0001:00034230       ??1input_stream_adapter@detail@json_abi_v3_12_0@nlohmann@@QAE@XZ 10035230 f i RTXLevelProperties.obj
 0001:000342d0       ??1invalid_iterator@detail@json_abi_v3_12_0@nlohmann@@UAE@XZ 100352d0 f i RTXLevelProperties.obj
 0001:00034350       ??1other_error@detail@json_abi_v3_12_0@nlohmann@@UAE@XZ 10035350 f i RTXLevelProperties.obj
 0001:000343d0       ??1out_of_range@detail@json_abi_v3_12_0@nlohmann@@UAE@XZ 100353d0 f i RTXLevelProperties.obj
 0001:00034450       ??1parse_error@detail@json_abi_v3_12_0@nlohmann@@UAE@XZ 10035450 f i RTXLevelProperties.obj
 0001:000344d0       ??1type_error@detail@json_abi_v3_12_0@nlohmann@@UAE@XZ 100354d0 f i RTXLevelProperties.obj
 0001:00034550       ??4?$basic_json@Vmap@std@@Vvector@2@V?$basic_string@DU?$char_traits@D@std@@V?$allocator@D@2@@2@_N_J_KNVallocator@2@Uadl_serializer@json_abi_v3_12_0@nlohmann@@V?$vector@EV?$allocator@E@std@@@2@X@json_abi_v3_12_0@nlohmann@@QAEAAV012@V012@@Z 10035550 f i RTXLevelProperties.obj
 0001:000345d0       ??A?$map@V?$basic_string@DU?$char_traits@D@std@@V?$allocator@D@2@@std@@V?$basic_json@Vmap@std@@Vvector@2@V?$basic_string@DU?$char_traits@D@std@@V?$allocator@D@2@@2@_N_J_KNVallocator@2@Uadl_serializer@json_abi_v3_12_0@nlohmann@@V?$vector@EV?$allocator@E@std@@@2@X@json_abi_v3_12_0@nlohmann@@U?$less@X@2@V?$allocator@U?$pair@$$CBV?$basic_string@DU?$char_traits@D@std@@V?$allocator@D@2@@std@@V?$basic_json@Vmap@std@@Vvector@2@V?$basic_string@DU?$char_traits@D@std@@V?$allocator@D@2@@2@_N_J_KNVallocator@2@Uadl_serializer@json_abi_v3_12_0@nlohmann@@V?$vector@EV?$allocator@E@std@@@2@X@json_abi_v3_12_0@nlohmann@@@std@@@2@@std@@QAEAAV?$basic_json@Vmap@std@@Vvector@2@V?$basic_string@DU?$char_traits@D@std@@V?$allocator@D@2@@2@_N_J_KNVallocator@2@Uadl_serializer@json_abi_v3_12_0@nlohmann@@V?$vector@EV?$allocator@E@std@@@2@X@json_abi_v3_12_0@nlohmann@@ABV?$basic_string@DU?$char_traits@D@std@@V?$allocator@D@2@@1@@Z 100355d0 f i RTXLevelProperties.obj
 0001:00034700       ??B?$output_adapter@DV?$basic_string@DU?$char_traits@D@std@@V?$allocator@D@2@@std@@@detail@json_abi_v3_12_0@nlohmann@@QAE?AV?$shared_ptr@U?$output_adapter_protocol@D@detail@json_abi_v3_12_0@nlohmann@@@std@@XZ 10035700 f i RTXLevelProperties.obj
 0001:00034770       ??C?$iter_impl@V?$basic_json@Vmap@std@@Vvector@2@V?$basic_string@DU?$char_traits@D@std@@V?$allocator@D@2@@2@_N_J_KNVallocator@2@Uadl_serializer@json_abi_v3_12_0@nlohmann@@V?$vector@EV?$allocator@E@std@@@2@X@json_abi_v3_12_0@nlohmann@@@detail@json_abi_v3_12_0@nlohmann@@QBEPAV?$basic_json@Vmap@std@@Vvector@2@V?$basic_string@DU?$char_traits@D@std@@V?$allocator@D@2@@2@_N_J_KNVallocator@2@Uadl_serializer@json_abi_v3_12_0@nlohmann@@V?$vector@EV?$allocator@E@std@@@2@X@23@XZ 10035770 f i RTXLevelProperties.obj
 0001:00034830       ??D?$iter_impl@V?$basic_json@Vmap@std@@Vvector@2@V?$basic_string@DU?$char_traits@D@std@@V?$allocator@D@2@@2@_N_J_KNVallocator@2@Uadl_serializer@json_abi_v3_12_0@nlohmann@@V?$vector@EV?$allocator@E@std@@@2@X@json_abi_v3_12_0@nlohmann@@@detail@json_abi_v3_12_0@nlohmann@@QBEAAV?$basic_json@Vmap@std@@Vvector@2@V?$basic_string@DU?$char_traits@D@std@@V?$allocator@D@2@@2@_N_J_KNVallocator@2@Uadl_serializer@json_abi_v3_12_0@nlohmann@@V?$vector@EV?$allocator@E@std@@@2@X@23@XZ 10035830 f i RTXLevelProperties.obj
 0001:00034910       ??E?$_Tree_unchecked_const_iterator@V?$_Tree_val@U?$_Tree_simple_types@U?$pair@$$CBV?$basic_string@DU?$char_traits@D@std@@V?$allocator@D@2@@std@@V?$basic_json@Vmap@std@@Vvector@2@V?$basic_string@DU?$char_traits@D@std@@V?$allocator@D@2@@2@_N_J_KNVallocator@2@Uadl_serializer@json_abi_v3_12_0@nlohmann@@V?$vector@EV?$allocator@E@std@@@2@X@json_abi_v3_12_0@nlohmann@@@std@@@std@@@std@@U_Iterator_base0@2@@std@@QAEAAV01@XZ 10035910 f i RTXLevelProperties.obj
 0001:00034970       ??E?$iter_impl@V?$basic_json@Vmap@std@@Vvector@2@V?$basic_string@DU?$char_traits@D@std@@V?$allocator@D@2@@2@_N_J_KNVallocator@2@Uadl_serializer@json_abi_v3_12_0@nlohmann@@V?$vector@EV?$allocator@E@std@@@2@X@json_abi_v3_12_0@nlohmann@@@detail@json_abi_v3_12_0@nlohmann@@QAEAAV0123@XZ 10035970 f i RTXLevelProperties.obj
 0001:000349e0       ??Y?$_Vb_const_iterator@U?$_Wrap_alloc@V?$allocator@I@std@@@std@@@std@@QAEAAV01@H@Z 100359e0 f i RTXLevelProperties.obj
 0001:00034a40       ??_D?$basic_ifstream@DU?$char_traits@D@std@@@std@@QAEXXZ 10035a40 f i RTXLevelProperties.obj
 0001:00034ae7       ??_E?$basic_ifstream@DU?$char_traits@D@std@@@std@@$4PPPPPPPM@A@AEPAXI@Z 10035ae7 f i RTXLevelProperties.obj
 0001:00034aef       ??_E?$basic_istream@DU?$char_traits@D@std@@@std@@$4PPPPPPPM@A@AEPAXI@Z 10035aef f i RTXLevelProperties.obj
 0001:00034b00       ??_E?$_Ref_count_obj2@V?$output_string_adapter@DV?$basic_string@DU?$char_traits@D@std@@V?$allocator@D@2@@std@@@detail@json_abi_v3_12_0@nlohmann@@@std@@UAEPAXI@Z 10035b00 f i RTXLevelProperties.obj
 0001:00034b00       ??_G?$_Ref_count_obj2@V?$output_string_adapter@DV?$basic_string@DU?$char_traits@D@std@@V?$allocator@D@2@@std@@@detail@json_abi_v3_12_0@nlohmann@@@std@@UAEPAXI@Z 10035b00 f i RTXLevelProperties.obj
 0001:00034b30       ??_E?$basic_filebuf@DU?$char_traits@D@std@@@std@@UAEPAXI@Z 10035b30 f i RTXLevelProperties.obj
 0001:00034b30       ??_G?$basic_filebuf@DU?$char_traits@D@std@@@std@@UAEPAXI@Z 10035b30 f i RTXLevelProperties.obj
 0001:00034b60       ??_E?$basic_ifstream@DU?$char_traits@D@std@@@std@@UAEPAXI@Z 10035b60 f i RTXLevelProperties.obj
 0001:00034b60       ??_G?$basic_ifstream@DU?$char_traits@D@std@@@std@@UAEPAXI@Z 10035b60 f i RTXLevelProperties.obj
 0001:00034b90       ??_E?$basic_istream@DU?$char_traits@D@std@@@std@@UAEPAXI@Z 10035b90 f i RTXLevelProperties.obj
 0001:00034b90       ??_G?$basic_istream@DU?$char_traits@D@std@@@std@@UAEPAXI@Z 10035b90 f i RTXLevelProperties.obj
 0001:00034c20       ??_E?$codecvt@DDU_Mbstatet@@@std@@MAEPAXI@Z 10035c20 f i RTXLevelProperties.obj
 0001:00034c20       ??_G?$codecvt@DDU_Mbstatet@@@std@@MAEPAXI@Z 10035c20 f i RTXLevelProperties.obj
 0001:00034ca0       ??_E?$output_adapter_protocol@D@detail@json_abi_v3_12_0@nlohmann@@UAEPAXI@Z 10035ca0 f i RTXLevelProperties.obj
 0001:00034ca0       ??_G?$output_adapter_protocol@D@detail@json_abi_v3_12_0@nlohmann@@UAEPAXI@Z 10035ca0 f i RTXLevelProperties.obj
 0001:00034cc0       ??_E?$output_string_adapter@DV?$basic_string@DU?$char_traits@D@std@@V?$allocator@D@2@@std@@@detail@json_abi_v3_12_0@nlohmann@@UAEPAXI@Z 10035cc0 f i RTXLevelProperties.obj
 0001:00034cc0       ??_G?$output_string_adapter@DV?$basic_string@DU?$char_traits@D@std@@V?$allocator@D@2@@std@@@detail@json_abi_v3_12_0@nlohmann@@UAEPAXI@Z 10035cc0 f i RTXLevelProperties.obj
 0001:00034ce0       ??_Ecodecvt_base@std@@UAEPAXI@Z 10035ce0 f i RTXLevelProperties.obj
 0001:00034ce0       ??_Gcodecvt_base@std@@UAEPAXI@Z 10035ce0 f i RTXLevelProperties.obj
 0001:00034d50       ??_Eexception@detail@json_abi_v3_12_0@nlohmann@@UAEPAXI@Z 10035d50 f i RTXLevelProperties.obj
 0001:00034d50       ??_Gexception@detail@json_abi_v3_12_0@nlohmann@@UAEPAXI@Z 10035d50 f i RTXLevelProperties.obj
 0001:00034de0       ??_Einvalid_iterator@detail@json_abi_v3_12_0@nlohmann@@UAEPAXI@Z 10035de0 f i RTXLevelProperties.obj
 0001:00034de0       ??_Ginvalid_iterator@detail@json_abi_v3_12_0@nlohmann@@UAEPAXI@Z 10035de0 f i RTXLevelProperties.obj
 0001:00034e70       ??_Eother_error@detail@json_abi_v3_12_0@nlohmann@@UAEPAXI@Z 10035e70 f i RTXLevelProperties.obj
 0001:00034e70       ??_Gother_error@detail@json_abi_v3_12_0@nlohmann@@UAEPAXI@Z 10035e70 f i RTXLevelProperties.obj
 0001:00034f00       ??_Eout_of_range@detail@json_abi_v3_12_0@nlohmann@@UAEPAXI@Z 10035f00 f i RTXLevelProperties.obj
 0001:00034f00       ??_Gout_of_range@detail@json_abi_v3_12_0@nlohmann@@UAEPAXI@Z 10035f00 f i RTXLevelProperties.obj
 0001:00034f90       ??_Eparse_error@detail@json_abi_v3_12_0@nlohmann@@UAEPAXI@Z 10035f90 f i RTXLevelProperties.obj
 0001:00034f90       ??_Gparse_error@detail@json_abi_v3_12_0@nlohmann@@UAEPAXI@Z 10035f90 f i RTXLevelProperties.obj
 0001:00035020       ??_Etype_error@detail@json_abi_v3_12_0@nlohmann@@UAEPAXI@Z 10036020 f i RTXLevelProperties.obj
 0001:00035020       ??_Gtype_error@detail@json_abi_v3_12_0@nlohmann@@UAEPAXI@Z 10036020 f i RTXLevelProperties.obj
 0001:000350b0       ?Tick@RTXAnchor@@UAEXM@Z   100360b0 f   RTXLevelProperties.obj
 0001:000351b0       ?Tick@RTXAnchorLinear@@UAEXM@Z 100361b0 f   RTXLevelProperties.obj
 0001:00035250       ?Tick@RTXAnchorPingPong@@UAEXM@Z 10036250 f   RTXLevelProperties.obj
 0001:000352c0       ?_Assign_grow@?$_Hash_vec@V?$allocator@V?$_List_unchecked_const_iterator@V?$_List_val@U?$_List_simple_types@V?$basic_string@GU?$char_traits@G@std@@V?$allocator@G@2@@std@@@std@@@std@@U_Iterator_base0@2@@std@@@std@@@std@@QAEXIV?$_List_unchecked_const_iterator@V?$_List_val@U?$_List_simple_types@V?$basic_string@GU?$char_traits@G@std@@V?$allocator@G@2@@std@@@std@@@std@@U_Iterator_base0@2@@2@@Z 100362c0 f i RTXLevelProperties.obj
 0001:00035360       ?_Change_array@?$vector@V?$basic_json@Vmap@std@@Vvector@2@V?$basic_string@DU?$char_traits@D@std@@V?$allocator@D@2@@2@_N_J_KNVallocator@2@Uadl_serializer@json_abi_v3_12_0@nlohmann@@V?$vector@EV?$allocator@E@std@@@2@X@json_abi_v3_12_0@nlohmann@@V?$allocator@V?$basic_json@Vmap@std@@Vvector@2@V?$basic_string@DU?$char_traits@D@std@@V?$allocator@D@2@@2@_N_J_KNVallocator@2@Uadl_serializer@json_abi_v3_12_0@nlohmann@@V?$vector@EV?$allocator@E@std@@@2@X@json_abi_v3_12_0@nlohmann@@@std@@@std@@AAEXQAV?$basic_json@Vmap@std@@Vvector@2@V?$basic_string@DU?$char_traits@D@std@@V?$allocator@D@2@@2@_N_J_KNVallocator@2@Uadl_serializer@json_abi_v3_12_0@nlohmann@@V?$vector@EV?$allocator@E@std@@@2@X@json_abi_v3_12_0@nlohmann@@II@Z 10036360 f i RTXLevelProperties.obj
 0001:00035410       ?_Change_array@?$vector@V?$basic_string@DU?$char_traits@D@std@@V?$allocator@D@2@@std@@V?$allocator@V?$basic_string@DU?$char_traits@D@std@@V?$allocator@D@2@@std@@@2@@std@@AAEXQAV?$basic_string@DU?$char_traits@D@std@@V?$allocator@D@2@@2@II@Z 10036410 f i RTXLevelProperties.obj
 0001:00035470       ?_Deallocate_for_capacity@?$basic_string@GU?$char_traits@G@std@@V?$allocator@G@2@@std@@CAXAAV?$allocator@G@2@QAGI@Z 10036470 f i RTXLevelProperties.obj
 0001:000354f0       ?_Delete_this@?$_Ref_count_obj2@V?$output_string_adapter@DV?$basic_string@DU?$char_traits@D@std@@V?$allocator@D@2@@std@@@detail@json_abi_v3_12_0@nlohmann@@@std@@EAEXXZ 100364f0 f i RTXLevelProperties.obj
 0001:00035500       ?_Destroy@?$_Ref_count_obj2@V?$output_string_adapter@DV?$basic_string@DU?$char_traits@D@std@@V?$allocator@D@2@@std@@@detail@json_abi_v3_12_0@nlohmann@@@std@@EAEXXZ 10036500 f i RTXLevelProperties.obj
 0001:00035510       ?_Endwrite@?$basic_filebuf@DU?$char_traits@D@std@@@std@@IAE_NXZ 10036510 f i RTXLevelProperties.obj
 0001:000355e0       ?_Extract@?$_Tree_val@U?$_Tree_simple_types@U?$pair@$$CBV?$basic_string@DU?$char_traits@D@std@@V?$allocator@D@2@@std@@V?$basic_json@Vmap@std@@Vvector@2@V?$basic_string@DU?$char_traits@D@std@@V?$allocator@D@2@@2@_N_J_KNVallocator@2@Uadl_serializer@json_abi_v3_12_0@nlohmann@@V?$vector@EV?$allocator@E@std@@@2@X@json_abi_v3_12_0@nlohmann@@@std@@@std@@@std@@QAEPAU?$_Tree_node@U?$pair@$$CBV?$basic_string@DU?$char_traits@D@std@@V?$allocator@D@2@@std@@V?$basic_json@Vmap@std@@Vvector@2@V?$basic_string@DU?$char_traits@D@std@@V?$allocator@D@2@@2@_N_J_KNVallocator@2@Uadl_serializer@json_abi_v3_12_0@nlohmann@@V?$vector@EV?$allocator@E@std@@@2@X@json_abi_v3_12_0@nlohmann@@@std@@PAX@2@V?$_Tree_unchecked_const_iterator@V?$_Tree_val@U?$_Tree_simple_types@U?$pair@$$CBV?$basic_string@DU?$char_traits@D@std@@V?$allocator@D@2@@std@@V?$basic_json@Vmap@std@@Vvector@2@V?$basic_string@DU?$char_traits@D@std@@V?$allocator@D@2@@2@_N_J_KNVallocator@2@Uadl_serializer@json_abi_v3_12_0@nlohmann@@V?$vector@EV?$allocator@E@std@@@2@X@json_abi_v3_12_0@nlohmann@@@std@@@std@@@std@@U_Iterator_base0@2@@2@@Z 100365e0 f i RTXLevelProperties.obj
 0001:00035900       ?_Forced_rehash@?$_Hash@V?$_Umap_traits@V?$basic_string@DU?$char_traits@D@std@@V?$allocator@D@2@@std@@V12@V?$_Uhash_compare@V?$basic_string@DU?$char_traits@D@std@@V?$allocator@D@2@@std@@U?$hash@V?$basic_string@DU?$char_traits@D@std@@V?$allocator@D@2@@std@@@2@U?$equal_to@V?$basic_string@DU?$char_traits@D@std@@V?$allocator@D@2@@std@@@2@@2@V?$allocator@U?$pair@$$CBV?$basic_string@DU?$char_traits@D@std@@V?$allocator@D@2@@std@@V12@@std@@@2@$0A@@std@@@std@@IAEXI@Z 10036900 f i RTXLevelProperties.obj
 0001:00035bd0       ?_Forced_rehash@?$_Hash@V?$_Uset_traits@V?$basic_string@GU?$char_traits@G@std@@V?$allocator@G@2@@std@@V?$_Uhash_compare@V?$basic_string@GU?$char_traits@G@std@@V?$allocator@G@2@@std@@U?$hash@V?$basic_string@GU?$char_traits@G@std@@V?$allocator@G@2@@std@@@2@U?$equal_to@V?$basic_string@GU?$char_traits@G@std@@V?$allocator@G@2@@std@@@2@@2@V?$allocator@V?$basic_string@GU?$char_traits@G@std@@V?$allocator@G@2@@std@@@2@$0A@@std@@@std@@IAEXI@Z 10036bd0 f i RTXLevelProperties.obj
 0001:00035dd0       ?_Get_deleter@_Ref_count_base@std@@UBEPAXABVtype_info@@@Z 10036dd0 f i RTXLevelProperties.obj
 0001:00035de0       ?_Init@?$basic_filebuf@DU?$char_traits@D@std@@@std@@IAEXPAU_iobuf@@W4_Initfl@12@@Z 10036de0 f i RTXLevelProperties.obj
 0001:00035f00       ?_Initcvt@?$basic_filebuf@DU?$char_traits@D@std@@@std@@IAEXABV?$codecvt@DDU_Mbstatet@@@2@@Z 10036f00 f i RTXLevelProperties.obj
 0001:00035f90       ?_Insert_node@?$_Tree_val@U?$_Tree_simple_types@U?$pair@$$CBV?$basic_string@DU?$char_traits@D@std@@V?$allocator@D@2@@std@@V?$basic_json@Vmap@std@@Vvector@2@V?$basic_string@DU?$char_traits@D@std@@V?$allocator@D@2@@2@_N_J_KNVallocator@2@Uadl_serializer@json_abi_v3_12_0@nlohmann@@V?$vector@EV?$allocator@E@std@@@2@X@json_abi_v3_12_0@nlohmann@@@std@@@std@@@std@@QAEPAU?$_Tree_node@U?$pair@$$CBV?$basic_string@DU?$char_traits@D@std@@V?$allocator@D@2@@std@@V?$basic_json@Vmap@std@@Vvector@2@V?$basic_string@DU?$char_traits@D@std@@V?$allocator@D@2@@2@_N_J_KNVallocator@2@Uadl_serializer@json_abi_v3_12_0@nlohmann@@V?$vector@EV?$allocator@E@std@@@2@X@json_abi_v3_12_0@nlohmann@@@std@@PAX@2@U?$_Tree_id@PAU?$_Tree_node@U?$pair@$$CBV?$basic_string@DU?$char_traits@D@std@@V?$allocator@D@2@@std@@V?$basic_json@Vmap@std@@Vvector@2@V?$basic_string@DU?$char_traits@D@std@@V?$allocator@D@2@@2@_N_J_KNVallocator@2@Uadl_serializer@json_abi_v3_12_0@nlohmann@@V?$vector@EV?$allocator@E@std@@@2@X@json_abi_v3_12_0@nlohmann@@@std@@PAX@std@@@2@QAU32@@Z 10036f90 f i RTXLevelProperties.obj
 0001:00036180       ?_Insert_x@?$vector@_NV?$allocator@_N@std@@@std@@QAEIV?$_Vb_const_iterator@U?$_Wrap_alloc@V?$allocator@I@std@@@std@@@2@I@Z 10037180 f i RTXLevelProperties.obj
 0001:00036330       ?_Lock@?$basic_filebuf@DU?$char_traits@D@std@@@std@@UAEXXZ 10037330 f i RTXLevelProperties.obj
 0001:00036340       ?_Lrotate@?$_Tree_val@U?$_Tree_simple_types@U?$pair@$$CBV?$basic_string@DU?$char_traits@D@std@@V?$allocator@D@2@@std@@V?$basic_json@Vmap@std@@Vvector@2@V?$basic_string@DU?$char_traits@D@std@@V?$allocator@D@2@@2@_N_J_KNVallocator@2@Uadl_serializer@json_abi_v3_12_0@nlohmann@@V?$vector@EV?$allocator@E@std@@@2@X@json_abi_v3_12_0@nlohmann@@@std@@@std@@@std@@QAEXPAU?$_Tree_node@U?$pair@$$CBV?$basic_string@DU?$char_traits@D@std@@V?$allocator@D@2@@std@@V?$basic_json@Vmap@std@@Vvector@2@V?$basic_string@DU?$char_traits@D@std@@V?$allocator@D@2@@2@_N_J_KNVallocator@2@Uadl_serializer@json_abi_v3_12_0@nlohmann@@V?$vector@EV?$allocator@E@std@@@2@X@json_abi_v3_12_0@nlohmann@@@std@@PAX@2@@Z 10037340 f i RTXLevelProperties.obj
 0001:000363a0       ?_Reset_back@?$basic_filebuf@DU?$char_traits@D@std@@@std@@AAEXXZ 100373a0 f i RTXLevelProperties.obj
 0001:000363d0       ?_Rrotate@?$_Tree_val@U?$_Tree_simple_types@U?$pair@$$CBV?$basic_string@DU?$char_traits@D@std@@V?$allocator@D@2@@std@@V?$basic_json@Vmap@std@@Vvector@2@V?$basic_string@DU?$char_traits@D@std@@V?$allocator@D@2@@2@_N_J_KNVallocator@2@Uadl_serializer@json_abi_v3_12_0@nlohmann@@V?$vector@EV?$allocator@E@std@@@2@X@json_abi_v3_12_0@nlohmann@@@std@@@std@@@std@@QAEXPAU?$_Tree_node@U?$pair@$$CBV?$basic_string@DU?$char_traits@D@std@@V?$allocator@D@2@@std@@V?$basic_json@Vmap@std@@Vvector@2@V?$basic_string@DU?$char_traits@D@std@@V?$allocator@D@2@@2@_N_J_KNVallocator@2@Uadl_serializer@json_abi_v3_12_0@nlohmann@@V?$vector@EV?$allocator@E@std@@@2@X@json_abi_v3_12_0@nlohmann@@@std@@PAX@2@@Z 100373d0 f i RTXLevelProperties.obj
 0001:00036430       ?_Tidy@?$vector@EV?$allocator@E@std@@@std@@AAEXXZ 10037430 f i RTXLevelProperties.obj
 0001:000364c0       ?_Tidy@?$vector@V?$basic_json@Vmap@std@@Vvector@2@V?$basic_string@DU?$char_traits@D@std@@V?$allocator@D@2@@2@_N_J_KNVallocator@2@Uadl_serializer@json_abi_v3_12_0@nlohmann@@V?$vector@EV?$allocator@E@std@@@2@X@json_abi_v3_12_0@nlohmann@@V?$allocator@V?$basic_json@Vmap@std@@Vvector@2@V?$basic_string@DU?$char_traits@D@std@@V?$allocator@D@2@@2@_N_J_KNVallocator@2@Uadl_serializer@json_abi_v3_12_0@nlohmann@@V?$vector@EV?$allocator@E@std@@@2@X@json_abi_v3_12_0@nlohmann@@@std@@@std@@AAEXXZ 100374c0 f i RTXLevelProperties.obj
 0001:00036570       ?_Unchecked_erase@?$_Hash@V?$_Umap_traits@V?$basic_string@DU?$char_traits@D@std@@V?$allocator@D@2@@std@@V12@V?$_Uhash_compare@V?$basic_string@DU?$char_traits@D@std@@V?$allocator@D@2@@std@@U?$hash@V?$basic_string@DU?$char_traits@D@std@@V?$allocator@D@2@@std@@@2@U?$equal_to@V?$basic_string@DU?$char_traits@D@std@@V?$allocator@D@2@@std@@@2@@2@V?$allocator@U?$pair@$$CBV?$basic_string@DU?$char_traits@D@std@@V?$allocator@D@2@@std@@V12@@std@@@2@$0A@@std@@@std@@AAEPAU?$_List_node@U?$pair@$$CBV?$basic_string@DU?$char_traits@D@std@@V?$allocator@D@2@@std@@V12@@std@@PAX@2@PAU32@QAU32@@Z 10037570 f i RTXLevelProperties.obj
 0001:00036730       ?_Unlock@?$basic_filebuf@DU?$char_traits@D@std@@@std@@UAEXXZ 10037730 f i RTXLevelProperties.obj
 0001:00036740       ?_Xlen@?$vector@_NV?$allocator@_N@std@@@std@@SAXXZ 10037740 f i RTXLevelProperties.obj
 0001:00036750       ?_Xlength@?$vector@DV?$allocator@D@std@@@std@@CAXXZ 10037750 f i RTXLevelProperties.obj
 0001:00036760       ?_Xlength@?$vector@EV?$allocator@E@std@@@std@@CAXXZ 10037760 f i RTXLevelProperties.obj
 0001:00036770       ?_Xlength@?$vector@IV?$allocator@I@std@@@std@@CAXXZ 10037770 f i RTXLevelProperties.obj
 0001:00036780       ?_Xlength@?$vector@PAV?$basic_json@Vmap@std@@Vvector@2@V?$basic_string@DU?$char_traits@D@std@@V?$allocator@D@2@@2@_N_J_KNVallocator@2@Uadl_serializer@json_abi_v3_12_0@nlohmann@@V?$vector@EV?$allocator@E@std@@@2@X@json_abi_v3_12_0@nlohmann@@V?$allocator@PAV?$basic_json@Vmap@std@@Vvector@2@V?$basic_string@DU?$char_traits@D@std@@V?$allocator@D@2@@2@_N_J_KNVallocator@2@Uadl_serializer@json_abi_v3_12_0@nlohmann@@V?$vector@EV?$allocator@E@std@@@2@X@json_abi_v3_12_0@nlohmann@@@std@@@std@@CAXXZ 10037780 f i RTXLevelProperties.obj
 0001:00036790       ?_Xlength@?$vector@V?$basic_json@Vmap@std@@Vvector@2@V?$basic_string@DU?$char_traits@D@std@@V?$allocator@D@2@@2@_N_J_KNVallocator@2@Uadl_serializer@json_abi_v3_12_0@nlohmann@@V?$vector@EV?$allocator@E@std@@@2@X@json_abi_v3_12_0@nlohmann@@V?$allocator@V?$basic_json@Vmap@std@@Vvector@2@V?$basic_string@DU?$char_traits@D@std@@V?$allocator@D@2@@2@_N_J_KNVallocator@2@Uadl_serializer@json_abi_v3_12_0@nlohmann@@V?$vector@EV?$allocator@E@std@@@2@X@json_abi_v3_12_0@nlohmann@@@std@@@std@@CAXXZ 10037790 f i RTXLevelProperties.obj
 0001:000367a0       ?_Xlength@?$vector@V?$basic_string@DU?$char_traits@D@std@@V?$allocator@D@2@@std@@V?$allocator@V?$basic_string@DU?$char_traits@D@std@@V?$allocator@D@2@@std@@@2@@std@@CAXXZ 100377a0 f i RTXLevelProperties.obj
 0001:000367b0       ?_Xlength@?$vector@V?$unique_ptr@VRTXAnchor@@U?$default_delete@VRTXAnchor@@@std@@@std@@V?$allocator@V?$unique_ptr@VRTXAnchor@@U?$default_delete@VRTXAnchor@@@std@@@std@@@2@@std@@CAXXZ 100377b0 f i RTXLevelProperties.obj
 0001:000367c0       ?_Xrange@?$vector@V?$basic_json@Vmap@std@@Vvector@2@V?$basic_string@DU?$char_traits@D@std@@V?$allocator@D@2@@2@_N_J_KNVallocator@2@Uadl_serializer@json_abi_v3_12_0@nlohmann@@V?$vector@EV?$allocator@E@std@@@2@X@json_abi_v3_12_0@nlohmann@@V?$allocator@V?$basic_json@Vmap@std@@Vvector@2@V?$basic_string@DU?$char_traits@D@std@@V?$allocator@D@2@@2@_N_J_KNVallocator@2@Uadl_serializer@json_abi_v3_12_0@nlohmann@@V?$vector@EV?$allocator@E@std@@@2@X@json_abi_v3_12_0@nlohmann@@@std@@@std@@CAXXZ 100377c0 f i RTXLevelProperties.obj
 0001:000367d0       ?assign@?$basic_string@DU?$char_traits@D@std@@V?$allocator@D@2@@std@@QAEAAV12@QBDI@Z 100377d0 f i RTXLevelProperties.obj
 0001:000368d0       ?at@?$basic_json@Vmap@std@@Vvector@2@V?$basic_string@DU?$char_traits@D@std@@V?$allocator@D@2@@2@_N_J_KNVallocator@2@Uadl_serializer@json_abi_v3_12_0@nlohmann@@V?$vector@EV?$allocator@E@std@@@2@X@json_abi_v3_12_0@nlohmann@@QBEABV123@I@Z 100378d0 f i RTXLevelProperties.obj
 0001:000369e0       ?at@?$vector@V?$basic_json@Vmap@std@@Vvector@2@V?$basic_string@DU?$char_traits@D@std@@V?$allocator@D@2@@2@_N_J_KNVallocator@2@Uadl_serializer@json_abi_v3_12_0@nlohmann@@V?$vector@EV?$allocator@E@std@@@2@X@json_abi_v3_12_0@nlohmann@@V?$allocator@V?$basic_json@Vmap@std@@Vvector@2@V?$basic_string@DU?$char_traits@D@std@@V?$allocator@D@2@@2@_N_J_KNVallocator@2@Uadl_serializer@json_abi_v3_12_0@nlohmann@@V?$vector@EV?$allocator@E@std@@@2@X@json_abi_v3_12_0@nlohmann@@@std@@@std@@QAEAAV?$basic_json@Vmap@std@@Vvector@2@V?$basic_string@DU?$char_traits@D@std@@V?$allocator@D@2@@2@_N_J_KNVallocator@2@Uadl_serializer@json_abi_v3_12_0@nlohmann@@V?$vector@EV?$allocator@E@std@@@2@X@json_abi_v3_12_0@nlohmann@@I@Z 100379e0 f i RTXLevelProperties.obj
 0001:00036a20       ?back@?$basic_string@DU?$char_traits@D@std@@V?$allocator@D@2@@std@@QBEABDXZ 10037a20 f i RTXLevelProperties.obj
 0001:00036a40       ?back@?$vector@PAV?$basic_json@Vmap@std@@Vvector@2@V?$basic_string@DU?$char_traits@D@std@@V?$allocator@D@2@@2@_N_J_KNVallocator@2@Uadl_serializer@json_abi_v3_12_0@nlohmann@@V?$vector@EV?$allocator@E@std@@@2@X@json_abi_v3_12_0@nlohmann@@V?$allocator@PAV?$basic_json@Vmap@std@@Vvector@2@V?$basic_string@DU?$char_traits@D@std@@V?$allocator@D@2@@2@_N_J_KNVallocator@2@Uadl_serializer@json_abi_v3_12_0@nlohmann@@V?$vector@EV?$allocator@E@std@@@2@X@json_abi_v3_12_0@nlohmann@@@std@@@std@@QAEAAPAV?$basic_json@Vmap@std@@Vvector@2@V?$basic_string@DU?$char_traits@D@std@@V?$allocator@D@2@@2@_N_J_KNVallocator@2@Uadl_serializer@json_abi_v3_12_0@nlohmann@@V?$vector@EV?$allocator@E@std@@@2@X@json_abi_v3_12_0@nlohmann@@XZ 10037a40 f i RTXLevelProperties.obj
 0001:00036a50       ?back@?$vector@_NV?$allocator@_N@std@@@std@@QAE?AV?$_Vb_reference@U?$_Wrap_alloc@V?$allocator@I@std@@@std@@@2@XZ 10037a50 f i RTXLevelProperties.obj
 0001:00036ad0       ?begin@?$basic_json@Vmap@std@@Vvector@2@V?$basic_string@DU?$char_traits@D@std@@V?$allocator@D@2@@2@_N_J_KNVallocator@2@Uadl_serializer@json_abi_v3_12_0@nlohmann@@V?$vector@EV?$allocator@E@std@@@2@X@json_abi_v3_12_0@nlohmann@@QAE?AV?$iter_impl@V?$basic_json@Vmap@std@@Vvector@2@V?$basic_string@DU?$char_traits@D@std@@V?$allocator@D@2@@2@_N_J_KNVallocator@2@Uadl_serializer@json_abi_v3_12_0@nlohmann@@V?$vector@EV?$allocator@E@std@@@2@X@json_abi_v3_12_0@nlohmann@@@detail@23@XZ 10037ad0 f i RTXLevelProperties.obj
 0001:00036b90       ?begin@?$iteration_proxy@V?$iter_impl@V?$basic_json@Vmap@std@@Vvector@2@V?$basic_string@DU?$char_traits@D@std@@V?$allocator@D@2@@2@_N_J_KNVallocator@2@Uadl_serializer@json_abi_v3_12_0@nlohmann@@V?$vector@EV?$allocator@E@std@@@2@X@json_abi_v3_12_0@nlohmann@@@detail@json_abi_v3_12_0@nlohmann@@@detail@json_abi_v3_12_0@nlohmann@@QBE?AV?$iteration_proxy_value@V?$iter_impl@V?$basic_json@Vmap@std@@Vvector@2@V?$basic_string@DU?$char_traits@D@std@@V?$allocator@D@2@@2@_N_J_KNVallocator@2@Uadl_serializer@json_abi_v3_12_0@nlohmann@@V?$vector@EV?$allocator@E@std@@@2@X@json_abi_v3_12_0@nlohmann@@@detail@json_abi_v3_12_0@nlohmann@@@234@XZ 10037b90 f i RTXLevelProperties.obj
 0001:00036c40       ?boolean@?$json_sax_dom_parser@V?$basic_json@Vmap@std@@Vvector@2@V?$basic_string@DU?$char_traits@D@std@@V?$allocator@D@2@@2@_N_J_KNVallocator@2@Uadl_serializer@json_abi_v3_12_0@nlohmann@@V?$vector@EV?$allocator@E@std@@@2@X@json_abi_v3_12_0@nlohmann@@Vinput_stream_adapter@detail@23@@detail@json_abi_v3_12_0@nlohmann@@QAE_N_N@Z 10037c40 f i RTXLevelProperties.obj
 0001:00036db0       ?count_digits@?$serializer@V?$basic_json@Vmap@std@@Vvector@2@V?$basic_string@DU?$char_traits@D@std@@V?$allocator@D@2@@2@_N_J_KNVallocator@2@Uadl_serializer@json_abi_v3_12_0@nlohmann@@V?$vector@EV?$allocator@E@std@@@2@X@json_abi_v3_12_0@nlohmann@@@detail@json_abi_v3_12_0@nlohmann@@AAEI_K@Z 10037db0 f i RTXLevelProperties.obj
 0001:00036eb0       ?deallocate@?$allocator@I@std@@QAEXQAII@Z 10037eb0 f i RTXLevelProperties.obj
 0001:00036f30       ?deallocate@?$allocator@PAV?$basic_json@Vmap@std@@Vvector@2@V?$basic_string@DU?$char_traits@D@std@@V?$allocator@D@2@@2@_N_J_KNVallocator@2@Uadl_serializer@json_abi_v3_12_0@nlohmann@@V?$vector@EV?$allocator@E@std@@@2@X@json_abi_v3_12_0@nlohmann@@@std@@QAEXQAPAV?$basic_json@Vmap@std@@Vvector@2@V?$basic_string@DU?$char_traits@D@std@@V?$allocator@D@2@@2@_N_J_KNVallocator@2@Uadl_serializer@json_abi_v3_12_0@nlohmann@@V?$vector@EV?$allocator@E@std@@@2@X@json_abi_v3_12_0@nlohmann@@I@Z 10037f30 f i RTXLevelProperties.obj
 0001:00036fb0       ?deallocate@?$allocator@U?$_List_node@U?$pair@$$CBV?$basic_string@DU?$char_traits@D@std@@V?$allocator@D@2@@std@@V12@@std@@PAX@std@@@std@@QAEXQAU?$_List_node@U?$pair@$$CBV?$basic_string@DU?$char_traits@D@std@@V?$allocator@D@2@@std@@V12@@std@@PAX@2@I@Z 10037fb0 f i RTXLevelProperties.obj
 0001:00037030       ?deallocate@?$allocator@V?$basic_json@Vmap@std@@Vvector@2@V?$basic_string@DU?$char_traits@D@std@@V?$allocator@D@2@@2@_N_J_KNVallocator@2@Uadl_serializer@json_abi_v3_12_0@nlohmann@@V?$vector@EV?$allocator@E@std@@@2@X@json_abi_v3_12_0@nlohmann@@@std@@QAEXQAV?$basic_json@Vmap@std@@Vvector@2@V?$basic_string@DU?$char_traits@D@std@@V?$allocator@D@2@@2@_N_J_KNVallocator@2@Uadl_serializer@json_abi_v3_12_0@nlohmann@@V?$vector@EV?$allocator@E@std@@@2@X@json_abi_v3_12_0@nlohmann@@I@Z 10038030 f i RTXLevelProperties.obj
 0001:000370b0       ?deallocate@?$allocator@V?$basic_string@DU?$char_traits@D@std@@V?$allocator@D@2@@std@@@std@@QAEXQAV?$basic_string@DU?$char_traits@D@std@@V?$allocator@D@2@@2@I@Z 100380b0 f i RTXLevelProperties.obj
 0001:00037130       ?deallocate@?$allocator@V?$unique_ptr@VRTXAnchor@@U?$default_delete@VRTXAnchor@@@std@@@std@@@std@@QAEXQAV?$unique_ptr@VRTXAnchor@@U?$default_delete@VRTXAnchor@@@std@@@2@I@Z 10038130 f i RTXLevelProperties.obj
 0001:000371b0       ?destroy@json_value@?$basic_json@Vmap@std@@Vvector@2@V?$basic_string@DU?$char_traits@D@std@@V?$allocator@D@2@@2@_N_J_KNVallocator@2@Uadl_serializer@json_abi_v3_12_0@nlohmann@@V?$vector@EV?$allocator@E@std@@@2@X@json_abi_v3_12_0@nlohmann@@QAEXW4value_t@detail@34@@Z 100381b0 f i RTXLevelProperties.obj
 0001:00037510       ?do_always_noconv@?$codecvt@DDU_Mbstatet@@@std@@MBE_NXZ 10038510 f i RTXLevelProperties.obj
 0001:00037520       ?do_always_noconv@codecvt_base@std@@MBE_NXZ 10038520 f i RTXLevelProperties.obj
 0001:00037530       ?do_encoding@codecvt_base@std@@MBEHXZ 10038530 f i RTXLevelProperties.obj
 0001:00037540       ?do_in@?$codecvt@DDU_Mbstatet@@@std@@MBEHAAU_Mbstatet@@PBD1AAPBDPAD3AAPAD@Z 10038540 f i RTXLevelProperties.obj
 0001:00037560       ?do_length@?$codecvt@DDU_Mbstatet@@@std@@MBEHAAU_Mbstatet@@PBD1I@Z 10038560 f i RTXLevelProperties.obj
 0001:00037580       ?do_max_length@codecvt_base@std@@MBEHXZ 10038580 f i RTXLevelProperties.obj
 0001:00037590       ?do_out@?$codecvt@DDU_Mbstatet@@@std@@MBEHAAU_Mbstatet@@PBD1AAPBDPAD3AAPAD@Z 10038590 f i RTXLevelProperties.obj
 0001:000375b0       ?do_unshift@?$codecvt@DDU_Mbstatet@@@std@@MBEHAAU_Mbstatet@@PAD1AAPAD@Z 100385b0 f i RTXLevelProperties.obj
 0001:000375d0       ?dump@?$basic_json@Vmap@std@@Vvector@2@V?$basic_string@DU?$char_traits@D@std@@V?$allocator@D@2@@2@_N_J_KNVallocator@2@Uadl_serializer@json_abi_v3_12_0@nlohmann@@V?$vector@EV?$allocator@E@std@@@2@X@json_abi_v3_12_0@nlohmann@@QBE?AV?$basic_string@DU?$char_traits@D@std@@V?$allocator@D@2@@std@@HD_NW4error_handler_t@detail@23@@Z 100385d0 f i RTXLevelProperties.obj
 0001:00037920       ?dump@?$serializer@V?$basic_json@Vmap@std@@Vvector@2@V?$basic_string@DU?$char_traits@D@std@@V?$allocator@D@2@@2@_N_J_KNVallocator@2@Uadl_serializer@json_abi_v3_12_0@nlohmann@@V?$vector@EV?$allocator@E@std@@@2@X@json_abi_v3_12_0@nlohmann@@@detail@json_abi_v3_12_0@nlohmann@@QAEXABV?$basic_json@Vmap@std@@Vvector@2@V?$basic_string@DU?$char_traits@D@std@@V?$allocator@D@2@@2@_N_J_KNVallocator@2@Uadl_serializer@json_abi_v3_12_0@nlohmann@@V?$vector@EV?$allocator@E@std@@@2@X@34@_N1II@Z 10038920 f i RTXLevelProperties.obj
 0001:00038210       ?dump_escaped@?$serializer@V?$basic_json@Vmap@std@@Vvector@2@V?$basic_string@DU?$char_traits@D@std@@V?$allocator@D@2@@2@_N_J_KNVallocator@2@Uadl_serializer@json_abi_v3_12_0@nlohmann@@V?$vector@EV?$allocator@E@std@@@2@X@json_abi_v3_12_0@nlohmann@@@detail@json_abi_v3_12_0@nlohmann@@AAEXABV?$basic_string@DU?$char_traits@D@std@@V?$allocator@D@2@@std@@_N@Z 10039210 f i RTXLevelProperties.obj
 0001:00038670       ?end@?$basic_json@Vmap@std@@Vvector@2@V?$basic_string@DU?$char_traits@D@std@@V?$allocator@D@2@@2@_N_J_KNVallocator@2@Uadl_serializer@json_abi_v3_12_0@nlohmann@@V?$vector@EV?$allocator@E@std@@@2@X@json_abi_v3_12_0@nlohmann@@QAE?AV?$iter_impl@V?$basic_json@Vmap@std@@Vvector@2@V?$basic_string@DU?$char_traits@D@std@@V?$allocator@D@2@@2@_N_J_KNVallocator@2@Uadl_serializer@json_abi_v3_12_0@nlohmann@@V?$vector@EV?$allocator@E@std@@@2@X@json_abi_v3_12_0@nlohmann@@@detail@23@XZ 10039670 f i RTXLevelProperties.obj
 0001:00038720       ?end@?$iteration_proxy@V?$iter_impl@V?$basic_json@Vmap@std@@Vvector@2@V?$basic_string@DU?$char_traits@D@std@@V?$allocator@D@2@@2@_N_J_KNVallocator@2@Uadl_serializer@json_abi_v3_12_0@nlohmann@@V?$vector@EV?$allocator@E@std@@@2@X@json_abi_v3_12_0@nlohmann@@@detail@json_abi_v3_12_0@nlohmann@@@detail@json_abi_v3_12_0@nlohmann@@QBE?AV?$iteration_proxy_value@V?$iter_impl@V?$basic_json@Vmap@std@@Vvector@2@V?$basic_string@DU?$char_traits@D@std@@V?$allocator@D@2@@2@_N_J_KNVallocator@2@Uadl_serializer@json_abi_v3_12_0@nlohmann@@V?$vector@EV?$allocator@E@std@@@2@X@json_abi_v3_12_0@nlohmann@@@detail@json_abi_v3_12_0@nlohmann@@@234@XZ 10039720 f i RTXLevelProperties.obj
 0001:000387d0       ?end_array@?$json_sax_dom_callback_parser@V?$basic_json@Vmap@std@@Vvector@2@V?$basic_string@DU?$char_traits@D@std@@V?$allocator@D@2@@2@_N_J_KNVallocator@2@Uadl_serializer@json_abi_v3_12_0@nlohmann@@V?$vector@EV?$allocator@E@std@@@2@X@json_abi_v3_12_0@nlohmann@@Vinput_stream_adapter@detail@23@@detail@json_abi_v3_12_0@nlohmann@@QAE_NXZ 100397d0 f i RTXLevelProperties.obj
 0001:000388e0       ?end_object@?$json_sax_dom_callback_parser@V?$basic_json@Vmap@std@@Vvector@2@V?$basic_string@DU?$char_traits@D@std@@V?$allocator@D@2@@2@_N_J_KNVallocator@2@Uadl_serializer@json_abi_v3_12_0@nlohmann@@V?$vector@EV?$allocator@E@std@@@2@X@json_abi_v3_12_0@nlohmann@@Vinput_stream_adapter@detail@23@@detail@json_abi_v3_12_0@nlohmann@@QAE_NXZ 100398e0 f i RTXLevelProperties.obj
 0001:00038a50       ?erase@?$vector@_NV?$allocator@_N@std@@@std@@QAE?AV?$_Vb_iterator@U?$_Wrap_alloc@V?$allocator@I@std@@@std@@@2@V?$_Vb_const_iterator@U?$_Wrap_alloc@V?$allocator@I@std@@@std@@@2@@Z 10039a50 f i RTXLevelProperties.obj
 0001:00038bf0       ?exception_message@?$parser@V?$basic_json@Vmap@std@@Vvector@2@V?$basic_string@DU?$char_traits@D@std@@V?$allocator@D@2@@2@_N_J_KNVallocator@2@Uadl_serializer@json_abi_v3_12_0@nlohmann@@V?$vector@EV?$allocator@E@std@@@2@X@json_abi_v3_12_0@nlohmann@@Vinput_stream_adapter@detail@23@@detail@json_abi_v3_12_0@nlohmann@@AAE?AV?$basic_string@DU?$char_traits@D@std@@V?$allocator@D@2@@std@@W4token_type@?$lexer_base@V?$basic_json@Vmap@std@@Vvector@2@V?$basic_string@DU?$char_traits@D@std@@V?$allocator@D@2@@2@_N_J_KNVallocator@2@Uadl_serializer@json_abi_v3_12_0@nlohmann@@V?$vector@EV?$allocator@E@std@@@2@X@json_abi_v3_12_0@nlohmann@@@234@ABV56@@Z 10039bf0 f i RTXLevelProperties.obj
 0001:00038fe0       ?floored_mod@@YANNN@Z      10039fe0 f   RTXLevelProperties.obj
 0001:00039010       ?format_buffer@dtoa_impl@detail@json_abi_v3_12_0@nlohmann@@YAPADPADHHHH@Z 1003a010 f i RTXLevelProperties.obj
 0001:000391a0       ?from_json@@YAXABV?$basic_json@Vmap@std@@Vvector@2@V?$basic_string@DU?$char_traits@D@std@@V?$allocator@D@2@@2@_N_J_KNVallocator@2@Uadl_serializer@json_abi_v3_12_0@nlohmann@@V?$vector@EV?$allocator@E@std@@@2@X@json_abi_v3_12_0@nlohmann@@AAVFVector@@@Z 1003a1a0 f   RTXLevelProperties.obj
 0001:000391f0       ?get@?$lexer@V?$basic_json@Vmap@std@@Vvector@2@V?$basic_string@DU?$char_traits@D@std@@V?$allocator@D@2@@2@_N_J_KNVallocator@2@Uadl_serializer@json_abi_v3_12_0@nlohmann@@V?$vector@EV?$allocator@E@std@@@2@X@json_abi_v3_12_0@nlohmann@@Vinput_stream_adapter@detail@23@@detail@json_abi_v3_12_0@nlohmann@@AAEHXZ 1003a1f0 f i RTXLevelProperties.obj
 0001:000392f0       ?getHashTexBlacklist@@YA?AV?$unordered_set@V?$basic_string@GU?$char_traits@G@std@@V?$allocator@G@2@@std@@U?$hash@V?$basic_string@GU?$char_traits@G@std@@V?$allocator@G@2@@std@@@2@U?$equal_to@V?$basic_string@GU?$char_traits@G@std@@V?$allocator@G@2@@std@@@2@V?$allocator@V?$basic_string@GU?$char_traits@G@std@@V?$allocator@G@2@@std@@@2@@std@@XZ 1003a2f0 f   RTXLevelProperties.obj
 0001:000395c0       ?get_codepoint@?$lexer@V?$basic_json@Vmap@std@@Vvector@2@V?$basic_string@DU?$char_traits@D@std@@V?$allocator@D@2@@2@_N_J_KNVallocator@2@Uadl_serializer@json_abi_v3_12_0@nlohmann@@V?$vector@EV?$allocator@E@std@@@2@X@json_abi_v3_12_0@nlohmann@@Vinput_stream_adapter@detail@23@@detail@json_abi_v3_12_0@nlohmann@@AAEHXZ 1003a5c0 f i RTXLevelProperties.obj
 0001:00039760       ?get_string@?$lexer@V?$basic_json@Vmap@std@@Vvector@2@V?$basic_string@DU?$char_traits@D@std@@V?$allocator@D@2@@2@_N_J_KNVallocator@2@Uadl_serializer@json_abi_v3_12_0@nlohmann@@V?$vector@EV?$allocator@E@std@@@2@X@json_abi_v3_12_0@nlohmann@@Vinput_stream_adapter@detail@23@@detail@json_abi_v3_12_0@nlohmann@@QAEAAV?$basic_string@DU?$char_traits@D@std@@V?$allocator@D@2@@std@@XZ 1003a760 f i RTXLevelProperties.obj
 0001:00039790       ?get_token_string@?$lexer@V?$basic_json@Vmap@std@@Vvector@2@V?$basic_string@DU?$char_traits@D@std@@V?$allocator@D@2@@2@_N_J_KNVallocator@2@Uadl_serializer@json_abi_v3_12_0@nlohmann@@V?$vector@EV?$allocator@E@std@@@2@X@json_abi_v3_12_0@nlohmann@@Vinput_stream_adapter@detail@23@@detail@json_abi_v3_12_0@nlohmann@@QBE?AV?$basic_string@DU?$char_traits@D@std@@V?$allocator@D@2@@std@@XZ 1003a790 f i RTXLevelProperties.obj
 0001:000399a0       ?grisu2_digit_gen@dtoa_impl@detail@json_abi_v3_12_0@nlohmann@@YAXPADAAH1Udiyfp@1234@22@Z 1003a9a0 f i RTXLevelProperties.obj
 0001:00039d00       ?grisu2_round@dtoa_impl@detail@json_abi_v3_12_0@nlohmann@@YAXPADH_K111@Z 1003ad00 f i RTXLevelProperties.obj
 0001:00039db0       ?hex_bytes@?$serializer@V?$basic_json@Vmap@std@@Vvector@2@V?$basic_string@DU?$char_traits@D@std@@V?$allocator@D@2@@2@_N_J_KNVallocator@2@Uadl_serializer@json_abi_v3_12_0@nlohmann@@V?$vector@EV?$allocator@E@std@@@2@X@json_abi_v3_12_0@nlohmann@@@detail@json_abi_v3_12_0@nlohmann@@CA?AV?$basic_string@DU?$char_traits@D@std@@V?$allocator@D@2@@std@@E@Z 1003adb0 f i RTXLevelProperties.obj
 0001:00039e80       ?imbue@?$basic_filebuf@DU?$char_traits@D@std@@@std@@MAEXABVlocale@2@@Z 1003ae80 f i RTXLevelProperties.obj
 0001:00039ea0       ?input_adapter@detail@json_abi_v3_12_0@nlohmann@@YA?AVinput_stream_adapter@123@AAV?$basic_istream@DU?$char_traits@D@std@@@std@@@Z 1003aea0 f i RTXLevelProperties.obj
 0001:00039f00       ?key@?$json_sax_dom_callback_parser@V?$basic_json@Vmap@std@@Vvector@2@V?$basic_string@DU?$char_traits@D@std@@V?$allocator@D@2@@2@_N_J_KNVallocator@2@Uadl_serializer@json_abi_v3_12_0@nlohmann@@V?$vector@EV?$allocator@E@std@@@2@X@json_abi_v3_12_0@nlohmann@@Vinput_stream_adapter@detail@23@@detail@json_abi_v3_12_0@nlohmann@@QAE_NAAV?$basic_string@DU?$char_traits@D@std@@V?$allocator@D@2@@std@@@Z 1003af00 f i RTXLevelProperties.obj
 0001:00039ff0       ?key@?$json_sax_dom_parser@V?$basic_json@Vmap@std@@Vvector@2@V?$basic_string@DU?$char_traits@D@std@@V?$allocator@D@2@@2@_N_J_KNVallocator@2@Uadl_serializer@json_abi_v3_12_0@nlohmann@@V?$vector@EV?$allocator@E@std@@@2@X@json_abi_v3_12_0@nlohmann@@Vinput_stream_adapter@detail@23@@detail@json_abi_v3_12_0@nlohmann@@QAE_NAAV?$basic_string@DU?$char_traits@D@std@@V?$allocator@D@2@@std@@@Z 1003aff0 f i RTXLevelProperties.obj
 0001:0003a020       ?loadAnchorsArray@@YAXAAV?$basic_json@Vmap@std@@Vvector@2@V?$basic_string@DU?$char_traits@D@std@@V?$allocator@D@2@@2@_N_J_KNVallocator@2@Uadl_serializer@json_abi_v3_12_0@nlohmann@@V?$vector@EV?$allocator@E@std@@@2@X@json_abi_v3_12_0@nlohmann@@ABV?$basic_string@DU?$char_traits@D@std@@V?$allocator@D@2@@std@@AAV?$vector@V?$unique_ptr@VRTXAnchor@@U?$default_delete@VRTXAnchor@@@std@@@std@@V?$allocator@V?$unique_ptr@VRTXAnchor@@U?$default_delete@VRTXAnchor@@@std@@@std@@@2@@5@@Z 1003b020 f   RTXLevelProperties.obj
 0001:0003be20       ?loadConfigFile@@YA?AV?$basic_json@Vmap@std@@Vvector@2@V?$basic_string@DU?$char_traits@D@std@@V?$allocator@D@2@@2@_N_J_KNVallocator@2@Uadl_serializer@json_abi_v3_12_0@nlohmann@@V?$vector@EV?$allocator@E@std@@@2@X@json_abi_v3_12_0@nlohmann@@XZ 1003ce20 f   RTXLevelProperties.obj
 0001:0003c0f0       ?loadConfigVars@@YAXAAV?$basic_json@Vmap@std@@Vvector@2@V?$basic_string@DU?$char_traits@D@std@@V?$allocator@D@2@@2@_N_J_KNVallocator@2@Uadl_serializer@json_abi_v3_12_0@nlohmann@@V?$vector@EV?$allocator@E@std@@@2@X@json_abi_v3_12_0@nlohmann@@ABV?$basic_string@DU?$char_traits@D@std@@V?$allocator@D@2@@std@@AAV?$unordered_map@V?$basic_string@DU?$char_traits@D@std@@V?$allocator@D@2@@std@@V12@U?$hash@V?$basic_string@DU?$char_traits@D@std@@V?$allocator@D@2@@std@@@2@U?$equal_to@V?$basic_string@DU?$char_traits@D@std@@V?$allocator@D@2@@std@@@2@V?$allocator@U?$pair@$$CBV?$basic_string@DU?$char_traits@D@std@@V?$allocator@D@2@@std@@V12@@std@@@2@@5@@Z 1003d0f0 f   RTXLevelProperties.obj
 0001:0003c650       ?loadLevelJson@@YAXPBDAAV?$vector@V?$unique_ptr@VRTXAnchor@@U?$default_delete@VRTXAnchor@@@std@@@std@@V?$allocator@V?$unique_ptr@VRTXAnchor@@U?$default_delete@VRTXAnchor@@@std@@@std@@@2@@std@@AAV?$unordered_map@V?$basic_string@DU?$char_traits@D@std@@V?$allocator@D@2@@std@@V12@U?$hash@V?$basic_string@DU?$char_traits@D@std@@V?$allocator@D@2@@std@@@2@U?$equal_to@V?$basic_string@DU?$char_traits@D@std@@V?$allocator@D@2@@std@@@2@V?$allocator@U?$pair@$$CBV?$basic_string@DU?$char_traits@D@std@@V?$allocator@D@2@@std@@V12@@std@@@2@@2@@Z 1003d650 f   RTXLevelProperties.obj
 0001:0003cbe0       ?max_size@?$basic_json@Vmap@std@@Vvector@2@V?$basic_string@DU?$char_traits@D@std@@V?$allocator@D@2@@2@_N_J_KNVallocator@2@Uadl_serializer@json_abi_v3_12_0@nlohmann@@V?$vector@EV?$allocator@E@std@@@2@X@json_abi_v3_12_0@nlohmann@@QBEIXZ 1003dbe0 f i RTXLevelProperties.obj
 0001:0003cc70       ?mul@diyfp@dtoa_impl@detail@json_abi_v3_12_0@nlohmann@@SA?AU12345@ABU12345@0@Z 1003dc70 f i RTXLevelProperties.obj
 0001:0003cd10       ?name@exception@detail@json_abi_v3_12_0@nlohmann@@KA?AV?$basic_string@DU?$char_traits@D@std@@V?$allocator@D@2@@std@@ABV56@H@Z 1003dd10 f i RTXLevelProperties.obj
 0001:0003cdf0       ?next_byte_in_range@?$lexer@V?$basic_json@Vmap@std@@Vvector@2@V?$basic_string@DU?$char_traits@D@std@@V?$allocator@D@2@@2@_N_J_KNVallocator@2@Uadl_serializer@json_abi_v3_12_0@nlohmann@@V?$vector@EV?$allocator@E@std@@@2@X@json_abi_v3_12_0@nlohmann@@Vinput_stream_adapter@detail@23@@detail@json_abi_v3_12_0@nlohmann@@AAE_NV?$initializer_list@H@std@@@Z 1003ddf0 f i RTXLevelProperties.obj
 0001:0003cf50       ?normalize@diyfp@dtoa_impl@detail@json_abi_v3_12_0@nlohmann@@SA?AU12345@U12345@@Z 1003df50 f i RTXLevelProperties.obj
 0001:0003cfa0       ?normalize_level_name@@YA?AV?$basic_string@DU?$char_traits@D@std@@V?$allocator@D@2@@std@@ABV12@@Z 1003dfa0 f   RTXLevelProperties.obj
 0001:0003d840       ?null@?$json_sax_dom_callback_parser@V?$basic_json@Vmap@std@@Vvector@2@V?$basic_string@DU?$char_traits@D@std@@V?$allocator@D@2@@2@_N_J_KNVallocator@2@Uadl_serializer@json_abi_v3_12_0@nlohmann@@V?$vector@EV?$allocator@E@std@@@2@X@json_abi_v3_12_0@nlohmann@@Vinput_stream_adapter@detail@23@@detail@json_abi_v3_12_0@nlohmann@@QAE_NXZ 1003e840 f i RTXLevelProperties.obj
 0001:0003d870       ?null@?$json_sax_dom_parser@V?$basic_json@Vmap@std@@Vvector@2@V?$basic_string@DU?$char_traits@D@std@@V?$allocator@D@2@@2@_N_J_KNVallocator@2@Uadl_serializer@json_abi_v3_12_0@nlohmann@@V?$vector@EV?$allocator@E@std@@@2@X@json_abi_v3_12_0@nlohmann@@Vinput_stream_adapter@detail@23@@detail@json_abi_v3_12_0@nlohmann@@QAE_NXZ 1003e870 f i RTXLevelProperties.obj
 0001:0003d980       ?number_float@?$json_sax_dom_parser@V?$basic_json@Vmap@std@@Vvector@2@V?$basic_string@DU?$char_traits@D@std@@V?$allocator@D@2@@2@_N_J_KNVallocator@2@Uadl_serializer@json_abi_v3_12_0@nlohmann@@V?$vector@EV?$allocator@E@std@@@2@X@json_abi_v3_12_0@nlohmann@@Vinput_stream_adapter@detail@23@@detail@json_abi_v3_12_0@nlohmann@@QAE_NNABV?$basic_string@DU?$char_traits@D@std@@V?$allocator@D@2@@std@@@Z 1003e980 f i RTXLevelProperties.obj
 0001:0003daa0       ?number_integer@?$json_sax_dom_parser@V?$basic_json@Vmap@std@@Vvector@2@V?$basic_string@DU?$char_traits@D@std@@V?$allocator@D@2@@2@_N_J_KNVallocator@2@Uadl_serializer@json_abi_v3_12_0@nlohmann@@V?$vector@EV?$allocator@E@std@@@2@X@json_abi_v3_12_0@nlohmann@@Vinput_stream_adapter@detail@23@@detail@json_abi_v3_12_0@nlohmann@@QAE_N_J@Z 1003eaa0 f i RTXLevelProperties.obj
 0001:0003dbc0       ?number_unsigned@?$json_sax_dom_parser@V?$basic_json@Vmap@std@@Vvector@2@V?$basic_string@DU?$char_traits@D@std@@V?$allocator@D@2@@2@_N_J_KNVallocator@2@Uadl_serializer@json_abi_v3_12_0@nlohmann@@V?$vector@EV?$allocator@E@std@@@2@X@json_abi_v3_12_0@nlohmann@@Vinput_stream_adapter@detail@23@@detail@json_abi_v3_12_0@nlohmann@@QAE_N_K@Z 1003ebc0 f i RTXLevelProperties.obj
 0001:0003dce0       ?overflow@?$basic_filebuf@DU?$char_traits@D@std@@@std@@MAEHH@Z 1003ece0 f i RTXLevelProperties.obj
 0001:0003de60       ?parse@?$parser@V?$basic_json@Vmap@std@@Vvector@2@V?$basic_string@DU?$char_traits@D@std@@V?$allocator@D@2@@2@_N_J_KNVallocator@2@Uadl_serializer@json_abi_v3_12_0@nlohmann@@V?$vector@EV?$allocator@E@std@@@2@X@json_abi_v3_12_0@nlohmann@@Vinput_stream_adapter@detail@23@@detail@json_abi_v3_12_0@nlohmann@@QAEX_NAAV?$basic_json@Vmap@std@@Vvector@2@V?$basic_string@DU?$char_traits@D@std@@V?$allocator@D@2@@2@_N_J_KNVallocator@2@Uadl_serializer@json_abi_v3_12_0@nlohmann@@V?$vector@EV?$allocator@E@std@@@2@X@34@@Z 1003ee60 f i RTXLevelProperties.obj
 0001:0003e370       ?pbackfail@?$basic_filebuf@DU?$char_traits@D@std@@@std@@MAEHH@Z 1003f370 f i RTXLevelProperties.obj
 0001:0003e420       ?pop_back@?$vector@_NV?$allocator@_N@std@@@std@@QAEXXZ 1003f420 f i RTXLevelProperties.obj
 0001:0003e4a0       ?push_back@?$basic_string@DU?$char_traits@D@std@@V?$allocator@D@2@@std@@QAEXD@Z 1003f4a0 f i RTXLevelProperties.obj
 0001:0003e5c0       ?push_back@?$vector@_NV?$allocator@_N@std@@@std@@QAEXAB_N@Z 1003f5c0 f i RTXLevelProperties.obj
 0001:0003e660       ?replace@?$basic_string@DU?$char_traits@D@std@@V?$allocator@D@2@@std@@QAEAAV12@IIQBDI@Z 1003f660 f i RTXLevelProperties.obj
 0001:0003e7d0       ?reserve@?$basic_string@DU?$char_traits@D@std@@V?$allocator@D@2@@std@@QAEXI@Z 1003f7d0 f i RTXLevelProperties.obj
 0001:0003e8d0       ?reserve@?$vector@V?$basic_json@Vmap@std@@Vvector@2@V?$basic_string@DU?$char_traits@D@std@@V?$allocator@D@2@@2@_N_J_KNVallocator@2@Uadl_serializer@json_abi_v3_12_0@nlohmann@@V?$vector@EV?$allocator@E@std@@@2@X@json_abi_v3_12_0@nlohmann@@V?$allocator@V?$basic_json@Vmap@std@@Vvector@2@V?$basic_string@DU?$char_traits@D@std@@V?$allocator@D@2@@2@_N_J_KNVallocator@2@Uadl_serializer@json_abi_v3_12_0@nlohmann@@V?$vector@EV?$allocator@E@std@@@2@X@json_abi_v3_12_0@nlohmann@@@std@@@std@@QAEXI@Z 1003f8d0 f i RTXLevelProperties.obj
 0001:0003e9c0       ?reset@?$lexer@V?$basic_json@Vmap@std@@Vvector@2@V?$basic_string@DU?$char_traits@D@std@@V?$allocator@D@2@@2@_N_J_KNVallocator@2@Uadl_serializer@json_abi_v3_12_0@nlohmann@@V?$vector@EV?$allocator@E@std@@@2@X@json_abi_v3_12_0@nlohmann@@Vinput_stream_adapter@detail@23@@detail@json_abi_v3_12_0@nlohmann@@AAEXXZ 1003f9c0 f i RTXLevelProperties.obj
 0001:0003ea50       ?resize@?$basic_string@DU?$char_traits@D@std@@V?$allocator@D@2@@std@@QAEXID@Z 1003fa50 f i RTXLevelProperties.obj
 0001:0003ea80       ?s2ws@@YA?AV?$basic_string@GU?$char_traits@G@std@@V?$allocator@G@2@@std@@ABV?$basic_string@DU?$char_traits@D@std@@V?$allocator@D@2@@2@@Z 1003fa80 f   RTXLevelProperties.obj
 0001:0003ebe0       ?scan@?$lexer@V?$basic_json@Vmap@std@@Vvector@2@V?$basic_string@DU?$char_traits@D@std@@V?$allocator@D@2@@2@_N_J_KNVallocator@2@Uadl_serializer@json_abi_v3_12_0@nlohmann@@V?$vector@EV?$allocator@E@std@@@2@X@json_abi_v3_12_0@nlohmann@@Vinput_stream_adapter@detail@23@@detail@json_abi_v3_12_0@nlohmann@@QAE?AW4token_type@?$lexer_base@V?$basic_json@Vmap@std@@Vvector@2@V?$basic_string@DU?$char_traits@D@std@@V?$allocator@D@2@@2@_N_J_KNVallocator@2@Uadl_serializer@json_abi_v3_12_0@nlohmann@@V?$vector@EV?$allocator@E@std@@@2@X@json_abi_v3_12_0@nlohmann@@@234@XZ 1003fbe0 f i RTXLevelProperties.obj
 0001:0003ef50       ?scan_comment@?$lexer@V?$basic_json@Vmap@std@@Vvector@2@V?$basic_string@DU?$char_traits@D@std@@V?$allocator@D@2@@2@_N_J_KNVallocator@2@Uadl_serializer@json_abi_v3_12_0@nlohmann@@V?$vector@EV?$allocator@E@std@@@2@X@json_abi_v3_12_0@nlohmann@@Vinput_stream_adapter@detail@23@@detail@json_abi_v3_12_0@nlohmann@@AAE_NXZ 1003ff50 f i RTXLevelProperties.obj
 0001:0003f110       ?scan_literal@?$lexer@V?$basic_json@Vmap@std@@Vvector@2@V?$basic_string@DU?$char_traits@D@std@@V?$allocator@D@2@@2@_N_J_KNVallocator@2@Uadl_serializer@json_abi_v3_12_0@nlohmann@@V?$vector@EV?$allocator@E@std@@@2@X@json_abi_v3_12_0@nlohmann@@Vinput_stream_adapter@detail@23@@detail@json_abi_v3_12_0@nlohmann@@AAE?AW4token_type@?$lexer_base@V?$basic_json@Vmap@std@@Vvector@2@V?$basic_string@DU?$char_traits@D@std@@V?$allocator@D@2@@2@_N_J_KNVallocator@2@Uadl_serializer@json_abi_v3_12_0@nlohmann@@V?$vector@EV?$allocator@E@std@@@2@X@json_abi_v3_12_0@nlohmann@@@234@PBDIW456234@@Z 10040110 f i RTXLevelProperties.obj
 0001:0003f260       ?scan_number@?$lexer@V?$basic_json@Vmap@std@@Vvector@2@V?$basic_string@DU?$char_traits@D@std@@V?$allocator@D@2@@2@_N_J_KNVallocator@2@Uadl_serializer@json_abi_v3_12_0@nlohmann@@V?$vector@EV?$allocator@E@std@@@2@X@json_abi_v3_12_0@nlohmann@@Vinput_stream_adapter@detail@23@@detail@json_abi_v3_12_0@nlohmann@@AAE?AW4token_type@?$lexer_base@V?$basic_json@Vmap@std@@Vvector@2@V?$basic_string@DU?$char_traits@D@std@@V?$allocator@D@2@@2@_N_J_KNVallocator@2@Uadl_serializer@json_abi_v3_12_0@nlohmann@@V?$vector@EV?$allocator@E@std@@@2@X@json_abi_v3_12_0@nlohmann@@@234@XZ 10040260 f i RTXLevelProperties.obj
 0001:0003f920       ?scan_string@?$lexer@V?$basic_json@Vmap@std@@Vvector@2@V?$basic_string@DU?$char_traits@D@std@@V?$allocator@D@2@@2@_N_J_KNVallocator@2@Uadl_serializer@json_abi_v3_12_0@nlohmann@@V?$vector@EV?$allocator@E@std@@@2@X@json_abi_v3_12_0@nlohmann@@Vinput_stream_adapter@detail@23@@detail@json_abi_v3_12_0@nlohmann@@AAE?AW4token_type@?$lexer_base@V?$basic_json@Vmap@std@@Vvector@2@V?$basic_string@DU?$char_traits@D@std@@V?$allocator@D@2@@2@_N_J_KNVallocator@2@Uadl_serializer@json_abi_v3_12_0@nlohmann@@V?$vector@EV?$allocator@E@std@@@2@X@json_abi_v3_12_0@nlohmann@@@234@XZ 10040920 f i RTXLevelProperties.obj
 0001:00040100       ?seekoff@?$basic_filebuf@DU?$char_traits@D@std@@@std@@MAE?AV?$fpos@U_Mbstatet@@@2@_JHH@Z 10041100 f i RTXLevelProperties.obj
 0001:000401e0       ?seekpos@?$basic_filebuf@DU?$char_traits@D@std@@@std@@MAE?AV?$fpos@U_Mbstatet@@@2@V32@H@Z 100411e0 f i RTXLevelProperties.obj
 0001:000402b0       ?setbuf@?$basic_filebuf@DU?$char_traits@D@std@@@std@@MAEPAV?$basic_streambuf@DU?$char_traits@D@std@@@2@PAD_J@Z 100412b0 f i RTXLevelProperties.obj
 0001:00040310       ?skip_whitespace@?$lexer@V?$basic_json@Vmap@std@@Vvector@2@V?$basic_string@DU?$char_traits@D@std@@V?$allocator@D@2@@2@_N_J_KNVallocator@2@Uadl_serializer@json_abi_v3_12_0@nlohmann@@V?$vector@EV?$allocator@E@std@@@2@X@json_abi_v3_12_0@nlohmann@@Vinput_stream_adapter@detail@23@@detail@json_abi_v3_12_0@nlohmann@@QAEXXZ 10041310 f i RTXLevelProperties.obj
 0001:00040440       ?start_array@?$json_sax_dom_callback_parser@V?$basic_json@Vmap@std@@Vvector@2@V?$basic_string@DU?$char_traits@D@std@@V?$allocator@D@2@@2@_N_J_KNVallocator@2@Uadl_serializer@json_abi_v3_12_0@nlohmann@@V?$vector@EV?$allocator@E@std@@@2@X@json_abi_v3_12_0@nlohmann@@Vinput_stream_adapter@detail@23@@detail@json_abi_v3_12_0@nlohmann@@QAE_NI@Z 10041440 f i RTXLevelProperties.obj
 0001:00040570       ?start_array@?$json_sax_dom_parser@V?$basic_json@Vmap@std@@Vvector@2@V?$basic_string@DU?$char_traits@D@std@@V?$allocator@D@2@@2@_N_J_KNVallocator@2@Uadl_serializer@json_abi_v3_12_0@nlohmann@@V?$vector@EV?$allocator@E@std@@@2@X@json_abi_v3_12_0@nlohmann@@Vinput_stream_adapter@detail@23@@detail@json_abi_v3_12_0@nlohmann@@QAE_NI@Z 10041570 f i RTXLevelProperties.obj
 0001:00040660       ?start_object@?$json_sax_dom_callback_parser@V?$basic_json@Vmap@std@@Vvector@2@V?$basic_string@DU?$char_traits@D@std@@V?$allocator@D@2@@2@_N_J_KNVallocator@2@Uadl_serializer@json_abi_v3_12_0@nlohmann@@V?$vector@EV?$allocator@E@std@@@2@X@json_abi_v3_12_0@nlohmann@@Vinput_stream_adapter@detail@23@@detail@json_abi_v3_12_0@nlohmann@@QAE_NI@Z 10041660 f i RTXLevelProperties.obj
 0001:00040790       ?start_object@?$json_sax_dom_parser@V?$basic_json@Vmap@std@@Vvector@2@V?$basic_string@DU?$char_traits@D@std@@V?$allocator@D@2@@2@_N_J_KNVallocator@2@Uadl_serializer@json_abi_v3_12_0@nlohmann@@V?$vector@EV?$allocator@E@std@@@2@X@json_abi_v3_12_0@nlohmann@@Vinput_stream_adapter@detail@23@@detail@json_abi_v3_12_0@nlohmann@@QAE_NI@Z 10041790 f i RTXLevelProperties.obj
 0001:00040880       ?string@?$json_sax_dom_parser@V?$basic_json@Vmap@std@@Vvector@2@V?$basic_string@DU?$char_traits@D@std@@V?$allocator@D@2@@2@_N_J_KNVallocator@2@Uadl_serializer@json_abi_v3_12_0@nlohmann@@V?$vector@EV?$allocator@E@std@@@2@X@json_abi_v3_12_0@nlohmann@@Vinput_stream_adapter@detail@23@@detail@json_abi_v3_12_0@nlohmann@@QAE_NAAV?$basic_string@DU?$char_traits@D@std@@V?$allocator@D@2@@std@@@Z 10041880 f i RTXLevelProperties.obj
 0001:00040970       ?subtype@?$byte_container_with_subtype@V?$vector@EV?$allocator@E@std@@@std@@@json_abi_v3_12_0@nlohmann@@QBE_KXZ 10041970 f i RTXLevelProperties.obj
 0001:00040990       ?sync@?$basic_filebuf@DU?$char_traits@D@std@@@std@@MAEHXZ 10041990 f i RTXLevelProperties.obj
 0001:000409c0       ?toLower@@YA?AV?$basic_string@DU?$char_traits@D@std@@V?$allocator@D@2@@std@@ABV12@@Z 100419c0 f   RTXLevelProperties.obj
 0001:00040a80       ?to_app_str@@YA?AV?$basic_string@DU?$char_traits@D@std@@V?$allocator@D@2@@std@@V12@@Z 10041a80 f i RTXLevelProperties.obj
 0001:00040b20       ?to_string@std@@YA?AV?$basic_string@DU?$char_traits@D@std@@V?$allocator@D@2@@1@I@Z 10041b20 f i RTXLevelProperties.obj
 0001:00040b80       ?token_type_name@?$lexer_base@V?$basic_json@Vmap@std@@Vvector@2@V?$basic_string@DU?$char_traits@D@std@@V?$allocator@D@2@@2@_N_J_KNVallocator@2@Uadl_serializer@json_abi_v3_12_0@nlohmann@@V?$vector@EV?$allocator@E@std@@@2@X@json_abi_v3_12_0@nlohmann@@@detail@json_abi_v3_12_0@nlohmann@@SAPBDW4token_type@1234@@Z 10041b80 f i RTXLevelProperties.obj
 0001:00040c50       ?type_name@?$basic_json@Vmap@std@@Vvector@2@V?$basic_string@DU?$char_traits@D@std@@V?$allocator@D@2@@2@_N_J_KNVallocator@2@Uadl_serializer@json_abi_v3_12_0@nlohmann@@V?$vector@EV?$allocator@E@std@@@2@X@json_abi_v3_12_0@nlohmann@@QBEPBDXZ 10041c50 f i RTXLevelProperties.obj
 0001:00040cc0       ?uflow@?$basic_filebuf@DU?$char_traits@D@std@@@std@@MAEHXZ 10041cc0 f i RTXLevelProperties.obj
 0001:00041020       ?underflow@?$basic_filebuf@DU?$char_traits@D@std@@@std@@MAEHXZ 10042020 f i RTXLevelProperties.obj
 0001:00041060       ?what@exception@detail@json_abi_v3_12_0@nlohmann@@UBEPBDXZ 10042060 f i RTXLevelProperties.obj
 0001:000410a0       ?widen@?$basic_ios@DU?$char_traits@D@std@@@std@@QBEDD@Z 100420a0 f i RTXLevelProperties.obj
 0001:00041150       ?write_character@?$output_string_adapter@DV?$basic_string@DU?$char_traits@D@std@@V?$allocator@D@2@@std@@@detail@json_abi_v3_12_0@nlohmann@@UAEXD@Z 10042150 f i RTXLevelProperties.obj
 0001:00041160       ?write_characters@?$output_string_adapter@DV?$basic_string@DU?$char_traits@D@std@@V?$allocator@D@2@@std@@@detail@json_abi_v3_12_0@nlohmann@@UAEXPBDI@Z 10042160 f i RTXLevelProperties.obj
 0001:00041170       ?ws2s@@YA?AV?$basic_string@DU?$char_traits@D@std@@V?$allocator@D@2@@std@@ABV?$basic_string@GU?$char_traits@G@std@@V?$allocator@G@2@@2@@Z 10042170 f   RTXLevelProperties.obj
 0001:000412d0       ?xsgetn@?$basic_filebuf@DU?$char_traits@D@std@@@std@@MAE_JPAD_J@Z 100422d0 f i RTXLevelProperties.obj
 0001:000414a0       ?xsputn@?$basic_filebuf@DU?$char_traits@D@std@@@std@@MAE_JPBD_J@Z 100424a0 f i RTXLevelProperties.obj
 0001:00041750       _snprintf                  10042750 f i RTXLevelProperties.obj
 0001:00041782       ?PushBytes@FMemStack@@QAEPAEHH@Z 10042782 f   Core:Core.dll
 0001:00041788       ?IsA@UObject@@QBEHPAVUClass@@@Z 10042788 f   Core:Core.dll
 0001:0004178e       ?GMem@@3VFMemStack@@A      1004278e f   Core:Core.dll
 0001:00041794       ?GIsEditor@@3HA            10042794 f   Core:Core.dll
 0001:0004179a       ?GMath@@3VFGlobalMath@@A   1004279a f   Core:Core.dll
 0001:000417a0       ?IsValid@FName@@QAEHXZ     100427a0 f   Core:Core.dll
 0001:000417a6       ??DFName@@QBEPBDXZ         100427a6 f   Core:Core.dll
 0001:000417ac       ??0FName@@QAE@PBDW4EFindName@@@Z 100427ac f   Core:Core.dll
 0001:000417b2       ??0FString@@QAE@XZ         100427b2 f   Core:Core.dll
 0001:000417b8       ??0FString@@QAE@PBD@Z      100427b8 f   Core:Core.dll
 0001:000417be       ??DFString@@QBEPBDXZ       100427be f   Core:Core.dll
 0001:000417c4       ??1FString@@QAE@XZ         100427c4 f   Core:Core.dll
 0001:000417ca       ?Init@FMemStack@@QAEXH@Z   100427ca f   Core:Core.dll
 0001:000417d0       ??0FMemMark@@QAE@AAVFMemStack@@@Z 100427d0 f   Core:Core.dll
 0001:000417d6       ?Pop@FMemMark@@QAEXXZ      100427d6 f   Core:Core.dll
 0001:000417dc       ?StaticConstructObject@UObject@@SAPAV1@PAVUClass@@PAV1@VFName@@K1PAVFOutputDevice@@@Z 100427dc f   Core:Core.dll
 0001:000417e2       ?StaticClass@UObject@@SAPAVUClass@@XZ 100427e2 f   Core:Core.dll
 0001:000417e8       ?IsValid@UObject@@QAEHXZ   100427e8 f   Core:Core.dll
 0001:000417ee       ??0UClass@@QAE@W4ENativeConstructor@@KKPAV0@1VFGuid@@PBD33KP6AXPAX@ZP8UObject@@AEXXZ@Z 100427ee f   Core:Core.dll
 0001:000417f4       ??1UClass@@UAE@XZ          100427f4 f   Core:Core.dll
 0001:000417fa       ?IsPendingKill@UObject@@UAEHXZ 100427fa f   Core:Core.dll
 0001:00041800       ?IncrementLogs@UObject@@UAEXXZ 10042800 f   Core:Core.dll
 0001:00041806       ?IncrementWarnings@UObject@@UAEXXZ 10042806 f   Core:Core.dll
 0001:0004180c       ?ProcessEvent@UObject@@UAEXPAVUFunction@@PAX1@Z 1004280c f   Core:Core.dll
 0001:00041812       ?ProcessState@UObject@@UAEXM@Z 10042812 f   Core:Core.dll
 0001:00041818       ?ProcessRemoteFunction@UObject@@UAEHPAVUFunction@@PAXPAUFFrame@@@Z 10042818 f   Core:Core.dll
 0001:0004181e       ?Modify@UObject@@UAEXXZ    1004281e f   Core:Core.dll
 0001:00041824       ?PostLoad@UObject@@UAEXXZ  10042824 f   Core:Core.dll
 0001:0004182a       ?Serialize@UObject@@UAEXAAVFArchive@@@Z 1004282a f   Core:Core.dll
 0001:00041830       ?InitExecution@UObject@@UAEXXZ 10042830 f   Core:Core.dll
 0001:00041836       ?ShutdownAfterError@UObject@@UAEXXZ 10042836 f   Core:Core.dll
 0001:0004183c       ?PostEditChange@UObject@@UAEXXZ 1004283c f   Core:Core.dll
 0001:00041842       ?ScriptConsoleExec@UObject@@UAEHPBDAAVFOutputDevice@@PAV1@@Z 10042842 f   Core:Core.dll
 0001:00041848       ?Register@UObject@@UAEXXZ  10042848 f   Core:Core.dll
 0001:0004184e       ?LanguageChange@UObject@@UAEXXZ 1004284e f   Core:Core.dll
 0001:00041854       ?GUglyHackFlags@@3KA       10042854 f   Core:Core.dll
 0001:0004185a       ?Destroy@UObject@@UAEXXZ   1004285a f   Core:Core.dll
 0001:00041860       ?GetStateName@UObject@@UAE?AVFName@@XZ 10042860 f   Core:Core.dll
 0001:00041866       ?CallFunction@UObject@@UAEXAAUFFrame@@QAXPAVUFunction@@@Z 10042866 f   Core:Core.dll
 0001:0004186c       ?Printf@FString@@SA?AV1@PBDZZ 1004286c f   Core:Core.dll
 0001:00041872       ?Log@FOutputDevice@@QAEXPBD@Z 10042872 f   Core:Core.dll
 0001:00041878       ?Logf@FOutputDevice@@QAAXPBDZZ 10042878 f   Core:Core.dll
 0001:0004187e       ?GetIndexedObject@UObject@@SAPAV1@H@Z 1004287e f   Core:Core.dll
 0001:00041884       ?GetPathName@UObject@@QBEPBDPAV1@PAD@Z 10042884 f   Core:Core.dll
 0001:0004188a       ?appSecondsSlow@@YANXZ     1004288a f   Core:Core.dll
 0001:00041890       ?appSleep@@YAXM@Z          10042890 f   Core:Core.dll
 0001:00041896       ?GConfig@@3PAVFConfigCache@@A 10042896 f   Core:Core.dll
 0001:0004189c       ?GSecondsPerCycle@@3NA     1004289c f   Core:Core.dll
 0001:000418a2       ??0FTextureInfo@@QAE@XZ    100428a2 f   Engine:Engine.dll
 0001:000418a8       ?StaticClass@ULodMesh@@SAPAVUClass@@XZ 100428a8 f   Engine:Engine.dll
 0001:000418ae       ?LifeFraction@AActor@@QAEMXZ 100428ae f   Engine:Engine.dll
 0001:000418b4       ?IsOwnedBy@AActor@@QBEHPBV1@@Z 100428b4 f   Engine:Engine.dll
 0001:000418ba       ?eventRenderOverlays@AActor@@QAEXPAVUCanvas@@@Z 100428ba f   Engine:Engine.dll
 0001:000418c0       ?StaticClass@APawn@@SAPAVUClass@@XZ 100428c0 f   Engine:Engine.dll
 0001:000418c6       ?StaticClass@AMover@@SAPAVUClass@@XZ 100428c6 f   Engine:Engine.dll
 0001:000418cc       ?StaticClass@ASkyZoneInfo@@SAPAVUClass@@XZ 100428cc f   Engine:Engine.dll
 0001:000418d2       ?GetZoneActor@ULevel@@QAEPAVAZoneInfo@@H@Z 100428d2 f   Engine:Engine.dll
 0001:000418d8       ?GetLevelInfo@ULevel@@QAEPAVALevelInfo@@XZ 100428d8 f   Engine:Engine.dll
 0001:000418de       ?DrawStats@URenderDevice@@UAEXPAUFSceneNode@@@Z 100428de f   Engine:Engine.dll
 0001:000418e4       ?Draw2DClippedLine@URenderDevice@@UAEXPAUFSceneNode@@VFPlane@@KVFVector@@2@Z 100428e4 f   Engine:Engine.dll
 0001:000418ea       ?Placeholder@URenderDevice@@UAEXXZ 100428ea f   Engine:Engine.dll
 0001:000418f0       ?Init@URenderBase@@UAEXPAVUEngine@@@Z 100428f0 f   Engine:Engine.dll
 0001:000418f6       ??0FColor@@QAE@ABVFPlane@@@Z 100428f6 f   Engine:Engine.dll
 0001:000418fc       ??0FSceneNode@@QAE@XZ      100428fc f   Engine:Engine.dll
 0001:00041902       ?StaticClass@UTexture@@SAPAVUClass@@XZ 10042902 f   Engine:Engine.dll
 0001:00041908       ?IsOrtho@UViewport@@QAEHXZ 10042908 f   Engine:Engine.dll
 0001:0004190e       ?GetOuterUClient@UViewport@@QBEPAVUClient@@XZ 1004290e f   Engine:Engine.dll
 0001:00041914       ?StaticClass@URenderDevice@@SAPAVUClass@@XZ 10042914 f   Engine:Engine.dll
 0001:0004191a       ??0URenderDevice@@QAE@XZ   1004291a f   Engine:Engine.dll
 0001:00041920       ??1URenderDevice@@UAE@XZ   10042920 f   Engine:Engine.dll
 0001:00041926       ?OccludeFrame@URender@@QAEXPAUFSceneNode@@@Z 10042926 f   Render:Render.dll
 0001:0004192c       ?StaticClass@URender@@SAPAVUClass@@XZ 1004292c f   Render:Render.dll
 0001:00041932       ??0URender@@QAE@XZ         10042932 f   Render:Render.dll
 0001:00041938       ??1URender@@UAE@XZ         10042938 f   Render:Render.dll
 0001:0004193e       ?Init@URender@@UAEXPAVUEngine@@@Z 1004293e f   Render:Render.dll
 0001:00041944       ?Destroy@URender@@UAEXXZ   10042944 f   Render:Render.dll
 0001:0004194a       ?Exec@URender@@UAEHPBDAAVFOutputDevice@@@Z 1004294a f   Render:Render.dll
 0001:00041950       ?PreRender@URender@@UAEXPAUFSceneNode@@@Z 10042950 f   Render:Render.dll
 0001:00041956       ?PostRender@URender@@UAEXPAUFSceneNode@@@Z 10042956 f   Render:Render.dll
 0001:0004195c       ?DrawPaths@URender@@UAEXPAUFSceneNode@@@Z 1004295c f   Render:Render.dll
 0001:00041962       ?DrawBox@URender@@UAEXPAUFSceneNode@@VFPlane@@KVFVector@@2@Z 10042962 f   Render:Render.dll
 0001:00041968       ?DrawCircle@URender@@UAEXPAUFSceneNode@@VFPlane@@KAAVFVector@@M@Z 10042968 f   Render:Render.dll
 0001:0004196e       ?BoundVisible@URender@@UAEHPAUFSceneNode@@PAVFBox@@PAVFSpanBuffer@@AAUFScreenBounds@@@Z 1004296e f   Render:Render.dll
 0001:00041974       ?Project@URender@@UAEHPAUFSceneNode@@ABVFVector@@AAM2PAM@Z 10042974 f   Render:Render.dll
 0001:0004197a       ?Deproject@URender@@UAEHPAUFSceneNode@@HHAAVFVector@@@Z 1004297a f   Render:Render.dll
 0001:00041980       ?GetVisibleSurfs@URender@@UAEXPAVUViewport@@AAV?$TArray@H@@@Z 10042980 f   Render:Render.dll
 0001:00041986       ?CreateMasterFrame@URender@@UAEPAUFSceneNode@@PAVUViewport@@VFVector@@VFRotator@@PAUFScreenBounds@@@Z 10042986 f   Render:Render.dll
 0001:0004198c       ?CreateChildFrame@URender@@UAEPAUFSceneNode@@PAU2@PAVFSpanBuffer@@PAVULevel@@HHMABVFPlane@@ABVFCoords@@PAUFScreenBounds@@@Z 1004298c f   Render:Render.dll
 0001:00041992       ?FinishMasterFrame@URender@@UAEXXZ 10042992 f   Render:Render.dll
 0001:00041998       ?Precache@URender@@UAEXPAVUViewport@@@Z 10042998 f   Render:Render.dll
 0001:0004199e       ?GlobalLighting@URender@@UAEXHPAVAActor@@AAMAAVFPlane@@@Z 1004299e f   Render:Render.dll
 0001:000419a4       ?GetFogZone@URender@@UAEPAVAZoneInfo@@PAVULevel@@H@Z 100429a4 f   Render:Render.dll
 0001:000419aa       ?SetDistanceClipping@URender@@UAEXPAUFSceneNode@@@Z 100429aa f   Render:Render.dll
 0001:000419b0       ?SetDistanceFogging@URender@@UAEXPAUFSceneNode@@@Z 100429b0 f   Render:Render.dll
 0001:000419b6       ?GRender@@3PAVURender@@A   100429b6 f   Render:Render.dll
 0001:000419bc       _timeBeginPeriod@4         100429bc f   winmm:WINMM.dll
 0001:000419c2       _timeEndPeriod@4           100429c2 f   winmm:WINMM.dll
 0001:000419c8       _OutputDebugStringA@4      100429c8 f   kernel32:KERNEL32.dll
 0001:000419ce       _DebugBreak@0              100429ce f   kernel32:KERNEL32.dll
 0001:000419d4       _Sleep@4                   100429d4 f   kernel32:KERNEL32.dll
 0001:000419da       _GetModuleHandleA@4        100429da f   kernel32:KERNEL32.dll
 0001:000419e0       _GetProcAddress@8          100429e0 f   kernel32:KERNEL32.dll
 0001:000419e6       _LoadLibraryA@4            100429e6 f   kernel32:KERNEL32.dll
 0001:000419ec       _MultiByteToWideChar@24    100429ec f   kernel32:KERNEL32.dll
 0001:000419f2       _WideCharToMultiByte@32    100429f2 f   kernel32:KERNEL32.dll
 0001:000419f8       _GetDC@4                   100429f8 f   user32:USER32.dll
 0001:000419fe       _EnumDisplaySettingsW@12   100429fe f   user32:USER32.dll
 0001:00041a04       _BitBlt@36                 10042a04 f   gdi32:GDI32.dll
 0001:00041a0a       _CreateCompatibleDC@4      10042a0a f   gdi32:GDI32.dll
 0001:00041a10       _DeleteDC@4                10042a10 f   gdi32:GDI32.dll
 0001:00041a16       _DeleteObject@4            10042a16 f   gdi32:GDI32.dll
 0001:00041a1c       _SelectObject@8            10042a1c f   gdi32:GDI32.dll
 0001:00041a22       _CreateDIBSection@24       10042a22 f   gdi32:GDI32.dll
 0001:00041a28       ??0bad_alloc@std@@QAE@XZ   10042a28 f i libcpmt:xthrow.obj
 0001:00041a46       ??0bad_function_call@std@@QAE@ABV01@@Z 10042a46 f i libcpmt:xthrow.obj
 0001:00041a61       ??0bad_function_call@std@@QAE@XZ 10042a61 f i libcpmt:xthrow.obj
 0001:00041a78       ??0exception@std@@QAE@QBD@Z 10042a78 f i libcpmt:xthrow.obj
 0001:00041ab3       ??0exception@std@@QAE@QBDH@Z 10042ab3 f i libcpmt:xthrow.obj
 0001:00041ad6       ??0exception@std@@QAE@XZ   10042ad6 f i libcpmt:xthrow.obj
 0001:00041aed       ??0invalid_argument@std@@QAE@ABV01@@Z 10042aed f i libcpmt:xthrow.obj
 0001:00041b08       ??0invalid_argument@std@@QAE@PBD@Z 10042b08 f i libcpmt:xthrow.obj
 0001:00041b27       ??0length_error@std@@QAE@ABV01@@Z 10042b27 f i libcpmt:xthrow.obj
 0001:00041b42       ??0length_error@std@@QAE@PBD@Z 10042b42 f i libcpmt:xthrow.obj
 0001:00041b61       ??0logic_error@std@@QAE@ABV01@@Z 10042b61 f i libcpmt:xthrow.obj
 0001:00041b7c       ??0logic_error@std@@QAE@PBD@Z 10042b7c f i libcpmt:xthrow.obj
 0001:00041b9b       ??0out_of_range@std@@QAE@ABV01@@Z 10042b9b f i libcpmt:xthrow.obj
 0001:00041bb6       ??0out_of_range@std@@QAE@PBD@Z 10042bb6 f i libcpmt:xthrow.obj
 0001:00041bd5       ??0overflow_error@std@@QAE@ABV01@@Z 10042bd5 f i libcpmt:xthrow.obj
 0001:00041bf0       ??0overflow_error@std@@QAE@PBD@Z 10042bf0 f i libcpmt:xthrow.obj
 0001:00041c0f       ??0regex_error@std@@QAE@ABV01@@Z 10042c0f f i libcpmt:xthrow.obj
 0001:00041c33       ??0regex_error@std@@QAE@W4error_type@regex_constants@1@@Z 10042c33 f i libcpmt:xthrow.obj
 0001:00041c61       ??1bad_function_call@std@@UAE@XZ 10042c61 f i libcpmt:xthrow.obj
 0001:00041c72       ??1invalid_argument@std@@UAE@XZ 10042c72 f i libcpmt:xthrow.obj
 0001:00041c83       ??1length_error@std@@UAE@XZ 10042c83 f i libcpmt:xthrow.obj
 0001:00041c94       ??1logic_error@std@@UAE@XZ 10042c94 f i libcpmt:xthrow.obj
 0001:00041ca5       ??1out_of_range@std@@UAE@XZ 10042ca5 f i libcpmt:xthrow.obj
 0001:00041cb6       ??1overflow_error@std@@UAE@XZ 10042cb6 f i libcpmt:xthrow.obj
 0001:00041cc7       ??1regex_error@std@@UAE@XZ 10042cc7 f i libcpmt:xthrow.obj
 0001:00041cd8       ??_Ebad_function_call@std@@UAEPAXI@Z 10042cd8 f i libcpmt:xthrow.obj
 0001:00041cd8       ??_Gbad_function_call@std@@UAEPAXI@Z 10042cd8 f i libcpmt:xthrow.obj
 0001:00041d05       ??_Einvalid_argument@std@@UAEPAXI@Z 10042d05 f i libcpmt:xthrow.obj
 0001:00041d05       ??_Ginvalid_argument@std@@UAEPAXI@Z 10042d05 f i libcpmt:xthrow.obj
 0001:00041d32       ??_Elength_error@std@@UAEPAXI@Z 10042d32 f i libcpmt:xthrow.obj
 0001:00041d32       ??_Glength_error@std@@UAEPAXI@Z 10042d32 f i libcpmt:xthrow.obj
 0001:00041d5f       ??_Elogic_error@std@@UAEPAXI@Z 10042d5f f i libcpmt:xthrow.obj
 0001:00041d5f       ??_Glogic_error@std@@UAEPAXI@Z 10042d5f f i libcpmt:xthrow.obj
 0001:00041d8c       ??_Eout_of_range@std@@UAEPAXI@Z 10042d8c f i libcpmt:xthrow.obj
 0001:00041d8c       ??_Gout_of_range@std@@UAEPAXI@Z 10042d8c f i libcpmt:xthrow.obj
 0001:00041db9       ??_Eoverflow_error@std@@UAEPAXI@Z 10042db9 f i libcpmt:xthrow.obj
 0001:00041db9       ??_Goverflow_error@std@@UAEPAXI@Z 10042db9 f i libcpmt:xthrow.obj
 0001:00041de6       ??_Eregex_error@std@@UAEPAXI@Z 10042de6 f i libcpmt:xthrow.obj
 0001:00041de6       ??_Gregex_error@std@@UAEPAXI@Z 10042de6 f i libcpmt:xthrow.obj
 0001:00041e13       ?_Stringify@regex_error@std@@CAPBDW4error_type@regex_constants@2@@Z 10042e13 f i libcpmt:xthrow.obj
 0001:00041ed3       ?_Xbad_alloc@std@@YAXXZ    10042ed3 f   libcpmt:xthrow.obj
 0001:00041ef0       ?_Xbad_function_call@std@@YAXXZ 10042ef0 f   libcpmt:xthrow.obj
 0001:00041f0d       ?_Xinvalid_argument@std@@YAXPBD@Z 10042f0d f   libcpmt:xthrow.obj
 0001:00041f2d       ?_Xlength_error@std@@YAXPBD@Z 10042f2d f   libcpmt:xthrow.obj
 0001:00041f4d       ?_Xout_of_range@std@@YAXPBD@Z 10042f4d f   libcpmt:xthrow.obj
 0001:00041f6d       ?_Xoverflow_error@std@@YAXPBD@Z 10042f6d f   libcpmt:xthrow.obj
 0001:00041f8d       ?_Xregex_error@std@@YAXW4error_type@regex_constants@1@@Z 10042f8d f   libcpmt:xthrow.obj
 0001:00041fad       ?_Xruntime_error@std@@YAXPBD@Z 10042fad f   libcpmt:xthrow.obj
 0001:00041fcd       ?what@bad_function_call@std@@UBEPBDXZ 10042fcd f i libcpmt:xthrow.obj
 0001:00041fd3       ??0_Init_locks@std@@QAE@XZ 10042fd3 f   libcpmt:xlock.obj
 0001:00042000       ??0_Lockit@std@@QAE@H@Z    10043000 f   libcpmt:xlock.obj
 0001:00042031       ??0_Lockit@std@@QAE@XZ     10043031 f   libcpmt:xlock.obj
 0001:00042043       ??1_Init_locks@std@@QAE@XZ 10043043 f   libcpmt:xlock.obj
 0001:0004206a       ??1_Lockit@std@@QAE@XZ     1004306a f   libcpmt:xlock.obj
 0001:00042089       ?_Init_locks_ctor@_Init_locks@std@@CAXPAV12@@Z 10043089 f   libcpmt:xlock.obj
 0001:000420b0       ?_Init_locks_dtor@_Init_locks@std@@CAXPAV12@@Z 100430b0 f   libcpmt:xlock.obj
 0001:000420d7       ?_Lockit_ctor@_Lockit@std@@CAXPAV12@@Z 100430d7 f   libcpmt:xlock.obj
 0001:000420e3       ?_Lockit_ctor@_Lockit@std@@CAXPAV12@H@Z 100430e3 f   libcpmt:xlock.obj
 0001:0004210c       ?_Lockit_ctor@_Lockit@std@@SAXH@Z 1004310c f   libcpmt:xlock.obj
 0001:00042130       ?_Lockit_dtor@_Lockit@std@@CAXPAV12@@Z 10043130 f   libcpmt:xlock.obj
 0001:00042147       ?_Lockit_dtor@_Lockit@std@@SAXH@Z 10043147 f   libcpmt:xlock.obj
 0001:0004216b       ?uncaught_exceptions@std@@YAHXZ 1004316b f   libcpmt:uncaught_exceptions.obj
 0001:00042170       ?_Syserror_map@std@@YAPBDH@Z 10043170 f   libcpmt:syserror.obj
 0001:00042195       ?_Winerror_map@std@@YAHH@Z 10043195 f   libcpmt:syserror.obj
 0001:000421b7       ?_Winerror_message@std@@YAKKPADK@Z 100431b7 f   libcpmt:syserror.obj
 0001:000421de       ??0?$_Yarn@D@std@@QAE@PBD@Z 100431de f i libcpmt:locale0.obj
 0001:000421fd       ??0_Fac_node@std@@QAE@PAU01@PAV_Facet_base@1@@Z 100431fd f i libcpmt:locale0.obj
 0001:00042211       ??0_Facet_base@std@@QAE@XZ 10043211 f i libcpmt:locale0.obj
 0001:0004221a       ??0_Locimp@locale@std@@AAE@ABV012@@Z 1004321a f i libcpmt:locale0.obj
 0001:00042284       ??0_Locimp@locale@std@@AAE@_N@Z 10043284 f i libcpmt:locale0.obj
 0001:000422c5       ??0facet@locale@std@@IAE@I@Z 100432c5 f i libcpmt:locale0.obj
 0001:000422da       ??0id@locale@std@@QAE@I@Z  100432da f i libcpmt:locale0.obj
 0001:000422e8       ??0locale@std@@AAE@U_Secret_locale_construct_tag@01@PAV_Locimp@01@@Z 100432e8 f i libcpmt:locale0.obj
 0001:000422f7       ??0locale@std@@QAE@W4_Uninitialized@1@@Z 100432f7 f i libcpmt:locale0.obj
 0001:000422fc       ??1_Fac_node@std@@QAE@XZ   100432fc f i libcpmt:locale0.obj
 0001:0004232d       ??1_Fac_tidy_reg_t@std@@QAE@XZ 1004332d f i libcpmt:locale0.obj
 0001:00042351       ??1_Locimp@locale@std@@MAE@XZ 10043351 f i libcpmt:locale0.obj
 0001:00042371       ??2@YAPAXIPAX@Z            10043371 f i libcpmt:locale0.obj
 0001:00042379       ??2_Fac_node@std@@SAPAXI@Z 10043379 f i libcpmt:locale0.obj
 0001:00042398       ??3_Fac_node@std@@SAXPAX@Z 10043398 f i libcpmt:locale0.obj
 0001:0004239d       ??4?$_Yarn@D@std@@QAEAAV01@PBD@Z 1004339d f i libcpmt:locale0.obj
 0001:000423e6       ??_G_Fac_node@std@@QAEPAXI@Z 100433e6 f i libcpmt:locale0.obj
 0001:00042416       ??_E_Locimp@locale@std@@MAEPAXI@Z 10043416 f i libcpmt:locale0.obj
 0001:00042416       ??_G_Locimp@locale@std@@MAEPAXI@Z 10043416 f i libcpmt:locale0.obj
 0001:00042438       ?_C_str@?$_Yarn@D@std@@QBEPBDXZ 10043438 f i libcpmt:locale0.obj
 0001:00042442       ?_Empty@?$_Yarn@D@std@@QBE_NXZ 10043442 f i libcpmt:locale0.obj
 0001:00042449       ?_Facet_Register@std@@YAXPAV_Facet_base@1@@Z 10043449 f   libcpmt:locale0.obj
 0001:00042476       ?_Getgloballocale@locale@std@@CAPAV_Locimp@12@XZ 10043476 f   libcpmt:locale0.obj
 0001:0004247c       ?_Init@locale@std@@CAPAV_Locimp@12@_N@Z 1004347c f   libcpmt:locale0.obj
 0001:00042509       ?_Locimp_dtor@_Locimp@locale@std@@CAXPAV123@@Z 10043509 f   libcpmt:locale0.obj
 0001:0004257a       ?_Locinfo_ctor@_Locinfo@std@@SAXPAV12@PBD@Z 1004357a f   libcpmt:locale0.obj
 0001:000425c6       ?_Locinfo_dtor@_Locinfo@std@@SAXPAV12@@Z 100435c6 f   libcpmt:locale0.obj
 0001:000425e0       ?_New_Locimp@_Locimp@locale@std@@CAPAV123@ABV123@@Z 100435e0 f   libcpmt:locale0.obj
 0001:00042610       ?_New_Locimp@_Locimp@locale@std@@CAPAV123@_N@Z 10043610 f   libcpmt:locale0.obj
 0001:00042633       ?_Setgloballocale@locale@std@@CAXPAX@Z 10043633 f   libcpmt:locale0.obj
 0001:0004265b       ?_Tidy@?$_Yarn@D@std@@AAEXXZ 1004365b f i libcpmt:locale0.obj
 0001:00042673       ?__empty_global_delete@@YAXPAX@Z 10043673 f i libcpmt:locale0.obj
 0001:00042676       ?__empty_global_delete@@YAXPAXI@Z 10043676 f i libcpmt:locale0.obj
 0001:00042676       ?__global_delete@@YAXPAXI@Z 10043676 f i libcpmt:locale0.obj
 0001:00042679       ?__empty_global_delete@@YAXPAXIW4align_val_t@std@@@Z 10043679 f i libcpmt:locale0.obj
 0001:0004267c       ?__empty_global_delete@@YAXPAXW4align_val_t@std@@@Z 1004367c f i libcpmt:locale0.obj
 0001:0004267f       ?c_str@?$_Yarn@D@std@@QBEPBDXZ 1004367f f i libcpmt:locale0.obj
 0001:00042689       ?classic@locale@std@@SAABV12@XZ 10043689 f   libcpmt:locale0.obj
 0001:000426a0       ?empty@locale@std@@SA?AV12@XZ 100436a0 f   libcpmt:locale0.obj
 0001:000426be       __Deletegloballocale       100436be f   libcpmt:locale0.obj
 0001:00042726       __Getctype                 10043726 f   libcpmt:_tolower.obj
 0001:00042794       __Tolower                  10043794 f   libcpmt:_tolower.obj
 0001:00042880       __Getcvt                   10043880 f   libcpmt:xwctomb.obj
 0001:000428f3       __Wcrtomb                  100438f3 f   libcpmt:xwctomb.obj
 0001:0004294f       ___Wcrtomb_lk              1004394f f   libcpmt:xwctomb.obj
 0001:00042958       __Toupper                  10043958 f   libcpmt:_toupper.obj
 0001:00042a44       ??_Glocale@std@@QAEPAXI@Z  10043a44 f i libcpmt:ios.obj
 0001:00042a66       ?_Addstd@ios_base@std@@SAXPAV12@@Z 10043a66 f   libcpmt:ios.obj
 0001:00042ab2       ?_Callfns@ios_base@std@@AAEXW4event@12@@Z 10043ab2 f i libcpmt:ios.obj
 0001:00042ae5       ?_Ios_base_dtor@ios_base@std@@CAXPAV12@@Z 10043ae5 f   libcpmt:ios.obj
 0001:00042b25       ?_Tidy@ios_base@std@@AAEXXZ 10043b25 f i libcpmt:ios.obj
 0001:00042ba6       ??0?$_Smanip@H@std@@QAE@P6AXAAVios_base@1@H@ZH@Z 10043ba6 f i libcpmt:iomanip.obj
 0001:00042bba       ??0?$_Smanip@_J@std@@QAE@P6AXAAVios_base@1@_J@Z1@Z 10043bba f i libcpmt:iomanip.obj
 0001:00042bd4       ?precision@ios_base@std@@QAE_J_J@Z 10043bd4 f i libcpmt:iomanip.obj
 0001:00042bf1       ?resetiosflags@std@@YA?AU?$_Smanip@H@1@H@Z 10043bf1 f   libcpmt:iomanip.obj
 0001:00042c50       ?setbase@std@@YA?AU?$_Smanip@H@1@H@Z 10043c50 f   libcpmt:iomanip.obj
 0001:00042c64       ?setf@ios_base@std@@QAEHHH@Z 10043c64 f i libcpmt:iomanip.obj
 0001:00042c89       ?setiosflags@std@@YA?AU?$_Smanip@H@1@H@Z 10043c89 f   libcpmt:iomanip.obj
 0001:00042c9d       ?setprecision@std@@YA?AU?$_Smanip@_J@1@_J@Z 10043c9d f   libcpmt:iomanip.obj
 0001:00042cb7       ?setw@std@@YA?AU?$_Smanip@_J@1@_J@Z 10043cb7 f   libcpmt:iomanip.obj
 0001:00042d13       ?width@ios_base@std@@QAE_J_J@Z 10043d13 f i libcpmt:iomanip.obj
 0001:000614d0       ___std_bitset_from_string_1@28 100624d0 f   libcpmt:vector_algorithms.obj
 0001:000615d0       ___std_bitset_from_string_2@28 100625d0 f   libcpmt:vector_algorithms.obj
 0001:000616e0       ___std_bitset_to_string_1@20 100626e0 f   libcpmt:vector_algorithms.obj
 0001:000616f0       ___std_bitset_to_string_2@20 100626f0 f   libcpmt:vector_algorithms.obj
 0001:00061700       ___std_count_trivial_1@12  10062700 f   libcpmt:vector_algorithms.obj
 0001:00061710       ___std_count_trivial_2@12  10062710 f   libcpmt:vector_algorithms.obj
 0001:00061720       ___std_count_trivial_4@12  10062720 f   libcpmt:vector_algorithms.obj
 0001:00061730       ___std_count_trivial_8@16  10062730 f   libcpmt:vector_algorithms.obj
 0001:00061750       ___std_find_end_1@16       10062750 f   libcpmt:vector_algorithms.obj
 0001:00061760       ___std_find_end_2@16       10062760 f   libcpmt:vector_algorithms.obj
 0001:00061770       ___std_find_first_of_trivial_1@16 10062770 f   libcpmt:vector_algorithms.obj
 0001:000617e0       ___std_find_first_of_trivial_2@16 100627e0 f   libcpmt:vector_algorithms.obj
 0001:00061850       ___std_find_first_of_trivial_4@16 10062850 f   libcpmt:vector_algorithms.obj
 0001:000618c0       ___std_find_first_of_trivial_8@16 100628c0 f   libcpmt:vector_algorithms.obj
 0001:00061910       ___std_find_first_of_trivial_pos_1@16 10062910 f   libcpmt:vector_algorithms.obj
 0001:000619a0       ___std_find_first_of_trivial_pos_2@16 100629a0 f   libcpmt:vector_algorithms.obj
 0001:000619c0       ___std_find_first_of_trivial_pos_4@16 100629c0 f   libcpmt:vector_algorithms.obj
 0001:000619e0       ___std_find_first_of_trivial_pos_8@16 100629e0 f   libcpmt:vector_algorithms.obj
 0001:00061af0       ___std_find_last_of_trivial_pos_1@16 10062af0 f   libcpmt:vector_algorithms.obj
 0001:00061b10       ___std_find_last_of_trivial_pos_2@16 10062b10 f   libcpmt:vector_algorithms.obj
 0001:00061b30       ___std_find_last_trivial_1@12 10062b30 f   libcpmt:vector_algorithms.obj
 0001:00061b40       ___std_find_last_trivial_2@12 10062b40 f   libcpmt:vector_algorithms.obj
 0001:00061b50       ___std_find_last_trivial_4@12 10062b50 f   libcpmt:vector_algorithms.obj
 0001:00061b60       ___std_find_last_trivial_8@16 10062b60 f   libcpmt:vector_algorithms.obj
 0001:00061b80       ___std_find_trivial_1@12   10062b80 f   libcpmt:vector_algorithms.obj
 0001:00061b90       ___std_find_trivial_2@12   10062b90 f   libcpmt:vector_algorithms.obj
 0001:00061ba0       ___std_find_trivial_4@12   10062ba0 f   libcpmt:vector_algorithms.obj
 0001:00061bb0       ___std_find_trivial_8@16   10062bb0 f   libcpmt:vector_algorithms.obj
 0001:00061bd0       ___std_find_trivial_unsized_1@8 10062bd0 f   libcpmt:vector_algorithms.obj
 0001:00061bf0       ___std_find_trivial_unsized_2@8 10062bf0 f   libcpmt:vector_algorithms.obj
 0001:00061c10       ___std_find_trivial_unsized_4@8 10062c10 f   libcpmt:vector_algorithms.obj
 0001:00061c30       ___std_find_trivial_unsized_8@12 10062c30 f   libcpmt:vector_algorithms.obj
 0001:00061c60       ___std_max_1i@8            10062c60 f   libcpmt:vector_algorithms.obj
 0001:00061d90       ___std_max_1u@8            10062d90 f   libcpmt:vector_algorithms.obj
 0001:00061db0       ___std_max_2i@8            10062db0 f   libcpmt:vector_algorithms.obj
 0001:00061ec0       ___std_max_2u@8            10062ec0 f   libcpmt:vector_algorithms.obj
 0001:00061ee0       ___std_max_4i@8            10062ee0 f   libcpmt:vector_algorithms.obj
 0001:00061f00       ___std_max_4u@8            10062f00 f   libcpmt:vector_algorithms.obj
 0001:00061f20       ___std_max_8i@8            10062f20 f   libcpmt:vector_algorithms.obj
 0001:00061f40       ___std_max_8u@8            10062f40 f   libcpmt:vector_algorithms.obj
 0001:00062050       ___std_max_d@8             10063050 f   libcpmt:vector_algorithms.obj
 0001:00062070       ___std_max_element_1@12    10063070 f   libcpmt:vector_algorithms.obj
 0001:000620f0       ___std_max_element_2@12    100630f0 f   libcpmt:vector_algorithms.obj
 0001:00062170       ___std_max_element_4@12    10063170 f   libcpmt:vector_algorithms.obj
 0001:00062220       ___std_max_element_8@12    10063220 f   libcpmt:vector_algorithms.obj
 0001:000622b0       ___std_max_element_d@12    100632b0 f   libcpmt:vector_algorithms.obj
 0001:00062330       ___std_max_element_f@12    10063330 f   libcpmt:vector_algorithms.obj
 0001:000623b0       ___std_max_f@8             100633b0 f   libcpmt:vector_algorithms.obj
 0001:000623d0       ___std_min_1i@8            100633d0 f   libcpmt:vector_algorithms.obj
 0001:00062500       ___std_min_1u@8            10063500 f   libcpmt:vector_algorithms.obj
 0001:00062520       ___std_min_2i@8            10063520 f   libcpmt:vector_algorithms.obj
 0001:00062630       ___std_min_2u@8            10063630 f   libcpmt:vector_algorithms.obj
 0001:00062650       ___std_min_4i@8            10063650 f   libcpmt:vector_algorithms.obj
 0001:00062670       ___std_min_4u@8            10063670 f   libcpmt:vector_algorithms.obj
 0001:00062690       ___std_min_8i@8            10063690 f   libcpmt:vector_algorithms.obj
 0001:000626b0       ___std_min_8u@8            100636b0 f   libcpmt:vector_algorithms.obj
 0001:000627c0       ___std_min_d@8             100637c0 f   libcpmt:vector_algorithms.obj
 0001:000627e0       ___std_min_element_1@12    100637e0 f   libcpmt:vector_algorithms.obj
 0001:00062860       ___std_min_element_2@12    10063860 f   libcpmt:vector_algorithms.obj
 0001:000628f0       ___std_min_element_4@12    100638f0 f   libcpmt:vector_algorithms.obj
 0001:000629a0       ___std_min_element_8@12    100639a0 f   libcpmt:vector_algorithms.obj
 0001:00062a30       ___std_min_element_d@12    10063a30 f   libcpmt:vector_algorithms.obj
 0001:00062ab0       ___std_min_element_f@12    10063ab0 f   libcpmt:vector_algorithms.obj
 0001:00062b30       ___std_min_f@8             10063b30 f   libcpmt:vector_algorithms.obj
 0001:00062b50       ___std_minmax_1i@8         10063b50 f   libcpmt:vector_algorithms.obj
 0001:00062b70       ___std_minmax_1u@8         10063b70 f   libcpmt:vector_algorithms.obj
 0001:00062b90       ___std_minmax_2i@8         10063b90 f   libcpmt:vector_algorithms.obj
 0001:00062bb0       ___std_minmax_2u@8         10063bb0 f   libcpmt:vector_algorithms.obj
 0001:00062bd0       ___std_minmax_4i@8         10063bd0 f   libcpmt:vector_algorithms.obj
 0001:00062bf0       ___std_minmax_4u@8         10063bf0 f   libcpmt:vector_algorithms.obj
 0001:00062c10       ___std_minmax_8i@8         10063c10 f   libcpmt:vector_algorithms.obj
 0001:00062c40       ___std_minmax_8u@8         10063c40 f   libcpmt:vector_algorithms.obj
 0001:00062c70       ___std_minmax_d@8          10063c70 f   libcpmt:vector_algorithms.obj
 0001:00062ca0       ___std_minmax_element_1@12 10063ca0 f   libcpmt:vector_algorithms.obj
 0001:00062d90       ___std_minmax_element_2@12 10063d90 f   libcpmt:vector_algorithms.obj
 0001:00062e30       ___std_minmax_element_4@12 10063e30 f   libcpmt:vector_algorithms.obj
 0001:00062ed0       ___std_minmax_element_8@12 10063ed0 f   libcpmt:vector_algorithms.obj
 0001:00062f80       ___std_minmax_element_d@12 10063f80 f   libcpmt:vector_algorithms.obj
 0001:00063020       ___std_minmax_element_f@12 10064020 f   libcpmt:vector_algorithms.obj
 0001:000630c0       ___std_minmax_f@8          100640c0 f   libcpmt:vector_algorithms.obj
 0001:000630e0       ___std_mismatch_1@12       100640e0 f   libcpmt:vector_algorithms.obj
 0001:000630f0       ___std_mismatch_2@12       100640f0 f   libcpmt:vector_algorithms.obj
 0001:00063100       ___std_mismatch_4@12       10064100 f   libcpmt:vector_algorithms.obj
 0001:00063110       ___std_mismatch_8@12       10064110 f   libcpmt:vector_algorithms.obj
 0001:00063120       ___std_remove_1@12         10064120 f   libcpmt:vector_algorithms.obj
 0001:000631c0       ___std_remove_2@12         100641c0 f   libcpmt:vector_algorithms.obj
 0001:00063260       ___std_remove_4@12         10064260 f   libcpmt:vector_algorithms.obj
 0001:00063350       ___std_remove_8@16         10064350 f   libcpmt:vector_algorithms.obj
 0001:00063450       ___std_replace_4@16        10064450 f   libcpmt:vector_algorithms.obj
 0001:000634f0       ___std_replace_8@24        100644f0 f   libcpmt:vector_algorithms.obj
 0001:000635b0       ___std_reverse_copy_trivially_copyable_1 100645b0 f   libcpmt:vector_algorithms.obj
 0001:00063670       ___std_reverse_copy_trivially_copyable_2 10064670 f   libcpmt:vector_algorithms.obj
 0001:00063730       ___std_reverse_copy_trivially_copyable_4 10064730 f   libcpmt:vector_algorithms.obj
 0001:000637e0       ___std_reverse_copy_trivially_copyable_8 100647e0 f   libcpmt:vector_algorithms.obj
 0001:00063890       ___std_reverse_trivially_swappable_1 10064890 f   libcpmt:vector_algorithms.obj
 0001:00063950       ___std_reverse_trivially_swappable_2 10064950 f   libcpmt:vector_algorithms.obj
 0001:00063a20       ___std_reverse_trivially_swappable_4 10064a20 f   libcpmt:vector_algorithms.obj
 0001:00063ad0       ___std_reverse_trivially_swappable_8 10064ad0 f   libcpmt:vector_algorithms.obj
 0001:00063bb0       ___std_search_1@16         10064bb0 f   libcpmt:vector_algorithms.obj
 0001:00063bc0       ___std_search_2@16         10064bc0 f   libcpmt:vector_algorithms.obj
 0001:00063bd0       ___std_swap_ranges_trivially_swappable 10064bd0 f   libcpmt:vector_algorithms.obj
 0001:00063ca0       ___std_swap_ranges_trivially_swappable_noalias 10064ca0 f   libcpmt:vector_algorithms.obj
 0001:00063e6e       ?_Fiopen@std@@YAPAU_iobuf@@PBDHH@Z 10064e6e f   libcpmt:fiopen.obj
 0001:00063e77       ?_Fiopen@std@@YAPAU_iobuf@@PBGHH@Z 10064e77 f   libcpmt:fiopen.obj
 0001:00063e80       ?_Fiopen@std@@YAPAU_iobuf@@PB_WHH@Z 10064e80 f   libcpmt:fiopen.obj
 0001:00063ec3       __Mtxdst                   10064ec3 f   libcpmt:xmtx.obj
 0001:00063ed1       __Mtxinit                  10064ed1 f   libcpmt:xmtx.obj
 0001:00063ee6       __Mtxlock                  10064ee6 f   libcpmt:xmtx.obj
 0001:00063ef4       __Mtxunlock                10064ef4 f   libcpmt:xmtx.obj
 0001:00063f10       ___std_get_string_size_without_trailing_whitespace@8 10064f10 f   libcpmt:syserror_import_lib.obj
 0001:00063f34       ___std_system_error_allocate_message@8 10064f34 f   libcpmt:syserror_import_lib.obj
 0001:00063fae       ___std_system_error_deallocate_message@4 10064fae f   libcpmt:syserror_import_lib.obj
 0001:00063fb4       ??$?0$$V@?$_Compressed_pair@V?$allocator@D@std@@V?$_String_val@U?$_Simple_types@D@std@@@2@$00@std@@QAE@U_Zero_then_variadic_args_t@1@@Z 10064fb4 f i libcpmt:locale.obj
 0001:00063fd1       ??$?0AAPAV_Facet_base@std@@@?$_Compressed_pair@U?$default_delete@V_Facet_base@std@@@std@@PAV_Facet_base@2@$00@std@@QAE@U_Zero_then_variadic_args_t@1@AAPAV_Facet_base@1@@Z 10064fd1 f i libcpmt:locale.obj
 0001:00063fe1       ??$?0U?$default_delete@V_Facet_base@std@@@std@@$0A@@?$unique_ptr@V_Facet_base@std@@U?$default_delete@V_Facet_base@std@@@2@@std@@QAE@PAV_Facet_base@1@@Z 10064fe1 f i libcpmt:locale.obj
 0001:00063fef       ??$?8DU?$char_traits@D@std@@@std@@YA_NABV?$istreambuf_iterator@DU?$char_traits@D@std@@@0@0@Z 10064fef f i libcpmt:locale.obj
 0001:00063fff       ??$_Adl_verify_range@PADPAD@std@@YAXABQAD0@Z 10064fff f i libcpmt:locale.obj
 0001:00064002       ??$_Adl_verify_range@PADPBD@std@@YAXABQADABQBD@Z 10065002 f i libcpmt:locale.obj
 0001:00064005       ??$_Adl_verify_range@PBDPBD@std@@YAXABQBD0@Z 10065005 f i libcpmt:locale.obj
 0001:00064008       ??$_Adl_verify_range@V?$istreambuf_iterator@DU?$char_traits@D@std@@@std@@V12@@std@@YAXABV?$istreambuf_iterator@DU?$char_traits@D@std@@@0@0@Z 10065008 f i libcpmt:locale.obj
 0001:0006400b       ??$_Allocate@$07U_Default_allocate_traits@std@@@std@@YAPAXI@Z 1006500b f i libcpmt:locale.obj
 0001:0006402e       ??$_Allocate_at_least_helper@V?$allocator@D@std@@@std@@YAPADAAV?$allocator@D@0@AAI@Z 1006502e f i libcpmt:locale.obj
 0001:0006403e       ??$_Construct@$0A@D@?$basic_string@DU?$char_traits@D@std@@V?$allocator@D@2@@std@@AAEXDI@Z 1006503e f i libcpmt:locale.obj
 0001:000640c4       ??$_Construct_in_place@PADAAPAD@std@@YAXAAPAD0@Z 100650c4 f i libcpmt:locale.obj
 0001:000640d3       ??$_Construct_in_place@PADABQAD@std@@YAXAAPADABQAD@Z 100650d3 f i libcpmt:locale.obj
 0001:000640e2       ??$_Convert_size@II@std@@YAII@Z 100650e2 f i libcpmt:locale.obj
 0001:000640ea       ??$_Could_compare_equal_to_value_type@PBDD@std@@YA_NABD@Z 100650ea f i libcpmt:locale.obj
 0001:000640ed       ??$_Deallocate@$07@std@@YAXPAXI@Z 100650ed f i libcpmt:locale.obj
 0001:00064119       ??$_Destroy_in_place@PAD@std@@YAXAAPAD@Z 10065119 f i libcpmt:locale.obj
 0001:0006411c       ??$_Find_elem@D$0BL@@std@@YAIAAY0BL@$$CBDD@Z 1006511c f i libcpmt:locale.obj
 0001:00064135       ??$_Find_elem@D$0BN@@std@@YAIAAY0BN@$$CBDD@Z 10065135 f i libcpmt:locale.obj
 0001:0006414e       ??$_Find_unchecked@PBDD@std@@YAPBDPBDQBDABD@Z 1006514e f i libcpmt:locale.obj
 0001:0006416a       ??$_Get_index@$0A@@id@locale@std@@QAEIXZ 1006516a f i libcpmt:locale.obj
 0001:0006419f       ??$_Get_size_of_n@$00@std@@YAII@Z 1006519f f i libcpmt:locale.obj
 0001:000641a7       ??$_Get_unwrapped@ABQAD@std@@YA?A_TABQAD@Z 100651a7 f i libcpmt:locale.obj
 0001:000641b1       ??$_Getloctxt@V?$istreambuf_iterator@DU?$char_traits@D@std@@@std@@D@std@@YAHAAV?$istreambuf_iterator@DU?$char_traits@D@std@@@0@0IPBDW4_Case_sensitive@0@@Z 100651b1 f i libcpmt:locale.obj
 0001:000643d7       ??$_Max_limit@H@std@@YAHXZ 100653d7 f i libcpmt:locale.obj
 0001:000643dd       ??$_Parse_fp_with_locale@$0A@@?$num_get@DV?$istreambuf_iterator@DU?$char_traits@D@std@@@std@@@std@@CA?AU_Num_get_parse_result@1@QADHAAV?$istreambuf_iterator@DU?$char_traits@D@std@@@1@1ABVlocale@1@@Z 100653dd f i libcpmt:locale.obj
 0001:00064ca9       ??$_Parse_int_with_locale@$0A@@?$num_get@DV?$istreambuf_iterator@DU?$char_traits@D@std@@@std@@@std@@CA?AU_Num_get_parse_result@1@QADAAV?$istreambuf_iterator@DU?$char_traits@D@std@@@1@1HABVlocale@1@@Z 10065ca9 f i libcpmt:locale.obj
 0001:000650e5       ??$_Pocma@V?$allocator@D@std@@@std@@YAXAAV?$allocator@D@0@0@Z 100660e5 f i libcpmt:locale.obj
 0001:000650e8       ??$_Reallocate_grow_by@V<lambda_1>@?1??append@?$basic_string@DU?$char_traits@D@std@@V?$allocator@D@2@@std@@QAEAAV34@ID@Z@ID@?$basic_string@DU?$char_traits@D@std@@V?$allocator@D@2@@std@@AAEAAV01@IV<lambda_1>@?1??append@01@QAEAAV01@ID@Z@ID@Z 100660e8 f i libcpmt:locale.obj
 0001:000651bf       ??$_Reallocate_grow_by@V<lambda_1>@?1??append@?$basic_string@DU?$char_traits@D@std@@V?$allocator@D@2@@std@@QAEAAV34@QBDI@Z@PBDI@?$basic_string@DU?$char_traits@D@std@@V?$allocator@D@2@@std@@AAEAAV01@IV<lambda_1>@?1??append@01@QAEAAV01@QBDI@Z@PBDI@Z 100661bf f i libcpmt:locale.obj
 0001:0006528f       ??$_Reallocate_grow_by@V<lambda_1>@?1??push_back@?$basic_string@DU?$char_traits@D@std@@V?$allocator@D@2@@std@@QAEXD@Z@D@?$basic_string@DU?$char_traits@D@std@@V?$allocator@D@2@@std@@AAEAAV01@IV<lambda_1>@?1??push_back@01@QAEXD@Z@D@Z 1006628f f i libcpmt:locale.obj
 0001:00065349       ??$_Reverse_vectorized@$00@std@@YAXPAX0@Z 10066349 f i libcpmt:locale.obj
 0001:0006534e       ??$_To_address@PAD@std@@YA?A_PABQAD@Z 1006634e f i libcpmt:locale.obj
 0001:00065358       ??$_To_address@PBD@std@@YA?A_PABQBD@Z 10066358 f i libcpmt:locale.obj
 0001:00065362       ??$_Unfancy@D@std@@YAPADPAD@Z 10066362 f i libcpmt:locale.obj
 0001:0006536a       ??$addressof@PAD@std@@YAPAPADAAPAD@Z 1006636a f i libcpmt:locale.obj
 0001:00065372       ??$addressof@V?$basic_string@DU?$char_traits@D@std@@V?$allocator@D@2@@std@@@std@@YAPAV?$basic_string@DU?$char_traits@D@std@@V?$allocator@D@2@@0@AAV10@@Z 10066372 f i libcpmt:locale.obj
 0001:0006537a       ??$begin@$$CBD$0BL@@std@@YAPBDAAY0BL@$$CBD@Z 1006637a f i libcpmt:locale.obj
 0001:00065382       ??$begin@$$CBD$0BN@@std@@YAPBDAAY0BN@$$CBD@Z 10066382 f i libcpmt:locale.obj
 0001:0006538a       ??$construct_at@D$$V@std@@YAPADQAD@Z 1006638a f i libcpmt:locale.obj
 0001:00065395       ??$construct_at@PADAAPAD@std@@YAPAPADQAPADAAPAD@Z 10066395 f i libcpmt:locale.obj
 0001:000653a4       ??$construct_at@PADABQAD@std@@YAPAPADQAPADABQAD@Z 100663a4 f i libcpmt:locale.obj
 0001:000653b3       ??$end@$$CBD$0BL@@std@@YAPBDAAY0BL@$$CBD@Z 100663b3 f i libcpmt:locale.obj
 0001:000653be       ??$end@$$CBD$0BN@@std@@YAPBDAAY0BN@$$CBD@Z 100663be f i libcpmt:locale.obj
 0001:000653c9       ??$exchange@PAV_Facet_base@std@@$$T@std@@YAPAV_Facet_base@0@AAPAV10@$$QA$$T@Z 100663c9 f i libcpmt:locale.obj
 0001:000653da       ??$forward@AAPAD@std@@YAAAPADAAPAD@Z 100663da f i libcpmt:locale.obj
 0001:000653e2       ??$forward@AAPAV_Facet_base@std@@@std@@YAAAPAV_Facet_base@0@AAPAV10@@Z 100663e2 f i libcpmt:locale.obj
 0001:000653ea       ??$forward@ABQAD@std@@YAABQADABQAD@Z 100663ea f i libcpmt:locale.obj
 0001:000653f2       ??$isfinite@N@@YA_NN@Z     100663f2 f i libcpmt:locale.obj
 0001:0006540c       ??$isfinite@O@@YA_NO@Z     1006640c f i libcpmt:locale.obj
 0001:00065426       ??$max@I@std@@YAABIABI0@Z  10066426 f i libcpmt:locale.obj
 0001:00065438       ??$min@H@std@@YAABHABH0@Z  10066438 f i libcpmt:locale.obj
 0001:0006544a       ??$min@I@std@@YAABIABI0@Z  1006644a f i libcpmt:locale.obj
 0001:0006545c       ??$move@AAD@std@@YA$$QADAAD@Z 1006645c f i libcpmt:locale.obj
 0001:00065464       ??$move@AAV?$allocator@D@std@@@std@@YA$$QAV?$allocator@D@0@AAV10@@Z 10066464 f i libcpmt:locale.obj
 0001:0006546c       ??$move@AAV?$basic_string@DU?$char_traits@D@std@@V?$allocator@D@2@@std@@@std@@YA$$QAV?$basic_string@DU?$char_traits@D@std@@V?$allocator@D@2@@0@AAV10@@Z 1006646c f i libcpmt:locale.obj
 0001:00065474       ??$reverse@PAD@std@@YAXQAD0@Z 10066474 f i libcpmt:locale.obj
 0001:00065479       ??$swap@D$0A@@std@@YAXAAD0@Z 10066479 f i libcpmt:locale.obj
 0001:0006548e       ??$to_address@$$CBD@std@@YAPBDQBD@Z 1006648e f i libcpmt:locale.obj
 0001:00065496       ??$to_address@D@std@@YAPADQAD@Z 10066496 f i libcpmt:locale.obj
 0001:0006549e       ??$use_facet@V?$num_get@DV?$istreambuf_iterator@DU?$char_traits@D@std@@@std@@@std@@@std@@YAABV?$num_get@DV?$istreambuf_iterator@DU?$char_traits@D@std@@@std@@@0@ABVlocale@0@@Z 1006649e f i libcpmt:locale.obj
 0001:00065536       ??0?$_String_val@U?$_Simple_types@D@std@@@std@@QAE@XZ 10066536 f i libcpmt:locale.obj
 0001:00065551       ??0?$_Yarn@D@std@@QAE@XZ   10066551 f i libcpmt:locale.obj
 0001:0006555e       ??0?$_Yarn@_W@std@@QAE@XZ  1006655e f i libcpmt:locale.obj
 0001:0006556d       ??0?$allocator@D@std@@QAE@XZ 1006656d f i libcpmt:locale.obj
 0001:00065570       ??0?$basic_string@DU?$char_traits@D@std@@V?$allocator@D@2@@std@@QAE@XZ 10066570 f i libcpmt:locale.obj
 0001:0006558e       ??0?$codecvt@DDU_Mbstatet@@@std@@QAE@ABV_Locinfo@1@I@Z 1006658e f i libcpmt:locale.obj
 0001:000655a7       ??0?$ctype@D@std@@QAE@ABV_Locinfo@1@I@Z 100665a7 f i libcpmt:locale.obj
 0001:000655dd       ??0?$num_get@DV?$istreambuf_iterator@DU?$char_traits@D@std@@@std@@@std@@QAE@ABV_Locinfo@1@I@Z 100665dd f i libcpmt:locale.obj
 0001:000655f6       ??0?$num_put@DV?$ostreambuf_iterator@DU?$char_traits@D@std@@@std@@@std@@QAE@ABV_Locinfo@1@I@Z 100665f6 f i libcpmt:locale.obj
 0001:0006560f       ??0?$numpunct@D@std@@QAE@ABV_Locinfo@1@I_N@Z 1006660f f i libcpmt:locale.obj
 0001:00065648       ??0_Bxty@?$_String_val@U?$_Simple_types@D@std@@@std@@QAE@XZ 10066648 f i libcpmt:locale.obj
 0001:00065655       ??0_Fake_proxy_ptr_impl@std@@QAE@ABU_Fake_allocator@1@ABU_Container_base0@1@@Z 10066655 f i libcpmt:locale.obj
 0001:0006565a       ??0bad_alloc@std@@AAE@QBD@Z 1006665a f i libcpmt:locale.obj
 0001:0006567d       ??0codecvt_base@std@@QAE@I@Z 1006667d f i libcpmt:locale.obj
 0001:00065692       ??0ctype_base@std@@QAE@I@Z 10066692 f i libcpmt:locale.obj
 0001:000656a7       ??0locale@std@@QAE@ABV01@@Z 100666a7 f i libcpmt:locale.obj
 0001:000656d2       ??0locale@std@@QAE@XZ      100666d2 f i libcpmt:locale.obj
 0001:00065717       ??1?$_Compressed_pair@V?$allocator@D@std@@V?$_String_val@U?$_Simple_types@D@std@@@2@$00@std@@QAE@XZ 10066717 f i libcpmt:locale.obj
 0001:0006571a       ??1?$_String_val@U?$_Simple_types@D@std@@@std@@QAE@XZ 1006671a f i libcpmt:locale.obj
 0001:0006571d       ??1?$_Yarn@_W@std@@QAE@XZ  1006671d f i libcpmt:locale.obj
 0001:00065722       ??1?$num_get@DV?$istreambuf_iterator@DU?$char_traits@D@std@@@std@@@std@@MAE@XZ 10066722 f i libcpmt:locale.obj
 0001:00065729       ??1_Bxty@?$_String_val@U?$_Simple_types@D@std@@@std@@QAE@XZ 10066729 f i libcpmt:locale.obj
 0001:0006572c       ??4?$basic_string@DU?$char_traits@D@std@@V?$allocator@D@2@@std@@QAEAAV01@$$QAV01@@Z 1006672c f i libcpmt:locale.obj
 0001:0006574d       ??4?$ostreambuf_iterator@DU?$char_traits@D@std@@@std@@QAEAAV01@D@Z 1006674d f i libcpmt:locale.obj
 0001:00065771       ??A?$basic_string@DU?$char_traits@D@std@@V?$allocator@D@2@@std@@QAEAADI@Z 10066771 f i libcpmt:locale.obj
 0001:00065785       ??A?$basic_string@DU?$char_traits@D@std@@V?$allocator@D@2@@std@@QBEABDI@Z 10066785 f i libcpmt:locale.obj
 0001:00065799       ??D?$istreambuf_iterator@DU?$char_traits@D@std@@@std@@QBEDXZ 10066799 f i libcpmt:locale.obj
 0001:000657ac       ??D?$ostreambuf_iterator@DU?$char_traits@D@std@@@std@@QAEAAV01@XZ 100667ac f i libcpmt:locale.obj
 0001:000657af       ??E?$istreambuf_iterator@DU?$char_traits@D@std@@@std@@QAEAAV01@XZ 100667af f i libcpmt:locale.obj
 0001:000657bb       ??E?$ostreambuf_iterator@DU?$char_traits@D@std@@@std@@QAEAAV01@XZ 100667bb f i libcpmt:locale.obj
 0001:000657be       ??R<lambda_1>@?1??append@?$basic_string@DU?$char_traits@D@std@@V?$allocator@D@2@@std@@QAEAAV23@ID@Z@QBE@QADQBDIID@Z 100667be f i libcpmt:locale.obj
 0001:000657f1       ??R<lambda_1>@?1??append@?$basic_string@DU?$char_traits@D@std@@V?$allocator@D@2@@std@@QAEAAV23@QBDI@Z@QBE@QAD0I0I@Z 100667f1 f i libcpmt:locale.obj
 0001:00065822       ??R<lambda_1>@?1??insert@?$basic_string@DU?$char_traits@D@std@@V?$allocator@D@2@@std@@QAEAAV23@IID@Z@QBE@QADQBDIIID@Z 10066822 f i libcpmt:locale.obj
 0001:0006586b       ??R<lambda_1>@?1??push_back@?$basic_string@DU?$char_traits@D@std@@V?$allocator@D@2@@std@@QAEXD@Z@QBE@QADQBDID@Z 1006686b f i libcpmt:locale.obj
 0001:00065894       ??R?$default_delete@V_Facet_base@std@@@std@@QBEXPAV_Facet_base@1@@Z 10066894 f i libcpmt:locale.obj
 0001:000658b8       ??Y?$basic_string@DU?$char_traits@D@std@@V?$allocator@D@2@@std@@QAEAAV01@ABV01@@Z 100668b8 f i libcpmt:locale.obj
 0001:000658c1       ??_E?$num_get@DV?$istreambuf_iterator@DU?$char_traits@D@std@@@std@@@std@@MAEPAXI@Z 100668c1 f i libcpmt:locale.obj
 0001:000658c1       ??_G?$num_get@DV?$istreambuf_iterator@DU?$char_traits@D@std@@@std@@@std@@MAEPAXI@Z 100668c1 f i libcpmt:locale.obj
 0001:000658e4       ?_Activate_SSO_buffer@?$_String_val@U?$_Simple_types@D@std@@@std@@QAEXXZ 100668e4 f i libcpmt:locale.obj
 0001:000658e7       ?_Addfac@_Locimp@locale@std@@AAEXPAVfacet@23@I@Z 100668e7 f i libcpmt:locale.obj
 0001:000658fd       ?_Adjust_manually_vector_aligned@std@@YAXAAPAXAAI@Z 100668fd f i libcpmt:locale.obj
 0001:00065929       ?_Alloc_proxy@_Container_base0@std@@QAEXABU_Fake_allocator@2@@Z 10066929 f i libcpmt:locale.obj
 0001:0006592c       ?_Allocate@_Default_allocate_traits@std@@SAPAXI@Z 1006692c f i libcpmt:locale.obj
 0001:00065935       ?_Apply_annotation@?$basic_string@DU?$char_traits@D@std@@V?$allocator@D@2@@std@@CAXQBDIII@Z 10066935 f i libcpmt:locale.obj
 0001:0006597e       ?_C_str@locale@std@@QBEPBDXZ 1006697e f i libcpmt:locale.obj
 0001:00065996       ?_Calculate_growth@?$basic_string@DU?$char_traits@D@std@@V?$allocator@D@2@@std@@ABEII@Z 10066996 f i libcpmt:locale.obj
 0001:000659b0       ?_Calculate_growth@?$basic_string@DU?$char_traits@D@std@@V?$allocator@D@2@@std@@CAIIII@Z 100669b0 f i libcpmt:locale.obj
 0001:000659e1       ?_Check_offset@?$_String_val@U?$_Simple_types@D@std@@@std@@QBEXI@Z 100669e1 f i libcpmt:locale.obj
 0001:000659f6       ?_Clamp_to_end@_Asan_aligned_pointers@std@@QBEPBXPBX@Z 100669f6 f i libcpmt:locale.obj
 0001:00065a07       ?_Construct_empty@?$basic_string@DU?$char_traits@D@std@@V?$allocator@D@2@@std@@AAEXXZ 10066a07 f i libcpmt:locale.obj
 0001:00065a19       ?_Create_annotation@?$basic_string@DU?$char_traits@D@std@@V?$allocator@D@2@@std@@ABEXXZ 10066a19 f i libcpmt:locale.obj
 0001:00065a33       ?_Eos@?$basic_string@DU?$char_traits@D@std@@V?$allocator@D@2@@std@@AAEXI@Z 10066a33 f i libcpmt:locale.obj
 0001:00065a5b       ?_Get_asan_aligned_after@std@@YAPBXQBX@Z 10066a5b f i libcpmt:locale.obj
 0001:00065a69       ?_Get_first@?$_Compressed_pair@U?$default_delete@V_Facet_base@std@@@std@@PAV_Facet_base@2@$00@std@@QAEAAU?$default_delete@V_Facet_base@std@@@2@XZ 10066a69 f i libcpmt:locale.obj
 0001:00065a6c       ?_Get_first@?$_Compressed_pair@V?$allocator@D@std@@V?$_String_val@U?$_Simple_types@D@std@@@2@$00@std@@QAEAAV?$allocator@D@2@XZ 10066a6c f i libcpmt:locale.obj
 0001:00065a6f       ?_Get_first@?$_Compressed_pair@V?$allocator@D@std@@V?$_String_val@U?$_Simple_types@D@std@@@2@$00@std@@QBEABV?$allocator@D@2@XZ 10066a6f f i libcpmt:locale.obj
 0001:00065a72       ?_Getal@?$basic_string@DU?$char_traits@D@std@@V?$allocator@D@2@@std@@AAEAAV?$allocator@D@2@XZ 10066a72 f i libcpmt:locale.obj
 0001:00065a75       ?_Getal@?$basic_string@DU?$char_traits@D@std@@V?$allocator@D@2@@std@@ABEABV?$allocator@D@2@XZ 10066a75 f i libcpmt:locale.obj
 0001:00065a78       ?_Getcat@?$codecvt@DDU_Mbstatet@@@std@@SAIPAPBVfacet@locale@2@PBV42@@Z 10066a78 f i libcpmt:locale.obj
 0001:00065ae3       ?_Getcat@?$ctype@D@std@@SAIPAPBVfacet@locale@2@PBV42@@Z 10066ae3 f i libcpmt:locale.obj
 0001:00065b49       ?_Getcat@?$num_get@DV?$istreambuf_iterator@DU?$char_traits@D@std@@@std@@@std@@SAIPAPBVfacet@locale@2@PBV42@@Z 10066b49 f i libcpmt:locale.obj
 0001:00065bb4       ?_Getcat@?$num_put@DV?$ostreambuf_iterator@DU?$char_traits@D@std@@@std@@@std@@SAIPAPBVfacet@locale@2@PBV42@@Z 10066bb4 f i libcpmt:locale.obj
 0001:00065c1f       ?_Getctype@_Locinfo@std@@QBE?AU_Ctypevec@@XZ 10066c1f f i libcpmt:locale.obj
 0001:00065c42       ?_Getcvt@_Locinfo@std@@QBE?AU_Cvtvec@@XZ 10066c42 f i libcpmt:locale.obj
 0001:00065c66       ?_Getfacet@locale@std@@QBEPBVfacet@12@I@Z 10066c66 f i libcpmt:locale.obj
 0001:00065ca7       ?_Getfalse@_Locinfo@std@@QBEPBDXZ 10066ca7 f i libcpmt:locale.obj
 0001:00065cad       ?_Getlconv@_Locinfo@std@@QBEPBUlconv@@XZ 10066cad f i libcpmt:locale.obj
 0001:00065cb2       ?_Getname@_Locinfo@std@@QBEPBDXZ 10066cb2 f i libcpmt:locale.obj
 0001:00065cbd       ?_Gettrue@_Locinfo@std@@QBEPBDXZ 10066cbd f i libcpmt:locale.obj
 0001:00065cc3       ?_Gnavail@?$basic_streambuf@DU?$char_traits@D@std@@@std@@IBE_JXZ 10066cc3 f i libcpmt:locale.obj
 0001:00065cd5       ?_Gninc@?$basic_streambuf@DU?$char_traits@D@std@@@std@@IAEPADXZ 10066cd5 f i libcpmt:locale.obj
 0001:00065ce5       ?_Ifmt@?$num_put@DV?$ostreambuf_iterator@DU?$char_traits@D@std@@@std@@@std@@ABAPADPADPBDH@Z 10066ce5 f i libcpmt:locale.obj
 0001:00065d5a       ?_Inc@?$istreambuf_iterator@DU?$char_traits@D@std@@@std@@AAEXXZ 10066d5a f i libcpmt:locale.obj
 0001:00065d7e       ?_Init@?$codecvt@DDU_Mbstatet@@@std@@IAEXABV_Locinfo@2@@Z 10066d7e f i libcpmt:locale.obj
 0001:00065d81       ?_Init@?$ctype@D@std@@IAEXABV_Locinfo@2@@Z 10066d81 f i libcpmt:locale.obj
 0001:00065da4       ?_Init@?$num_get@DV?$istreambuf_iterator@DU?$char_traits@D@std@@@std@@@std@@IAEXABV_Locinfo@2@@Z 10066da4 f i libcpmt:locale.obj
 0001:00065da7       ?_Init@?$num_put@DV?$ostreambuf_iterator@DU?$char_traits@D@std@@@std@@@std@@IAEXABV_Locinfo@2@@Z 10066da7 f i libcpmt:locale.obj
 0001:00065daa       ?_Init@?$numpunct@D@std@@IAEXABV_Locinfo@2@_N@Z 10066daa f i libcpmt:locale.obj
 0001:00065e4a       ?_Large_mode_engaged@?$_String_val@U?$_Simple_types@D@std@@@std@@QBE_NXZ 10066e4a f i libcpmt:locale.obj
 0001:00065e52       ?_Locimp_Addfac@_Locimp@locale@std@@CAXPAV123@PAVfacet@23@I@Z 10066e52 f   libcpmt:locale.obj
 0001:00065f25       ?_Locimp_ctor@_Locimp@locale@std@@CAXPAV123@ABV123@@Z 10066f25 f   libcpmt:locale.obj
 0001:00065fdf       ?_Locinfo_Addcats@_Locinfo@std@@SAAAV12@PAV12@HPBD@Z 10066fdf f   libcpmt:locale.obj
 0001:00066075       ?_Locinfo_ctor@_Locinfo@std@@SAXPAV12@HPBD@Z 10067075 f   libcpmt:locale.obj
 0001:000660ac       ?_Makeloc@_Locimp@locale@std@@CAPAV123@ABV_Locinfo@3@HPAV123@PBV23@@Z 100670ac f   libcpmt:locale.obj
 0001:000662a4       ?_Modify_annotation@?$basic_string@DU?$char_traits@D@std@@V?$allocator@D@2@@std@@ABEXII@Z 100672a4 f i libcpmt:locale.obj
 0001:000662cb       ?_Myptr@?$_String_val@U?$_Simple_types@D@std@@@std@@QAEPADXZ 100672cb f i libcpmt:locale.obj
 0001:000662d6       ?_Myptr@?$_String_val@U?$_Simple_types@D@std@@@std@@QBEPBDXZ 100672d6 f i libcpmt:locale.obj
 0001:000662e1       ?_Orphan_all@_Container_base0@std@@QAEXXZ 100672e1 f i libcpmt:locale.obj
 0001:000662e4       ?_Peek@?$istreambuf_iterator@DU?$char_traits@D@std@@@std@@ABEDXZ 100672e4 f i libcpmt:locale.obj
 0001:0006630b       ?_Pnavail@?$basic_streambuf@DU?$char_traits@D@std@@@std@@IBE_JXZ 1006730b f i libcpmt:locale.obj
 0001:0006631d       ?_Pninc@?$basic_streambuf@DU?$char_traits@D@std@@@std@@IAEPADXZ 1006731d f i libcpmt:locale.obj
 0001:0006632d       ?_Release@_Fake_proxy_ptr_impl@std@@QAEXXZ 1006732d f i libcpmt:locale.obj
 0001:00066330       ?_Remove_annotation@?$basic_string@DU?$char_traits@D@std@@V?$allocator@D@2@@std@@ABEXXZ 10067330 f i libcpmt:locale.obj
 0001:0006634a       ?_Stodx_v3@std@@YANPBDPAPADPAH@Z 1006734a f i libcpmt:locale.obj
 0001:00066378       ?_Stofx_v3@std@@YAMPBDPAPADPAH@Z 10067378 f i libcpmt:locale.obj
 0001:000663ad       ?_Swap_proxy_and_iterators@?$basic_string@DU?$char_traits@D@std@@V?$allocator@D@2@@std@@AAEXAAV12@@Z 100673ad f i libcpmt:locale.obj
 0001:000663b0       ?_Swap_proxy_and_iterators@_Container_base0@std@@QAEXAAU12@@Z 100673b0 f i libcpmt:locale.obj
 0001:000663b3       ?_Switch_to_buf@_Bxty@?$_String_val@U?$_Simple_types@D@std@@@std@@QAEXXZ 100673b3 f i libcpmt:locale.obj
 0001:000663b6       ?_Take_contents@?$basic_string@DU?$char_traits@D@std@@V?$allocator@D@2@@std@@AAEXAAV12@@Z 100673b6 f i libcpmt:locale.obj
 0001:000663fe       ?_Tidy@?$_Yarn@_W@std@@AAEXXZ 100673fe f i libcpmt:locale.obj
 0001:00066416       ?_Tidy@?$ctype@D@std@@IAEXXZ 10067416 f i libcpmt:locale.obj
 0001:00066440       ?_Tidy@?$numpunct@D@std@@AAEXXZ 10067440 f i libcpmt:locale.obj
 0001:00066460       ?_Tidy_deallocate@?$basic_string@DU?$char_traits@D@std@@V?$allocator@D@2@@std@@AAEXXZ 10067460 f i libcpmt:locale.obj
 0001:0006648f       ?allocate@?$allocator@D@std@@QAEPADI@Z 1006748f f i libcpmt:locale.obj
 0001:0006649f       ?append@?$basic_string@DU?$char_traits@D@std@@V?$allocator@D@2@@std@@QAEAAV12@ABV12@@Z 1006749f f i libcpmt:locale.obj
 0001:000664bb       ?assign@?$_Char_traits@DH@std@@SAPADQADID@Z 100674bb f i libcpmt:locale.obj
 0001:000664da       ?assign@?$_Char_traits@DH@std@@SAXAADABD@Z 100674da f i libcpmt:locale.obj
 0001:000664e9       ?assign@?$_Narrow_char_traits@DH@std@@SAPADQADID@Z 100674e9 f i libcpmt:locale.obj
 0001:00066501       ?assign@?$_Narrow_char_traits@DH@std@@SAXAADABD@Z 10067501 f i libcpmt:locale.obj
 0001:00066510       ?assign@?$basic_string@DU?$char_traits@D@std@@V?$allocator@D@2@@std@@QAEAAV12@$$QAV12@@Z 10067510 f i libcpmt:locale.obj
 0001:00066525       ?c_str@?$basic_string@DU?$char_traits@D@std@@V?$allocator@D@2@@std@@QBEPBDXZ 10067525 f i libcpmt:locale.obj
 0001:00066530       ?copy@?$_Char_traits@DH@std@@SAPADQADQBDI@Z 10067530 f i libcpmt:locale.obj
 0001:00066549       ?data@?$basic_string@DU?$char_traits@D@std@@V?$allocator@D@2@@std@@QBEPBDXZ 10067549 f i libcpmt:locale.obj
 0001:00066554       ?decimal_point@?$numpunct@D@std@@QBEDXZ 10067554 f i libcpmt:locale.obj
 0001:0006656c       ?do_get@?$num_get@DV?$istreambuf_iterator@DU?$char_traits@D@std@@@std@@@std@@MBE?AV?$istreambuf_iterator@DU?$char_traits@D@std@@@2@V32@0AAVios_base@2@AAHAAG@Z 1006756c f i libcpmt:locale.obj
 0001:00066665       ?do_get@?$num_get@DV?$istreambuf_iterator@DU?$char_traits@D@std@@@std@@@std@@MBE?AV?$istreambuf_iterator@DU?$char_traits@D@std@@@2@V32@0AAVios_base@2@AAHAAI@Z 10067665 f i libcpmt:locale.obj
 0001:000666a5       ?do_get@?$num_get@DV?$istreambuf_iterator@DU?$char_traits@D@std@@@std@@@std@@MBE?AV?$istreambuf_iterator@DU?$char_traits@D@std@@@2@V32@0AAVios_base@2@AAHAAJ@Z 100676a5 f i libcpmt:locale.obj
 0001:00066778       ?do_get@?$num_get@DV?$istreambuf_iterator@DU?$char_traits@D@std@@@std@@@std@@MBE?AV?$istreambuf_iterator@DU?$char_traits@D@std@@@2@V32@0AAVios_base@2@AAHAAK@Z 10067778 f i libcpmt:locale.obj
 0001:0006684b       ?do_get@?$num_get@DV?$istreambuf_iterator@DU?$char_traits@D@std@@@std@@@std@@MBE?AV?$istreambuf_iterator@DU?$char_traits@D@std@@@2@V32@0AAVios_base@2@AAHAAM@Z 1006784b f i libcpmt:locale.obj
 0001:0006693b       ?do_get@?$num_get@DV?$istreambuf_iterator@DU?$char_traits@D@std@@@std@@@std@@MBE?AV?$istreambuf_iterator@DU?$char_traits@D@std@@@2@V32@0AAVios_base@2@AAHAAN@Z 1006793b f i libcpmt:locale.obj
 0001:00066a2c       ?do_get@?$num_get@DV?$istreambuf_iterator@DU?$char_traits@D@std@@@std@@@std@@MBE?AV?$istreambuf_iterator@DU?$char_traits@D@std@@@2@V32@0AAVios_base@2@AAHAAO@Z 10067a2c f i libcpmt:locale.obj
 0001:00066a6e       ?do_get@?$num_get@DV?$istreambuf_iterator@DU?$char_traits@D@std@@@std@@@std@@MBE?AV?$istreambuf_iterator@DU?$char_traits@D@std@@@2@V32@0AAVios_base@2@AAHAAPAX@Z 10067a6e f i libcpmt:locale.obj
 0001:00066b41       ?do_get@?$num_get@DV?$istreambuf_iterator@DU?$char_traits@D@std@@@std@@@std@@MBE?AV?$istreambuf_iterator@DU?$char_traits@D@std@@@2@V32@0AAVios_base@2@AAHAA_J@Z 10067b41 f i libcpmt:locale.obj
 0001:00066c19       ?do_get@?$num_get@DV?$istreambuf_iterator@DU?$char_traits@D@std@@@std@@@std@@MBE?AV?$istreambuf_iterator@DU?$char_traits@D@std@@@2@V32@0AAVios_base@2@AAHAA_K@Z 10067c19 f i libcpmt:locale.obj
 0001:00066cf1       ?do_get@?$num_get@DV?$istreambuf_iterator@DU?$char_traits@D@std@@@std@@@std@@MBE?AV?$istreambuf_iterator@DU?$char_traits@D@std@@@2@V32@0AAVios_base@2@AAHAA_N@Z 10067cf1 f i libcpmt:locale.obj
 0001:00066ef4       ?empty@?$basic_string@DU?$char_traits@D@std@@V?$allocator@D@2@@std@@QBE_NXZ 10067ef4 f i libcpmt:locale.obj
 0001:00066efc       ?eof@?$_Narrow_char_traits@DH@std@@SAHXZ 10067efc f i libcpmt:locale.obj
 0001:00066f00       ?eq_int_type@?$_Narrow_char_traits@DH@std@@SA_NHH@Z 10067f00 f i libcpmt:locale.obj
 0001:00066f0e       ?equal@?$istreambuf_iterator@DU?$char_traits@D@std@@@std@@QBE_NABV12@@Z 10067f0e f i libcpmt:locale.obj
 0001:00066f48       ?falsename@?$numpunct@D@std@@QBE?AV?$basic_string@DU?$char_traits@D@std@@V?$allocator@D@2@@2@XZ 10067f48 f i libcpmt:locale.obj
 0001:00066f6d       ?flags@ios_base@std@@QBEHXZ 10067f6d f i libcpmt:locale.obj
 0001:00066f71       ?fpclassify@@YAHN@Z        10067f71 f i libcpmt:locale.obj
 0001:00066f86       ?fpclassify@@YAHO@Z        10067f86 f i libcpmt:locale.obj
 0001:00066f9b       ?getloc@ios_base@std@@QBE?AVlocale@2@XZ 10067f9b f i libcpmt:locale.obj
 0001:00066fb0       ?global@locale@std@@SA?AV12@ABV12@@Z 10067fb0 f   libcpmt:locale.obj
 0001:00067098       ?gptr@?$basic_streambuf@DU?$char_traits@D@std@@@std@@IBEPADXZ 10068098 f i libcpmt:locale.obj
 0001:0006709e       ?insert@?$basic_string@DU?$char_traits@D@std@@V?$allocator@D@2@@std@@QAEAAV12@IID@Z 1006809e f i libcpmt:locale.obj
 0001:0006711e       ?is_constant_evaluated@std@@YA_NXZ 1006811e f i libcpmt:locale.obj
 0001:00067121       ?length@?$_Narrow_char_traits@DH@std@@SAIQBD@Z 10068121 f i libcpmt:locale.obj
 0001:00067135       ?max_size@?$_Default_allocator_traits@V?$allocator@D@std@@@std@@SAIABV?$allocator@D@2@@Z 10068135 f i libcpmt:locale.obj
 0001:00067139       ?max_size@?$basic_string@DU?$char_traits@D@std@@V?$allocator@D@2@@std@@QBEIXZ 10068139 f i libcpmt:locale.obj
 0001:0006713f       ?move@?$_Char_traits@DH@std@@SAPADQADQBDI@Z 1006813f f i libcpmt:locale.obj
 0001:00067158       ?precision@ios_base@std@@QBE_JXZ 10068158 f i libcpmt:locale.obj
 0001:0006715f       ?release@?$unique_ptr@V_Facet_base@std@@U?$default_delete@V_Facet_base@std@@@2@@std@@QAEPAV_Facet_base@2@XZ 1006815f f i libcpmt:locale.obj
 0001:00067168       ?sbumpc@?$basic_streambuf@DU?$char_traits@D@std@@@std@@QAEHXZ 10068168 f i libcpmt:locale.obj
 0001:000671a1       ?sgetc@?$basic_streambuf@DU?$char_traits@D@std@@@std@@QAEHXZ 100681a1 f i libcpmt:locale.obj
 0001:000671cf       ?size@?$basic_string@DU?$char_traits@D@std@@V?$allocator@D@2@@std@@QBEIXZ 100681cf f i libcpmt:locale.obj
 0001:000671d3       ?thousands_sep@?$numpunct@D@std@@QBEDXZ 100681d3 f i libcpmt:locale.obj
 0001:000671eb       ?to_char_type@?$_Narrow_char_traits@DH@std@@SADH@Z 100681eb f i libcpmt:locale.obj
 0001:000671f3       ?to_int_type@?$_Narrow_char_traits@DH@std@@SAHD@Z 100681f3 f i libcpmt:locale.obj
 0001:000671fc       ?tolower@?$ctype@D@std@@QBEDD@Z 100681fc f i libcpmt:locale.obj
 0001:0006721d       ?truename@?$numpunct@D@std@@QBE?AV?$basic_string@DU?$char_traits@D@std@@V?$allocator@D@2@@2@XZ 1006821d f i libcpmt:locale.obj
 0001:00067242       ?widen@?$ctype@D@std@@QBEPBDPBD0PAD@Z 10068242 f i libcpmt:locale.obj
 0001:00067269       ?width@ios_base@std@@QBE_JXZ 10068269 f i libcpmt:locale.obj
 0001:00067270       __vsprintf_s_l             10068270 f i libcpmt:locale.obj
 0001:0006729e       _fabsl                     1006829e f i libcpmt:locale.obj
 0001:000672b9       _frexpl                    100682b9 f i libcpmt:locale.obj
 0001:000672d5       ??1_Init_atexit@@QAE@XZ    100682d5 f i libcpmt:iosptrs.obj
 0001:0006733d       ?_Atexit@@YAXP6AXXZ@Z      1006833d f   libcpmt:iosptrs.obj
 0001:0006736c       ??0?$__crt_scoped_stack_ptr@_W@@QAE@U?$__crt_scoped_stack_ptr_tag@_W@@@Z 1006836c f i libcpmt:StlLCMapStringA.obj
 0001:0006737a       ??0?$__crt_scoped_stack_ptr_tag@_W@@QAE@QA_W@Z 1006837a f i libcpmt:StlLCMapStringA.obj
 0001:00067388       ??1?$__crt_scoped_stack_ptr@_W@@QAE@XZ 10068388 f i libcpmt:StlLCMapStringA.obj
 0001:000673a1       ??B?$__crt_scoped_stack_ptr@_W@@QBE_NXZ 100683a1 f i libcpmt:StlLCMapStringA.obj
 0001:000673a8       ?get@?$__crt_scoped_stack_ptr@_W@@QBEPA_WXZ 100683a8 f i libcpmt:StlLCMapStringA.obj
 0001:000673ab       __MallocaComputeSize       100683ab f i libcpmt:StlLCMapStringA.obj
 0001:000673bc       __MarkAllocaS              100683bc f i libcpmt:StlLCMapStringA.obj
 0001:000673d0       ___crtLCMapStringA         100683d0 f   libcpmt:StlLCMapStringA.obj
 0001:000675a0       __freea_crt                100685a0 f i libcpmt:StlLCMapStringA.obj
 0001:000675be       ??$?0$$V@?$_Compressed_pair@V?$allocator@G@std@@V?$_String_val@U?$_Simple_types@G@std@@@2@$00@std@@QAE@U_Zero_then_variadic_args_t@1@@Z 100685be f i libcpmt:wlocale.obj
 0001:000675db       ??$?0$$V@?$_Compressed_pair@V?$allocator@_W@std@@V?$_String_val@U?$_Simple_types@_W@std@@@2@$00@std@@QAE@U_Zero_then_variadic_args_t@1@@Z 100685db f i libcpmt:wlocale.obj
 0001:000675f8       ??$?0V?$allocator@D@std@@$$V@?$_Compressed_pair@V?$allocator@D@std@@V?$_String_val@U?$_Simple_types@D@std@@@2@$00@std@@QAE@U_One_then_variadic_args_t@1@$$QAV?$allocator@D@1@@Z 100685f8 f i libcpmt:wlocale.obj
 0001:00067615       ??$?0V?$allocator@G@std@@$$V@?$_Compressed_pair@V?$allocator@G@std@@V?$_String_val@U?$_Simple_types@G@std@@@2@$00@std@@QAE@U_One_then_variadic_args_t@1@$$QAV?$allocator@G@1@@Z 10068615 f i libcpmt:wlocale.obj
 0001:00067632       ??$?0V?$allocator@_W@std@@$$V@?$_Compressed_pair@V?$allocator@_W@std@@V?$_String_val@U?$_Simple_types@_W@std@@@2@$00@std@@QAE@U_One_then_variadic_args_t@1@$$QAV?$allocator@_W@1@@Z 10068632 f i libcpmt:wlocale.obj
 0001:0006764f       ??$?8GU?$char_traits@G@std@@@std@@YA_NABV?$istreambuf_iterator@GU?$char_traits@G@std@@@0@0@Z 1006864f f i libcpmt:wlocale.obj
 0001:0006765f       ??$?8_WU?$char_traits@_W@std@@@std@@YA_NABV?$istreambuf_iterator@_WU?$char_traits@_W@std@@@0@0@Z 1006865f f i libcpmt:wlocale.obj
 0001:0006766f       ??$_Adl_verify_range@PAGPAG@std@@YAXABQAG0@Z 1006866f f i libcpmt:wlocale.obj
 0001:00067672       ??$_Adl_verify_range@PAGPBG@std@@YAXABQAGABQBG@Z 10068672 f i libcpmt:wlocale.obj
 0001:00067675       ??$_Adl_verify_range@PA_WPA_W@std@@YAXABQA_W0@Z 10068675 f i libcpmt:wlocale.obj
 0001:00067678       ??$_Adl_verify_range@PA_WPB_W@std@@YAXABQA_WABQB_W@Z 10068678 f i libcpmt:wlocale.obj
 0001:0006767b       ??$_Adl_verify_range@PBGPBG@std@@YAXABQBG0@Z 1006867b f i libcpmt:wlocale.obj
 0001:0006767e       ??$_Adl_verify_range@PB_WPB_W@std@@YAXABQB_W0@Z 1006867e f i libcpmt:wlocale.obj
 0001:00067681       ??$_Adl_verify_range@V?$istreambuf_iterator@GU?$char_traits@G@std@@@std@@V12@@std@@YAXABV?$istreambuf_iterator@GU?$char_traits@G@std@@@0@0@Z 10068681 f i libcpmt:wlocale.obj
 0001:00067684       ??$_Adl_verify_range@V?$istreambuf_iterator@_WU?$char_traits@_W@std@@@std@@V12@@std@@YAXABV?$istreambuf_iterator@_WU?$char_traits@_W@std@@@0@0@Z 10068684 f i libcpmt:wlocale.obj
 0001:00067687       ??$_Allocate_at_least_helper@V?$allocator@G@std@@@std@@YAPAGAAV?$allocator@G@0@AAI@Z 10068687 f i libcpmt:wlocale.obj
 0001:00067699       ??$_Allocate_at_least_helper@V?$allocator@_W@std@@@std@@YAPA_WAAV?$allocator@_W@0@AAI@Z 10068699 f i libcpmt:wlocale.obj
 0001:000676ab       ??$_Allocate_for_capacity@$0A@@?$basic_string@_WU?$char_traits@_W@std@@V?$allocator@_W@2@@std@@CAPA_WAAV?$allocator@_W@1@AAI@Z 100686ab f i libcpmt:wlocale.obj
 0001:000676c3       ??$_Bit_cast@IT_Addr_storage@error_category@std@@$0A@@std@@YAIABT_Addr_storage@error_category@0@@Z 100686c3 f i libcpmt:wlocale.obj
 0001:000676cd       ??$_Construct@$00PB_W@?$basic_string@_WU?$char_traits@_W@std@@V?$allocator@_W@2@@std@@AAEXQB_WI@Z 100686cd f i libcpmt:wlocale.obj
 0001:00067755       ??$_Construct@$01PBD@?$basic_string@DU?$char_traits@D@std@@V?$allocator@D@2@@std@@AAEXQBDI@Z 10068755 f i libcpmt:wlocale.obj
 0001:000677c7       ??$_Construct@$01PBG@?$basic_string@GU?$char_traits@G@std@@V?$allocator@G@2@@std@@AAEXQBGI@Z 100687c7 f i libcpmt:wlocale.obj
 0001:00067846       ??$_Construct@$01PB_W@?$basic_string@_WU?$char_traits@_W@std@@V?$allocator@_W@2@@std@@AAEXQB_WI@Z 10068846 f i libcpmt:wlocale.obj
 0001:000678c5       ??$_Construct@$0A@G@?$basic_string@GU?$char_traits@G@std@@V?$allocator@G@2@@std@@AAEXGI@Z 100688c5 f i libcpmt:wlocale.obj
 0001:0006794c       ??$_Construct@$0A@_W@?$basic_string@_WU?$char_traits@_W@std@@V?$allocator@_W@2@@std@@AAEX_WI@Z 1006894c f i libcpmt:wlocale.obj
 0001:000679d3       ??$_Construct_in_place@PAGAAPAG@std@@YAXAAPAG0@Z 100689d3 f i libcpmt:wlocale.obj
 0001:000679e2       ??$_Construct_in_place@PAGABQAG@std@@YAXAAPAGABQAG@Z 100689e2 f i libcpmt:wlocale.obj
 0001:000679f1       ??$_Construct_in_place@PA_WAAPA_W@std@@YAXAAPA_W0@Z 100689f1 f i libcpmt:wlocale.obj
 0001:00067a00       ??$_Construct_in_place@PA_WABQA_W@std@@YAXAAPA_WABQA_W@Z 10068a00 f i libcpmt:wlocale.obj
 0001:00067a0f       ??$_Copy_unchecked@PA_WPA_WV?$ostreambuf_iterator@GU?$char_traits@G@std@@@std@@@std@@YA?AV?$ostreambuf_iterator@GU?$char_traits@G@std@@@0@PA_W0V10@@Z 10068a0f f i libcpmt:wlocale.obj
 0001:00067a3d       ??$_Copy_unchecked@PA_WPA_WV?$ostreambuf_iterator@_WU?$char_traits@_W@std@@@std@@@std@@YA?AV?$ostreambuf_iterator@_WU?$char_traits@_W@std@@@0@PA_W0V10@@Z 10068a3d f i libcpmt:wlocale.obj
 0001:00067a6b       ??$_Could_compare_equal_to_value_type@PBGG@std@@YA_NABG@Z 10068a6b f i libcpmt:wlocale.obj
 0001:00067a6e       ??$_Could_compare_equal_to_value_type@PB_W_W@std@@YA_NAB_W@Z 10068a6e f i libcpmt:wlocale.obj
 0001:00067a71       ??$_Destroy_in_place@PAG@std@@YAXAAPAG@Z 10068a71 f i libcpmt:wlocale.obj
 0001:00067a74       ??$_Destroy_in_place@PA_W@std@@YAXAAPA_W@Z 10068a74 f i libcpmt:wlocale.obj
 0001:00067a77       ??$_Find_elem@G$0BL@@std@@YAIAAY0BL@$$CBGG@Z 10068a77 f i libcpmt:wlocale.obj
 0001:00067a92       ??$_Find_elem@G$0BN@@std@@YAIAAY0BN@$$CBGG@Z 10068a92 f i libcpmt:wlocale.obj
 0001:00067aad       ??$_Find_elem@G$0M@@std@@YAIAAY0M@$$CBGG@Z 10068aad f i libcpmt:wlocale.obj
 0001:00067ac8       ??$_Find_elem@_W$0BL@@std@@YAIAAY0BL@$$CB_W_W@Z 10068ac8 f i libcpmt:wlocale.obj
 0001:00067ae3       ??$_Find_elem@_W$0BN@@std@@YAIAAY0BN@$$CB_W_W@Z 10068ae3 f i libcpmt:wlocale.obj
 0001:00067afe       ??$_Find_elem@_W$0M@@std@@YAIAAY0M@$$CB_W_W@Z 10068afe f i libcpmt:wlocale.obj
 0001:00067b19       ??$_Find_unchecked@PBGG@std@@YAPBGPBGQBGABG@Z 10068b19 f i libcpmt:wlocale.obj
 0001:00067b30       ??$_Find_unchecked@PB_W_W@std@@YAPB_WPB_WQB_WAB_W@Z 10068b30 f i libcpmt:wlocale.obj
 0001:00067b47       ??$_Find_vectorized@$$CBGG@std@@YAPBGQBG0G@Z 10068b47 f i libcpmt:wlocale.obj
 0001:00067b5a       ??$_Find_vectorized@$$CB_W_W@std@@YAPB_WQB_W0_W@Z 10068b5a f i libcpmt:wlocale.obj
 0001:00067b6d       ??$_Fput_v3@$0A@@?$num_put@GV?$ostreambuf_iterator@GU?$char_traits@G@std@@@std@@@std@@ABE?AV?$ostreambuf_iterator@GU?$char_traits@G@std@@@1@V21@AAVios_base@1@GPBDI_N@Z 10068b6d f i libcpmt:wlocale.obj
 0001:00067e88       ??$_Fput_v3@$0A@@?$num_put@_WV?$ostreambuf_iterator@_WU?$char_traits@_W@std@@@std@@@std@@ABE?AV?$ostreambuf_iterator@_WU?$char_traits@_W@std@@@1@V21@AAVios_base@1@_WPBDI_N@Z 10068e88 f i libcpmt:wlocale.obj
 0001:000681a3       ??$_Get_size_of_n@$01@std@@YAII@Z 100691a3 f i libcpmt:wlocale.obj
 0001:000681b8       ??$_Get_unwrapped@AAPA_W@std@@YA?A_TAAPA_W@Z 100691b8 f i libcpmt:wlocale.obj
 0001:000681c2       ??$_Get_unwrapped_n@V?$ostreambuf_iterator@GU?$char_traits@G@std@@@std@@H@std@@YA?A_T$$QAV?$ostreambuf_iterator@GU?$char_traits@G@std@@@0@H@Z 100691c2 f i libcpmt:wlocale.obj
 0001:000681ca       ??$_Get_unwrapped_n@V?$ostreambuf_iterator@_WU?$char_traits@_W@std@@@std@@H@std@@YA?A_T$$QAV?$ostreambuf_iterator@_WU?$char_traits@_W@std@@@0@H@Z 100691ca f i libcpmt:wlocale.obj
 0001:000681d2       ??$_Getint_v2@V?$istreambuf_iterator@GU?$char_traits@G@std@@@std@@G@std@@YAHAAV?$istreambuf_iterator@GU?$char_traits@G@std@@@0@0HHAAH1ABV?$ctype@G@0@@Z 100691d2 f i libcpmt:wlocale.obj
 0001:0006840b       ??$_Getint_v2@V?$istreambuf_iterator@_WU?$char_traits@_W@std@@@std@@_W@std@@YAHAAV?$istreambuf_iterator@_WU?$char_traits@_W@std@@@0@0HHAAH1ABV?$ctype@_W@0@@Z 1006940b f i libcpmt:wlocale.obj
 0001:00068644       ??$_Getloctxt@V?$istreambuf_iterator@GU?$char_traits@G@std@@@std@@D@std@@YAHAAV?$istreambuf_iterator@GU?$char_traits@G@std@@@0@0IPBDW4_Case_sensitive@0@@Z 10069644 f i libcpmt:wlocale.obj
 0001:0006886b       ??$_Getloctxt@V?$istreambuf_iterator@GU?$char_traits@G@std@@@std@@G@std@@YAHAAV?$istreambuf_iterator@GU?$char_traits@G@std@@@0@0IPBGW4_Case_sensitive@0@@Z 1006986b f i libcpmt:wlocale.obj
 0001:00068a86       ??$_Getloctxt@V?$istreambuf_iterator@_WU?$char_traits@_W@std@@@std@@D@std@@YAHAAV?$istreambuf_iterator@_WU?$char_traits@_W@std@@@0@0IPBDW4_Case_sensitive@0@@Z 10069a86 f i libcpmt:wlocale.obj
 0001:00068cad       ??$_Getloctxt@V?$istreambuf_iterator@_WU?$char_traits@_W@std@@@std@@_W@std@@YAHAAV?$istreambuf_iterator@_WU?$char_traits@_W@std@@@0@0IPB_WW4_Case_sensitive@0@@Z 10069cad f i libcpmt:wlocale.obj
 0001:00068ec8       ??$_Getvals@G@?$time_get@GV?$istreambuf_iterator@GU?$char_traits@G@std@@@std@@@std@@IAEXGABV_Locinfo@1@@Z 10069ec8 f i libcpmt:wlocale.obj
 0001:00068f33       ??$_Getvals@_W@?$time_get@_WV?$istreambuf_iterator@_WU?$char_traits@_W@std@@@std@@@std@@IAEX_WABV_Locinfo@1@@Z 10069f33 f i libcpmt:wlocale.obj
 0001:00068f8c       ??$_Hash_array_representation@_W@std@@YAIQB_WI@Z 10069f8c f i libcpmt:wlocale.obj
 0001:00068fa7       ??$_Idl_distance@PA_WPA_W@std@@YA?A_PABQA_W0@Z 10069fa7 f i libcpmt:wlocale.obj
 0001:00068fb8       ??$_LStrcoll@G@std@@YAHPBG000PBU_Collvec@@@Z 10069fb8 f i libcpmt:wlocale.obj
 0001:00068fff       ??$_LStrcoll@_W@std@@YAHPB_W000PBU_Collvec@@@Z 10069fff f i libcpmt:wlocale.obj
 0001:00069008       ??$_LStrxfrm@G@std@@YAIPAG0PBG1PBU_Collvec@@@Z 1006a008 f i libcpmt:wlocale.obj
 0001:00069037       ??$_LStrxfrm@_W@std@@YAIPA_W0PB_W1PBU_Collvec@@@Z 1006a037 f i libcpmt:wlocale.obj
 0001:00069040       ??$_Maklocchr@G@std@@YAGDPAGABU_Cvtvec@@@Z 1006a040 f i libcpmt:wlocale.obj
 0001:00069073       ??$_Maklocchr@_W@std@@YA_WDPA_WABU_Cvtvec@@@Z 1006a073 f i libcpmt:wlocale.obj
 0001:000690a6       ??$_Maklocstr@G@std@@YAPAGPBDPAGABU_Cvtvec@@@Z 1006a0a6 f i libcpmt:wlocale.obj
 0001:0006914e       ??$_Maklocstr@_W@std@@YAPA_WPBDPA_WABU_Cvtvec@@@Z 1006a14e f i libcpmt:wlocale.obj
 0001:000691f6       ??$_Parse_fp_with_locale@$0A@@?$num_get@GV?$istreambuf_iterator@GU?$char_traits@G@std@@@std@@@std@@CA?AU_Num_get_parse_result@1@QADHAAV?$istreambuf_iterator@GU?$char_traits@G@std@@@1@1ABVlocale@1@@Z 1006a1f6 f i libcpmt:wlocale.obj
 0001:00069c1b       ??$_Parse_fp_with_locale@$0A@@?$num_get@_WV?$istreambuf_iterator@_WU?$char_traits@_W@std@@@std@@@std@@CA?AU_Num_get_parse_result@1@QADHAAV?$istreambuf_iterator@_WU?$char_traits@_W@std@@@1@1ABVlocale@1@@Z 1006ac1b f i libcpmt:wlocale.obj
 0001:0006a640       ??$_Parse_int_with_locale@$0A@@?$num_get@GV?$istreambuf_iterator@GU?$char_traits@G@std@@@std@@@std@@CA?AU_Num_get_parse_result@1@QADAAV?$istreambuf_iterator@GU?$char_traits@G@std@@@1@1HABVlocale@1@@Z 1006b640 f i libcpmt:wlocale.obj
 0001:0006ab2c       ??$_Parse_int_with_locale@$0A@@?$num_get@_WV?$istreambuf_iterator@_WU?$char_traits@_W@std@@@std@@@std@@CA?AU_Num_get_parse_result@1@QADAAV?$istreambuf_iterator@_WU?$char_traits@_W@std@@@1@1HABVlocale@1@@Z 1006bb2c f i libcpmt:wlocale.obj
 0001:0006b018       ??$_Pocma@V?$allocator@G@std@@@std@@YAXAAV?$allocator@G@0@0@Z 1006c018 f i libcpmt:wlocale.obj
 0001:0006b01b       ??$_Pocma@V?$allocator@_W@std@@@std@@YAXAAV?$allocator@_W@0@0@Z 1006c01b f i libcpmt:wlocale.obj
 0001:0006b01e       ??$_Reallocate_grow_by@V<lambda_1>@?1??append@?$basic_string@GU?$char_traits@G@std@@V?$allocator@G@2@@std@@QAEAAV34@IG@Z@IG@?$basic_string@GU?$char_traits@G@std@@V?$allocator@G@2@@std@@AAEAAV01@IV<lambda_1>@?1??append@01@QAEAAV01@IG@Z@IG@Z 1006c01e f i libcpmt:wlocale.obj
 0001:0006b0c2       ??$_Reallocate_grow_by@V<lambda_1>@?1??append@?$basic_string@GU?$char_traits@G@std@@V?$allocator@G@2@@std@@QAEAAV34@QBGI@Z@PBGI@?$basic_string@GU?$char_traits@G@std@@V?$allocator@G@2@@std@@AAEAAV01@IV<lambda_1>@?1??append@01@QAEAAV01@QBGI@Z@PBGI@Z 1006c0c2 f i libcpmt:wlocale.obj
 0001:0006b166       ??$_Reallocate_grow_by@V<lambda_1>@?1??append@?$basic_string@_WU?$char_traits@_W@std@@V?$allocator@_W@2@@std@@QAEAAV34@I_W@Z@I_W@?$basic_string@_WU?$char_traits@_W@std@@V?$allocator@_W@2@@std@@AAEAAV01@IV<lambda_1>@?1??append@01@QAEAAV01@I_W@Z@I_W@Z 1006c166 f i libcpmt:wlocale.obj
 0001:0006b20a       ??$_Reallocate_grow_by@V<lambda_1>@?1??append@?$basic_string@_WU?$char_traits@_W@std@@V?$allocator@_W@2@@std@@QAEAAV34@QB_WI@Z@PB_WI@?$basic_string@_WU?$char_traits@_W@std@@V?$allocator@_W@2@@std@@AAEAAV01@IV<lambda_1>@?1??append@01@QAEAAV01@QB_WI@Z@PB_WI@Z 1006c20a f i libcpmt:wlocale.obj
 0001:0006b2ae       ??$_Reallocate_grow_by@V<lambda_1>@?1??insert@?$basic_string@GU?$char_traits@G@std@@V?$allocator@G@2@@std@@QAEAAV34@IIG@Z@IIG@?$basic_string@GU?$char_traits@G@std@@V?$allocator@G@2@@std@@AAEAAV01@IV<lambda_1>@?1??insert@01@QAEAAV01@IIG@Z@IIG@Z 1006c2ae f i libcpmt:wlocale.obj
 0001:0006b359       ??$_Reallocate_grow_by@V<lambda_1>@?1??insert@?$basic_string@_WU?$char_traits@_W@std@@V?$allocator@_W@2@@std@@QAEAAV34@II_W@Z@II_W@?$basic_string@_WU?$char_traits@_W@std@@V?$allocator@_W@2@@std@@AAEAAV01@IV<lambda_1>@?1??insert@01@QAEAAV01@II_W@Z@II_W@Z 1006c359 f i libcpmt:wlocale.obj
 0001:0006b404       ??$_Reallocate_grow_by@V<lambda_1>@?1??push_back@?$basic_string@GU?$char_traits@G@std@@V?$allocator@G@2@@std@@QAEXG@Z@G@?$basic_string@GU?$char_traits@G@std@@V?$allocator@G@2@@std@@AAEAAV01@IV<lambda_1>@?1??push_back@01@QAEXG@Z@G@Z 1006c404 f i libcpmt:wlocale.obj
 0001:0006b4d3       ??$_Reallocate_grow_by@V<lambda_1>@?1??push_back@?$basic_string@_WU?$char_traits@_W@std@@V?$allocator@_W@2@@std@@QAEX_W@Z@_W@?$basic_string@_WU?$char_traits@_W@std@@V?$allocator@_W@2@@std@@AAEAAV01@IV<lambda_1>@?1??push_back@01@QAEX_W@Z@_W@Z 1006c4d3 f i libcpmt:wlocale.obj
 0001:0006b5a2       ??$_Refancy@PAG$0A@@std@@YAPAGPAG@Z 1006c5a2 f i libcpmt:wlocale.obj
 0001:0006b5aa       ??$_Refancy@PA_W$0A@@std@@YAPA_WPA_W@Z 1006c5aa f i libcpmt:wlocale.obj
 0001:0006b5b2       ??$_Seek_wrapped@V?$ostreambuf_iterator@GU?$char_traits@G@std@@@std@@V12@@std@@YAXAAV?$ostreambuf_iterator@GU?$char_traits@G@std@@@0@$$QAV10@@Z 1006c5b2 f i libcpmt:wlocale.obj
 0001:0006b5c7       ??$_Seek_wrapped@V?$ostreambuf_iterator@_WU?$char_traits@_W@std@@@std@@V12@@std@@YAXAAV?$ostreambuf_iterator@_WU?$char_traits@_W@std@@@0@$$QAV10@@Z 1006c5c7 f i libcpmt:wlocale.obj
 0001:0006b5dc       ??$_To_address@PBG@std@@YA?A_PABQBG@Z 1006c5dc f i libcpmt:wlocale.obj
 0001:0006b5e6       ??$_To_address@PB_W@std@@YA?A_PABQB_W@Z 1006c5e6 f i libcpmt:wlocale.obj
 0001:0006b5f0       ??$_Unfancy@G@std@@YAPAGPAG@Z 1006c5f0 f i libcpmt:wlocale.obj
 0001:0006b5f8       ??$_Unfancy@_W@std@@YAPA_WPA_W@Z 1006c5f8 f i libcpmt:wlocale.obj
 0001:0006b600       ??$addressof@$$CBV?$moneypunct@G$00@std@@@std@@YAPBV?$moneypunct@G$00@0@ABV10@@Z 1006c600 f i libcpmt:wlocale.obj
 0001:0006b608       ??$addressof@$$CBV?$moneypunct@G$0A@@std@@@std@@YAPBV?$moneypunct@G$0A@@0@ABV10@@Z 1006c608 f i libcpmt:wlocale.obj
 0001:0006b610       ??$addressof@$$CBV?$moneypunct@_W$00@std@@@std@@YAPBV?$moneypunct@_W$00@0@ABV10@@Z 1006c610 f i libcpmt:wlocale.obj
 0001:0006b618       ??$addressof@$$CBV?$moneypunct@_W$0A@@std@@@std@@YAPBV?$moneypunct@_W$0A@@0@ABV10@@Z 1006c618 f i libcpmt:wlocale.obj
 0001:0006b620       ??$addressof@PAG@std@@YAPAPAGAAPAG@Z 1006c620 f i libcpmt:wlocale.obj
 0001:0006b628       ??$addressof@PA_W@std@@YAPAPA_WAAPA_W@Z 1006c628 f i libcpmt:wlocale.obj
 0001:0006b630       ??$addressof@V?$_String_val@U?$_Simple_types@G@std@@@std@@@std@@YAPAV?$_String_val@U?$_Simple_types@G@std@@@0@AAV10@@Z 1006c630 f i libcpmt:wlocale.obj
 0001:0006b638       ??$addressof@V?$_String_val@U?$_Simple_types@_W@std@@@std@@@std@@YAPAV?$_String_val@U?$_Simple_types@_W@std@@@0@AAV10@@Z 1006c638 f i libcpmt:wlocale.obj
 0001:0006b640       ??$addressof@V?$basic_string@GU?$char_traits@G@std@@V?$allocator@G@2@@std@@@std@@YAPAV?$basic_string@GU?$char_traits@G@std@@V?$allocator@G@2@@0@AAV10@@Z 1006c640 f i libcpmt:wlocale.obj
 0001:0006b648       ??$addressof@V?$basic_string@_WU?$char_traits@_W@std@@V?$allocator@_W@2@@std@@@std@@YAPAV?$basic_string@_WU?$char_traits@_W@std@@V?$allocator@_W@2@@0@AAV10@@Z 1006c648 f i libcpmt:wlocale.obj
 0001:0006b650       ??$begin@$$CBD$0M@@std@@YAPBDAAY0M@$$CBD@Z 1006c650 f i libcpmt:wlocale.obj
 0001:0006b658       ??$construct_at@G$$V@std@@YAPAGQAG@Z 1006c658 f i libcpmt:wlocale.obj
 0001:0006b665       ??$construct_at@PAGAAPAG@std@@YAPAPAGQAPAGAAPAG@Z 1006c665 f i libcpmt:wlocale.obj
 0001:0006b674       ??$construct_at@PAGABQAG@std@@YAPAPAGQAPAGABQAG@Z 1006c674 f i libcpmt:wlocale.obj
 0001:0006b683       ??$construct_at@PA_WAAPA_W@std@@YAPAPA_WQAPA_WAAPA_W@Z 1006c683 f i libcpmt:wlocale.obj
 0001:0006b692       ??$construct_at@PA_WABQA_W@std@@YAPAPA_WQAPA_WABQA_W@Z 1006c692 f i libcpmt:wlocale.obj
 0001:0006b6a1       ??$construct_at@_W$$V@std@@YAPA_WQA_W@Z 1006c6a1 f i libcpmt:wlocale.obj
 0001:0006b6ae       ??$copy@PA_WV?$ostreambuf_iterator@GU?$char_traits@G@std@@@std@@@std@@YA?AV?$ostreambuf_iterator@GU?$char_traits@G@std@@@0@PA_W0V10@@Z 1006c6ae f i libcpmt:wlocale.obj
 0001:0006b6da       ??$copy@PA_WV?$ostreambuf_iterator@_WU?$char_traits@_W@std@@@std@@@std@@YA?AV?$ostreambuf_iterator@_WU?$char_traits@_W@std@@@0@PA_W0V10@@Z 1006c6da f i libcpmt:wlocale.obj
 0001:0006b706       ??$end@$$CBD$0M@@std@@YAPBDAAY0M@$$CBD@Z 1006c706 f i libcpmt:wlocale.obj
 0001:0006b711       ??$forward@AAPAG@std@@YAAAPAGAAPAG@Z 1006c711 f i libcpmt:wlocale.obj
 0001:0006b719       ??$forward@AAPA_W@std@@YAAAPA_WAAPA_W@Z 1006c719 f i libcpmt:wlocale.obj
 0001:0006b721       ??$forward@ABQAG@std@@YAABQAGABQAG@Z 1006c721 f i libcpmt:wlocale.obj
 0001:0006b729       ??$forward@ABQA_W@std@@YAABQA_WABQA_W@Z 1006c729 f i libcpmt:wlocale.obj
 0001:0006b731       ??$forward@V?$allocator@D@std@@@std@@YA$$QAV?$allocator@D@0@AAV10@@Z 1006c731 f i libcpmt:wlocale.obj
 0001:0006b739       ??$forward@V?$allocator@G@std@@@std@@YA$$QAV?$allocator@G@0@AAV10@@Z 1006c739 f i libcpmt:wlocale.obj
 0001:0006b741       ??$forward@V?$allocator@_W@std@@@std@@YA$$QAV?$allocator@_W@0@AAV10@@Z 1006c741 f i libcpmt:wlocale.obj
 0001:0006b749       ??$forward@V?$ostreambuf_iterator@GU?$char_traits@G@std@@@std@@@std@@YA$$QAV?$ostreambuf_iterator@GU?$char_traits@G@std@@@0@AAV10@@Z 1006c749 f i libcpmt:wlocale.obj
 0001:0006b751       ??$forward@V?$ostreambuf_iterator@_WU?$char_traits@_W@std@@@std@@@std@@YA$$QAV?$ostreambuf_iterator@_WU?$char_traits@_W@std@@@0@AAV10@@Z 1006c751 f i libcpmt:wlocale.obj
 0001:0006b759       ??$move@AAV?$allocator@G@std@@@std@@YA$$QAV?$allocator@G@0@AAV10@@Z 1006c759 f i libcpmt:wlocale.obj
 0001:0006b761       ??$move@AAV?$allocator@_W@std@@@std@@YA$$QAV?$allocator@_W@0@AAV10@@Z 1006c761 f i libcpmt:wlocale.obj
 0001:0006b769       ??$move@AAV?$basic_string@GU?$char_traits@G@std@@V?$allocator@G@2@@std@@@std@@YA$$QAV?$basic_string@GU?$char_traits@G@std@@V?$allocator@G@2@@0@AAV10@@Z 1006c769 f i libcpmt:wlocale.obj
 0001:0006b771       ??$move@AAV?$basic_string@_WU?$char_traits@_W@std@@V?$allocator@_W@2@@std@@@std@@YA$$QAV?$basic_string@_WU?$char_traits@_W@std@@V?$allocator@_W@2@@0@AAV10@@Z 1006c771 f i libcpmt:wlocale.obj
 0001:0006b779       ??$move@AAV?$ostreambuf_iterator@GU?$char_traits@G@std@@@std@@@std@@YA$$QAV?$ostreambuf_iterator@GU?$char_traits@G@std@@@0@AAV10@@Z 1006c779 f i libcpmt:wlocale.obj
 0001:0006b781       ??$move@AAV?$ostreambuf_iterator@_WU?$char_traits@_W@std@@@std@@@std@@YA$$QAV?$ostreambuf_iterator@_WU?$char_traits@_W@std@@@0@AAV10@@Z 1006c781 f i libcpmt:wlocale.obj
 0001:0006b789       ??$to_address@$$CBG@std@@YAPBGQBG@Z 1006c789 f i libcpmt:wlocale.obj
 0001:0006b791       ??$to_address@$$CB_W@std@@YAPB_WQB_W@Z 1006c791 f i libcpmt:wlocale.obj
 0001:0006b799       ??$use_facet@V?$codecvt@GDU_Mbstatet@@@std@@@std@@YAABV?$codecvt@GDU_Mbstatet@@@0@ABVlocale@0@@Z 1006c799 f i libcpmt:wlocale.obj
 0001:0006b831       ??$use_facet@V?$codecvt@_WDU_Mbstatet@@@std@@@std@@YAABV?$codecvt@_WDU_Mbstatet@@@0@ABVlocale@0@@Z 1006c831 f i libcpmt:wlocale.obj
 0001:0006b8c9       ??$use_facet@V?$collate@G@std@@@std@@YAABV?$collate@G@0@ABVlocale@0@@Z 1006c8c9 f i libcpmt:wlocale.obj
 0001:0006b961       ??$use_facet@V?$collate@_W@std@@@std@@YAABV?$collate@_W@0@ABVlocale@0@@Z 1006c961 f i libcpmt:wlocale.obj
 0001:0006b9f9       ??$use_facet@V?$ctype@G@std@@@std@@YAABV?$ctype@G@0@ABVlocale@0@@Z 1006c9f9 f i libcpmt:wlocale.obj
 0001:0006ba91       ??$use_facet@V?$ctype@_W@std@@@std@@YAABV?$ctype@_W@0@ABVlocale@0@@Z 1006ca91 f i libcpmt:wlocale.obj
 0001:0006bb29       ??$use_facet@V?$messages@G@std@@@std@@YAABV?$messages@G@0@ABVlocale@0@@Z 1006cb29 f i libcpmt:wlocale.obj
 0001:0006bbc1       ??$use_facet@V?$messages@_W@std@@@std@@YAABV?$messages@_W@0@ABVlocale@0@@Z 1006cbc1 f i libcpmt:wlocale.obj
 0001:0006bc59       ??$use_facet@V?$money_get@GV?$istreambuf_iterator@GU?$char_traits@G@std@@@std@@@std@@@std@@YAABV?$money_get@GV?$istreambuf_iterator@GU?$char_traits@G@std@@@std@@@0@ABVlocale@0@@Z 1006cc59 f i libcpmt:wlocale.obj
 0001:0006bcf1       ??$use_facet@V?$money_get@_WV?$istreambuf_iterator@_WU?$char_traits@_W@std@@@std@@@std@@@std@@YAABV?$money_get@_WV?$istreambuf_iterator@_WU?$char_traits@_W@std@@@std@@@0@ABVlocale@0@@Z 1006ccf1 f i libcpmt:wlocale.obj
 0001:0006bd89       ??$use_facet@V?$money_put@GV?$ostreambuf_iterator@GU?$char_traits@G@std@@@std@@@std@@@std@@YAABV?$money_put@GV?$ostreambuf_iterator@GU?$char_traits@G@std@@@std@@@0@ABVlocale@0@@Z 1006cd89 f i libcpmt:wlocale.obj
 0001:0006be21       ??$use_facet@V?$money_put@_WV?$ostreambuf_iterator@_WU?$char_traits@_W@std@@@std@@@std@@@std@@YAABV?$money_put@_WV?$ostreambuf_iterator@_WU?$char_traits@_W@std@@@std@@@0@ABVlocale@0@@Z 1006ce21 f i libcpmt:wlocale.obj
 0001:0006beb9       ??$use_facet@V?$moneypunct@G$00@std@@@std@@YAABV?$moneypunct@G$00@0@ABVlocale@0@@Z 1006ceb9 f i libcpmt:wlocale.obj
 0001:0006bf51       ??$use_facet@V?$moneypunct@G$0A@@std@@@std@@YAABV?$moneypunct@G$0A@@0@ABVlocale@0@@Z 1006cf51 f i libcpmt:wlocale.obj
 0001:0006bfe9       ??$use_facet@V?$moneypunct@_W$00@std@@@std@@YAABV?$moneypunct@_W$00@0@ABVlocale@0@@Z 1006cfe9 f i libcpmt:wlocale.obj
 0001:0006c081       ??$use_facet@V?$moneypunct@_W$0A@@std@@@std@@YAABV?$moneypunct@_W$0A@@0@ABVlocale@0@@Z 1006d081 f i libcpmt:wlocale.obj
 0001:0006c119       ??$use_facet@V?$num_get@GV?$istreambuf_iterator@GU?$char_traits@G@std@@@std@@@std@@@std@@YAABV?$num_get@GV?$istreambuf_iterator@GU?$char_traits@G@std@@@std@@@0@ABVlocale@0@@Z 1006d119 f i libcpmt:wlocale.obj
 0001:0006c1b1       ??$use_facet@V?$num_get@_WV?$istreambuf_iterator@_WU?$char_traits@_W@std@@@std@@@std@@@std@@YAABV?$num_get@_WV?$istreambuf_iterator@_WU?$char_traits@_W@std@@@std@@@0@ABVlocale@0@@Z 1006d1b1 f i libcpmt:wlocale.obj
 0001:0006c249       ??$use_facet@V?$num_put@GV?$ostreambuf_iterator@GU?$char_traits@G@std@@@std@@@std@@@std@@YAABV?$num_put@GV?$ostreambuf_iterator@GU?$char_traits@G@std@@@std@@@0@ABVlocale@0@@Z 1006d249 f i libcpmt:wlocale.obj
 0001:0006c2e1       ??$use_facet@V?$num_put@_WV?$ostreambuf_iterator@_WU?$char_traits@_W@std@@@std@@@std@@@std@@YAABV?$num_put@_WV?$ostreambuf_iterator@_WU?$char_traits@_W@std@@@std@@@0@ABVlocale@0@@Z 1006d2e1 f i libcpmt:wlocale.obj
 0001:0006c379       ??$use_facet@V?$numpunct@G@std@@@std@@YAABV?$numpunct@G@0@ABVlocale@0@@Z 1006d379 f i libcpmt:wlocale.obj
 0001:0006c411       ??$use_facet@V?$numpunct@_W@std@@@std@@YAABV?$numpunct@_W@0@ABVlocale@0@@Z 1006d411 f i libcpmt:wlocale.obj
 0001:0006c4a9       ??$use_facet@V?$time_get@GV?$istreambuf_iterator@GU?$char_traits@G@std@@@std@@@std@@@std@@YAABV?$time_get@GV?$istreambuf_iterator@GU?$char_traits@G@std@@@std@@@0@ABVlocale@0@@Z 1006d4a9 f i libcpmt:wlocale.obj
 0001:0006c541       ??$use_facet@V?$time_get@_WV?$istreambuf_iterator@_WU?$char_traits@_W@std@@@std@@@std@@@std@@YAABV?$time_get@_WV?$istreambuf_iterator@_WU?$char_traits@_W@std@@@std@@@0@ABVlocale@0@@Z 1006d541 f i libcpmt:wlocale.obj
 0001:0006c5d9       ??$use_facet@V?$time_put@GV?$ostreambuf_iterator@GU?$char_traits@G@std@@@std@@@std@@@std@@YAABV?$time_put@GV?$ostreambuf_iterator@GU?$char_traits@G@std@@@std@@@0@ABVlocale@0@@Z 1006d5d9 f i libcpmt:wlocale.obj
 0001:0006c671       ??$use_facet@V?$time_put@_WV?$ostreambuf_iterator@_WU?$char_traits@_W@std@@@std@@@std@@@std@@YAABV?$time_put@_WV?$ostreambuf_iterator@_WU?$char_traits@_W@std@@@std@@@0@ABVlocale@0@@Z 1006d671 f i libcpmt:wlocale.obj
 0001:0006c709       ??0?$_Mpunct@G@std@@QAE@ABV_Locinfo@1@I_N1@Z 1006d709 f i libcpmt:wlocale.obj
 0001:0006c748       ??0?$_Mpunct@_W@std@@QAE@ABV_Locinfo@1@I_N1@Z 1006d748 f i libcpmt:wlocale.obj
 0001:0006c787       ??0?$_String_const_iterator@V?$_String_val@U?$_Simple_types@G@std@@@std@@@std@@QAE@PBGPBU_Container_base0@1@@Z 1006d787 f i libcpmt:wlocale.obj
 0001:0006c795       ??0?$_String_const_iterator@V?$_String_val@U?$_Simple_types@G@std@@@std@@@std@@QAE@XZ 1006d795 f i libcpmt:wlocale.obj
 0001:0006c79e       ??0?$_String_const_iterator@V?$_String_val@U?$_Simple_types@_W@std@@@std@@@std@@QAE@PB_WPBU_Container_base0@1@@Z 1006d79e f i libcpmt:wlocale.obj
 0001:0006c7ac       ??0?$_String_const_iterator@V?$_String_val@U?$_Simple_types@_W@std@@@std@@@std@@QAE@XZ 1006d7ac f i libcpmt:wlocale.obj
 0001:0006c7b5       ??0?$_String_iterator@V?$_String_val@U?$_Simple_types@G@std@@@std@@@std@@QAE@PBGPBU_Container_base0@1@@Z 1006d7b5 f i libcpmt:wlocale.obj
 0001:0006c7c3       ??0?$_String_iterator@V?$_String_val@U?$_Simple_types@_W@std@@@std@@@std@@QAE@PB_WPBU_Container_base0@1@@Z 1006d7c3 f i libcpmt:wlocale.obj
 0001:0006c7d1       ??0?$_String_val@U?$_Simple_types@G@std@@@std@@QAE@XZ 1006d7d1 f i libcpmt:wlocale.obj
 0001:0006c7ec       ??0?$_String_val@U?$_Simple_types@_W@std@@@std@@QAE@XZ 1006d7ec f i libcpmt:wlocale.obj
 0001:0006c807       ??0?$allocator@G@std@@QAE@XZ 1006d807 f i libcpmt:wlocale.obj
 0001:0006c80a       ??0?$allocator@_W@std@@QAE@XZ 1006d80a f i libcpmt:wlocale.obj
 0001:0006c80d       ??0?$basic_string@DU?$char_traits@D@std@@V?$allocator@D@2@@std@@QAE@QBDI@Z 1006d80d f i libcpmt:wlocale.obj
 0001:0006c83d       ??0?$basic_string@GU?$char_traits@G@std@@V?$allocator@G@2@@std@@QAE@ABV01@@Z 1006d83d f i libcpmt:wlocale.obj
 0001:0006c879       ??0?$basic_string@GU?$char_traits@G@std@@V?$allocator@G@2@@std@@QAE@QBG@Z 1006d879 f i libcpmt:wlocale.obj
 0001:0006c8b8       ??0?$basic_string@GU?$char_traits@G@std@@V?$allocator@G@2@@std@@QAE@QBGI@Z 1006d8b8 f i libcpmt:wlocale.obj
 0001:0006c8e8       ??0?$basic_string@GU?$char_traits@G@std@@V?$allocator@G@2@@std@@QAE@XZ 1006d8e8 f i libcpmt:wlocale.obj
 0001:0006c908       ??0?$basic_string@_WU?$char_traits@_W@std@@V?$allocator@_W@2@@std@@QAE@$$QAV01@@Z 1006d908 f i libcpmt:wlocale.obj
 0001:0006c935       ??0?$basic_string@_WU?$char_traits@_W@std@@V?$allocator@_W@2@@std@@QAE@ABV01@@Z 1006d935 f i libcpmt:wlocale.obj
 0001:0006c971       ??0?$basic_string@_WU?$char_traits@_W@std@@V?$allocator@_W@2@@std@@QAE@I_W@Z 1006d971 f i libcpmt:wlocale.obj
 0001:0006c9a1       ??0?$basic_string@_WU?$char_traits@_W@std@@V?$allocator@_W@2@@std@@QAE@QB_W@Z 1006d9a1 f i libcpmt:wlocale.obj
 0001:0006c9e0       ??0?$basic_string@_WU?$char_traits@_W@std@@V?$allocator@_W@2@@std@@QAE@QB_WI@Z 1006d9e0 f i libcpmt:wlocale.obj
 0001:0006ca10       ??0?$basic_string@_WU?$char_traits@_W@std@@V?$allocator@_W@2@@std@@QAE@XZ 1006da10 f i libcpmt:wlocale.obj
 0001:0006ca30       ??0?$codecvt@GDU_Mbstatet@@@std@@QAE@ABV_Locinfo@1@I@Z 1006da30 f i libcpmt:wlocale.obj
 0001:0006ca67       ??0?$codecvt@_WDU_Mbstatet@@@std@@QAE@ABV_Locinfo@1@I@Z 1006da67 f i libcpmt:wlocale.obj
 0001:0006ca9e       ??0?$collate@G@std@@QAE@ABV_Locinfo@1@I@Z 1006da9e f i libcpmt:wlocale.obj
 0001:0006cac6       ??0?$collate@_W@std@@QAE@ABV_Locinfo@1@I@Z 1006dac6 f i libcpmt:wlocale.obj
 0001:0006caee       ??0?$ctype@G@std@@QAE@ABV_Locinfo@1@I@Z 1006daee f i libcpmt:wlocale.obj
 0001:0006cb13       ??0?$ctype@_W@std@@QAE@ABV_Locinfo@1@I@Z 1006db13 f i libcpmt:wlocale.obj
 0001:0006cb38       ??0?$messages@G@std@@QAE@ABV_Locinfo@1@I@Z 1006db38 f i libcpmt:wlocale.obj
 0001:0006cb51       ??0?$messages@_W@std@@QAE@ABV_Locinfo@1@I@Z 1006db51 f i libcpmt:wlocale.obj
 0001:0006cb6a       ??0?$money_get@GV?$istreambuf_iterator@GU?$char_traits@G@std@@@std@@@std@@QAE@ABV_Locinfo@1@I@Z 1006db6a f i libcpmt:wlocale.obj
 0001:0006cb83       ??0?$money_get@_WV?$istreambuf_iterator@_WU?$char_traits@_W@std@@@std@@@std@@QAE@ABV_Locinfo@1@I@Z 1006db83 f i libcpmt:wlocale.obj
 0001:0006cb9c       ??0?$money_put@GV?$ostreambuf_iterator@GU?$char_traits@G@std@@@std@@@std@@QAE@ABV_Locinfo@1@I@Z 1006db9c f i libcpmt:wlocale.obj
 0001:0006cbb5       ??0?$money_put@_WV?$ostreambuf_iterator@_WU?$char_traits@_W@std@@@std@@@std@@QAE@ABV_Locinfo@1@I@Z 1006dbb5 f i libcpmt:wlocale.obj
 0001:0006cbce       ??0?$moneypunct@G$00@std@@QAE@ABV_Locinfo@1@I_N@Z 1006dbce f i libcpmt:wlocale.obj
 0001:0006cbf5       ??0?$moneypunct@G$0A@@std@@QAE@ABV_Locinfo@1@I_N@Z 1006dbf5 f i libcpmt:wlocale.obj
 0001:0006cc1c       ??0?$moneypunct@_W$00@std@@QAE@ABV_Locinfo@1@I_N@Z 1006dc1c f i libcpmt:wlocale.obj
 0001:0006cc43       ??0?$moneypunct@_W$0A@@std@@QAE@ABV_Locinfo@1@I_N@Z 1006dc43 f i libcpmt:wlocale.obj
 0001:0006cc6a       ??0?$num_get@GV?$istreambuf_iterator@GU?$char_traits@G@std@@@std@@@std@@QAE@ABV_Locinfo@1@I@Z 1006dc6a f i libcpmt:wlocale.obj
 0001:0006cc83       ??0?$num_get@_WV?$istreambuf_iterator@_WU?$char_traits@_W@std@@@std@@@std@@QAE@ABV_Locinfo@1@I@Z 1006dc83 f i libcpmt:wlocale.obj
 0001:0006cc9c       ??0?$num_put@GV?$ostreambuf_iterator@GU?$char_traits@G@std@@@std@@@std@@QAE@ABV_Locinfo@1@I@Z 1006dc9c f i libcpmt:wlocale.obj
 0001:0006ccb5       ??0?$num_put@_WV?$ostreambuf_iterator@_WU?$char_traits@_W@std@@@std@@@std@@QAE@ABV_Locinfo@1@I@Z 1006dcb5 f i libcpmt:wlocale.obj
 0001:0006ccce       ??0?$numpunct@G@std@@QAE@ABV_Locinfo@1@I_N@Z 1006dcce f i libcpmt:wlocale.obj
 0001:0006cd07       ??0?$numpunct@_W@std@@QAE@ABV_Locinfo@1@I_N@Z 1006dd07 f i libcpmt:wlocale.obj
 0001:0006cd40       ??0?$time_get@GV?$istreambuf_iterator@GU?$char_traits@G@std@@@std@@@std@@QAE@ABV_Locinfo@1@I@Z 1006dd40 f i libcpmt:wlocale.obj
 0001:0006cd76       ??0?$time_get@_WV?$istreambuf_iterator@_WU?$char_traits@_W@std@@@std@@@std@@QAE@ABV_Locinfo@1@I@Z 1006dd76 f i libcpmt:wlocale.obj
 0001:0006cdac       ??0?$time_put@GV?$ostreambuf_iterator@GU?$char_traits@G@std@@@std@@@std@@QAE@ABV_Locinfo@1@I@Z 1006ddac f i libcpmt:wlocale.obj
 0001:0006cdd8       ??0?$time_put@_WV?$ostreambuf_iterator@_WU?$char_traits@_W@std@@@std@@@std@@QAE@ABV_Locinfo@1@I@Z 1006ddd8 f i libcpmt:wlocale.obj
 0001:0006ce04       ??0_Bxty@?$_String_val@U?$_Simple_types@G@std@@@std@@QAE@XZ 1006de04 f i libcpmt:wlocale.obj
 0001:0006ce11       ??0_Bxty@?$_String_val@U?$_Simple_types@_W@std@@@std@@QAE@XZ 1006de11 f i libcpmt:wlocale.obj
 0001:0006ce1e       ??0_Timevec@std@@QAE@PAX@Z 1006de1e f i libcpmt:wlocale.obj
 0001:0006ce2c       ??0error_code@std@@QAE@HABVerror_category@1@@Z 1006de2c f i libcpmt:wlocale.obj
 0001:0006ce40       ??0error_condition@std@@QAE@HABVerror_category@1@@Z 1006de40 f i libcpmt:wlocale.obj
 0001:0006ce54       ??0messages_base@std@@QAE@I@Z 1006de54 f i libcpmt:wlocale.obj
 0001:0006ce69       ??0money_base@std@@QAE@I@Z 1006de69 f i libcpmt:wlocale.obj
 0001:0006ce7e       ??0runtime_error@std@@QAE@ABV?$basic_string@DU?$char_traits@D@std@@V?$allocator@D@2@@1@@Z 1006de7e f i libcpmt:wlocale.obj
 0001:0006cea6       ??0system_error@std@@QAE@Verror_code@1@PBD@Z 1006dea6 f i libcpmt:wlocale.obj
 0001:0006cef6       ??0time_base@std@@QAE@I@Z  1006def6 f i libcpmt:wlocale.obj
 0001:0006cf0b       ??1?$_Compressed_pair@V?$allocator@G@std@@V?$_String_val@U?$_Simple_types@G@std@@@2@$00@std@@QAE@XZ 1006df0b f i libcpmt:wlocale.obj
 0001:0006cf0e       ??1?$_Compressed_pair@V?$allocator@_W@std@@V?$_String_val@U?$_Simple_types@_W@std@@@2@$00@std@@QAE@XZ 1006df0e f i libcpmt:wlocale.obj
 0001:0006cf11       ??1?$_Mpunct@G@std@@MAE@XZ 1006df11 f i libcpmt:wlocale.obj
 0001:0006cf27       ??1?$_Mpunct@_W@std@@MAE@XZ 1006df27 f i libcpmt:wlocale.obj
 0001:0006cf3d       ??1?$_String_val@U?$_Simple_types@G@std@@@std@@QAE@XZ 1006df3d f i libcpmt:wlocale.obj
 0001:0006cf40       ??1?$_String_val@U?$_Simple_types@_W@std@@@std@@QAE@XZ 1006df40 f i libcpmt:wlocale.obj
 0001:0006cf43       ??1?$_Tidy_guard@V?$_Mpunct@G@std@@@std@@QAE@XZ 1006df43 f i libcpmt:wlocale.obj
 0001:0006cf4e       ??1?$_Tidy_guard@V?$_Mpunct@_W@std@@@std@@QAE@XZ 1006df4e f i libcpmt:wlocale.obj
 0001:0006cf59       ??1?$_Tidy_guard@V?$numpunct@G@std@@@std@@QAE@XZ 1006df59 f i libcpmt:wlocale.obj
 0001:0006cf64       ??1?$_Tidy_guard@V?$numpunct@_W@std@@@std@@QAE@XZ 1006df64 f i libcpmt:wlocale.obj
 0001:0006cf6f       ??1?$_Tidy_guard@V?$time_get@GV?$istreambuf_iterator@GU?$char_traits@G@std@@@std@@@std@@@std@@QAE@XZ 1006df6f f i libcpmt:wlocale.obj
 0001:0006cf7a       ??1?$_Tidy_guard@V?$time_get@_WV?$istreambuf_iterator@_WU?$char_traits@_W@std@@@std@@@std@@@std@@QAE@XZ 1006df7a f i libcpmt:wlocale.obj
 0001:0006cf85       ??1?$basic_string@_WU?$char_traits@_W@std@@V?$allocator@_W@2@@std@@QAE@XZ 1006df85 f i libcpmt:wlocale.obj
 0001:0006cf8a       ??1?$codecvt@GDU_Mbstatet@@@std@@MAE@XZ 1006df8a f i libcpmt:wlocale.obj
 0001:0006cf91       ??1?$codecvt@_WDU_Mbstatet@@@std@@MAE@XZ 1006df91 f i libcpmt:wlocale.obj
 0001:0006cf98       ??1?$collate@G@std@@MAE@XZ 1006df98 f i libcpmt:wlocale.obj
 0001:0006cfb2       ??1?$collate@_W@std@@MAE@XZ 1006dfb2 f i libcpmt:wlocale.obj
 0001:0006cfcc       ??1?$ctype@G@std@@MAE@XZ   1006dfcc f i libcpmt:wlocale.obj
 0001:0006cff5       ??1?$ctype@_W@std@@MAE@XZ  1006dff5 f i libcpmt:wlocale.obj
 0001:0006d01e       ??1?$messages@G@std@@MAE@XZ 1006e01e f i libcpmt:wlocale.obj
 0001:0006d025       ??1?$messages@_W@std@@MAE@XZ 1006e025 f i libcpmt:wlocale.obj
 0001:0006d02c       ??1?$money_get@GV?$istreambuf_iterator@GU?$char_traits@G@std@@@std@@@std@@MAE@XZ 1006e02c f i libcpmt:wlocale.obj
 0001:0006d033       ??1?$money_get@_WV?$istreambuf_iterator@_WU?$char_traits@_W@std@@@std@@@std@@MAE@XZ 1006e033 f i libcpmt:wlocale.obj
 0001:0006d03a       ??1?$money_put@GV?$ostreambuf_iterator@GU?$char_traits@G@std@@@std@@@std@@MAE@XZ 1006e03a f i libcpmt:wlocale.obj
 0001:0006d041       ??1?$money_put@_WV?$ostreambuf_iterator@_WU?$char_traits@_W@std@@@std@@@std@@MAE@XZ 1006e041 f i libcpmt:wlocale.obj
 0001:0006d048       ??1?$moneypunct@G$00@std@@MAE@XZ 1006e048 f i libcpmt:wlocale.obj
 0001:0006d05e       ??1?$moneypunct@G$0A@@std@@MAE@XZ 1006e05e f i libcpmt:wlocale.obj
 0001:0006d074       ??1?$moneypunct@_W$00@std@@MAE@XZ 1006e074 f i libcpmt:wlocale.obj
 0001:0006d08a       ??1?$moneypunct@_W$0A@@std@@MAE@XZ 1006e08a f i libcpmt:wlocale.obj
 0001:0006d0a0       ??1?$num_get@GV?$istreambuf_iterator@GU?$char_traits@G@std@@@std@@@std@@MAE@XZ 1006e0a0 f i libcpmt:wlocale.obj
 0001:0006d0a7       ??1?$num_get@_WV?$istreambuf_iterator@_WU?$char_traits@_W@std@@@std@@@std@@MAE@XZ 1006e0a7 f i libcpmt:wlocale.obj
 0001:0006d0ae       ??1?$num_put@GV?$ostreambuf_iterator@GU?$char_traits@G@std@@@std@@@std@@MAE@XZ 1006e0ae f i libcpmt:wlocale.obj
 0001:0006d0b5       ??1?$num_put@_WV?$ostreambuf_iterator@_WU?$char_traits@_W@std@@@std@@@std@@MAE@XZ 1006e0b5 f i libcpmt:wlocale.obj
 0001:0006d0bc       ??1?$numpunct@G@std@@MAE@XZ 1006e0bc f i libcpmt:wlocale.obj
 0001:0006d0d2       ??1?$numpunct@_W@std@@MAE@XZ 1006e0d2 f i libcpmt:wlocale.obj
 0001:0006d0e8       ??1?$time_get@GV?$istreambuf_iterator@GU?$char_traits@G@std@@@std@@@std@@MAE@XZ 1006e0e8 f i libcpmt:wlocale.obj
 0001:0006d0fe       ??1?$time_get@_WV?$istreambuf_iterator@_WU?$char_traits@_W@std@@@std@@@std@@MAE@XZ 1006e0fe f i libcpmt:wlocale.obj
 0001:0006d114       ??1?$time_put@GV?$ostreambuf_iterator@GU?$char_traits@G@std@@@std@@@std@@MAE@XZ 1006e114 f i libcpmt:wlocale.obj
 0001:0006d12e       ??1?$time_put@_WV?$ostreambuf_iterator@_WU?$char_traits@_W@std@@@std@@@std@@MAE@XZ 1006e12e f i libcpmt:wlocale.obj
 0001:0006d148       ??1_Bxty@?$_String_val@U?$_Simple_types@G@std@@@std@@QAE@XZ 1006e148 f i libcpmt:wlocale.obj
 0001:0006d14b       ??1_Bxty@?$_String_val@U?$_Simple_types@_W@std@@@std@@QAE@XZ 1006e14b f i libcpmt:wlocale.obj
 0001:0006d14e       ??1_Iostream_error_category2@std@@UAE@XZ 1006e14e f i libcpmt:wlocale.obj
 0001:0006d151       ??1_Timevec@std@@QAE@XZ    1006e151 f i libcpmt:wlocale.obj
 0001:0006d15a       ??1messages_base@std@@UAE@XZ 1006e15a f i libcpmt:wlocale.obj
 0001:0006d161       ??1money_base@std@@UAE@XZ  1006e161 f i libcpmt:wlocale.obj
 0001:0006d168       ??1time_base@std@@UAE@XZ   1006e168 f i libcpmt:wlocale.obj
 0001:0006d16f       ??4?$_Yarn@_W@std@@QAEAAV01@PB_W@Z 1006e16f f i libcpmt:wlocale.obj
 0001:0006d1c1       ??4?$basic_string@GU?$char_traits@G@std@@V?$allocator@G@2@@std@@QAEAAV01@$$QAV01@@Z 1006e1c1 f i libcpmt:wlocale.obj
 0001:0006d1e2       ??4?$basic_string@_WU?$char_traits@_W@std@@V?$allocator@_W@2@@std@@QAEAAV01@$$QAV01@@Z 1006e1e2 f i libcpmt:wlocale.obj
 0001:0006d203       ??4?$ostreambuf_iterator@GU?$char_traits@G@std@@@std@@QAEAAV01@G@Z 1006e203 f i libcpmt:wlocale.obj
 0001:0006d22c       ??4?$ostreambuf_iterator@_WU?$char_traits@_W@std@@@std@@QAEAAV01@_W@Z 1006e22c f i libcpmt:wlocale.obj
 0001:0006d255       ??4_Timevec@std@@QAEAAV01@ABV01@@Z 1006e255 f i libcpmt:wlocale.obj
 0001:0006d27d       ??8?$_String_const_iterator@V?$_String_val@U?$_Simple_types@G@std@@@std@@@std@@QBE_NABV01@@Z 1006e27d f i libcpmt:wlocale.obj
 0001:0006d28e       ??8?$_String_const_iterator@V?$_String_val@U?$_Simple_types@_W@std@@@std@@@std@@QBE_NABV01@@Z 1006e28e f i libcpmt:wlocale.obj
 0001:0006d29f       ??8error_category@std@@QBE_NABV01@@Z 1006e29f f i libcpmt:wlocale.obj
 0001:0006d2b2       ??8std@@YA_NABVerror_condition@0@0@Z 1006e2b2 f i libcpmt:wlocale.obj
 0001:0006d2d9       ??A?$basic_string@GU?$char_traits@G@std@@V?$allocator@G@2@@std@@QAEAAGI@Z 1006e2d9 f i libcpmt:wlocale.obj
 0001:0006d2ee       ??A?$basic_string@GU?$char_traits@G@std@@V?$allocator@G@2@@std@@QBEABGI@Z 1006e2ee f i libcpmt:wlocale.obj
 0001:0006d303       ??A?$basic_string@_WU?$char_traits@_W@std@@V?$allocator@_W@2@@std@@QAEAA_WI@Z 1006e303 f i libcpmt:wlocale.obj
 0001:0006d318       ??A?$basic_string@_WU?$char_traits@_W@std@@V?$allocator@_W@2@@std@@QBEAB_WI@Z 1006e318 f i libcpmt:wlocale.obj
 0001:0006d32d       ??D?$_String_const_iterator@V?$_String_val@U?$_Simple_types@G@std@@@std@@@std@@QBEABGXZ 1006e32d f i libcpmt:wlocale.obj
 0001:0006d330       ??D?$_String_const_iterator@V?$_String_val@U?$_Simple_types@_W@std@@@std@@@std@@QBEAB_WXZ 1006e330 f i libcpmt:wlocale.obj
 0001:0006d333       ??D?$_String_iterator@V?$_String_val@U?$_Simple_types@G@std@@@std@@@std@@QBEAAGXZ 1006e333 f i libcpmt:wlocale.obj
 0001:0006d336       ??D?$_String_iterator@V?$_String_val@U?$_Simple_types@_W@std@@@std@@@std@@QBEAA_WXZ 1006e336 f i libcpmt:wlocale.obj
 0001:0006d339       ??D?$istreambuf_iterator@GU?$char_traits@G@std@@@std@@QBEGXZ 1006e339 f i libcpmt:wlocale.obj
 0001:0006d34d       ??D?$istreambuf_iterator@_WU?$char_traits@_W@std@@@std@@QBE_WXZ 1006e34d f i libcpmt:wlocale.obj
 0001:0006d361       ??D?$ostreambuf_iterator@GU?$char_traits@G@std@@@std@@QAEAAV01@XZ 1006e361 f i libcpmt:wlocale.obj
 0001:0006d364       ??D?$ostreambuf_iterator@_WU?$char_traits@_W@std@@@std@@QAEAAV01@XZ 1006e364 f i libcpmt:wlocale.obj
 0001:0006d367       ??E?$_String_const_iterator@V?$_String_val@U?$_Simple_types@G@std@@@std@@@std@@QAEAAV01@XZ 1006e367 f i libcpmt:wlocale.obj
 0001:0006d36d       ??E?$_String_const_iterator@V?$_String_val@U?$_Simple_types@_W@std@@@std@@@std@@QAEAAV01@XZ 1006e36d f i libcpmt:wlocale.obj
 0001:0006d373       ??E?$_String_iterator@V?$_String_val@U?$_Simple_types@G@std@@@std@@@std@@QAEAAV01@XZ 1006e373 f i libcpmt:wlocale.obj
 0001:0006d379       ??E?$_String_iterator@V?$_String_val@U?$_Simple_types@_W@std@@@std@@@std@@QAEAAV01@XZ 1006e379 f i libcpmt:wlocale.obj
 0001:0006d37f       ??E?$istreambuf_iterator@GU?$char_traits@G@std@@@std@@QAEAAV01@XZ 1006e37f f i libcpmt:wlocale.obj
 0001:0006d38b       ??E?$istreambuf_iterator@_WU?$char_traits@_W@std@@@std@@QAEAAV01@XZ 1006e38b f i libcpmt:wlocale.obj
 0001:0006d397       ??E?$ostreambuf_iterator@GU?$char_traits@G@std@@@std@@QAEAAV01@H@Z 1006e397 f i libcpmt:wlocale.obj
 0001:0006d39c       ??E?$ostreambuf_iterator@GU?$char_traits@G@std@@@std@@QAEAAV01@XZ 1006e39c f i libcpmt:wlocale.obj
 0001:0006d39f       ??E?$ostreambuf_iterator@_WU?$char_traits@_W@std@@@std@@QAEAAV01@H@Z 1006e39f f i libcpmt:wlocale.obj
 0001:0006d3a4       ??E?$ostreambuf_iterator@_WU?$char_traits@_W@std@@@std@@QAEAAV01@XZ 1006e3a4 f i libcpmt:wlocale.obj
 0001:0006d3a7       ??G?$_String_iterator@V?$_String_val@U?$_Simple_types@G@std@@@std@@@std@@QBE?AV01@H@Z 1006e3a7 f i libcpmt:wlocale.obj
 0001:0006d3bc       ??G?$_String_iterator@V?$_String_val@U?$_Simple_types@_W@std@@@std@@@std@@QBE?AV01@H@Z 1006e3bc f i libcpmt:wlocale.obj
 0001:0006d3d1       ??H?$_String_iterator@V?$_String_val@U?$_Simple_types@G@std@@@std@@@std@@QBE?AV01@H@Z 1006e3d1 f i libcpmt:wlocale.obj
 0001:0006d3e5       ??H?$_String_iterator@V?$_String_val@U?$_Simple_types@_W@std@@@std@@@std@@QBE?AV01@H@Z 1006e3e5 f i libcpmt:wlocale.obj
 0001:0006d3f9       ??R<lambda_1>@?1??append@?$basic_string@GU?$char_traits@G@std@@V?$allocator@G@2@@std@@QAEAAV23@IG@Z@QBE@QAGQBGIIG@Z 1006e3f9 f i libcpmt:wlocale.obj
 0001:0006d435       ??R<lambda_1>@?1??append@?$basic_string@GU?$char_traits@G@std@@V?$allocator@G@2@@std@@QAEAAV23@QBGI@Z@QBE@QAG0I0I@Z 1006e435 f i libcpmt:wlocale.obj
 0001:0006d474       ??R<lambda_1>@?1??append@?$basic_string@_WU?$char_traits@_W@std@@V?$allocator@_W@2@@std@@QAEAAV23@I_W@Z@QBE@QA_WQB_WII0@Z 1006e474 f i libcpmt:wlocale.obj
 0001:0006d4b0       ??R<lambda_1>@?1??append@?$basic_string@_WU?$char_traits@_W@std@@V?$allocator@_W@2@@std@@QAEAAV23@QB_WI@Z@QBE@QA_W0I0I@Z 1006e4b0 f i libcpmt:wlocale.obj
 0001:0006d4ef       ??R<lambda_1>@?1??insert@?$basic_string@GU?$char_traits@G@std@@V?$allocator@G@2@@std@@QAEAAV23@IIG@Z@QBE@QAGQBGIIIG@Z 1006e4ef f i libcpmt:wlocale.obj
 0001:0006d542       ??R<lambda_1>@?1??insert@?$basic_string@_WU?$char_traits@_W@std@@V?$allocator@_W@2@@std@@QAEAAV23@II_W@Z@QBE@QA_WQB_WIII0@Z 1006e542 f i libcpmt:wlocale.obj
 0001:0006d595       ??R<lambda_1>@?1??push_back@?$basic_string@GU?$char_traits@G@std@@V?$allocator@G@2@@std@@QAEXG@Z@QBE@QAGQBGIG@Z 1006e595 f i libcpmt:wlocale.obj
 0001:0006d5c5       ??R<lambda_1>@?1??push_back@?$basic_string@_WU?$char_traits@_W@std@@V?$allocator@_W@2@@std@@QAEX_W@Z@QBE@QA_WQB_WI0@Z 1006e5c5 f i libcpmt:wlocale.obj
 0001:0006d5f5       ??Y?$_String_const_iterator@V?$_String_val@U?$_Simple_types@G@std@@@std@@@std@@QAEAAV01@H@Z 1006e5f5 f i libcpmt:wlocale.obj
 0001:0006d605       ??Y?$_String_const_iterator@V?$_String_val@U?$_Simple_types@_W@std@@@std@@@std@@QAEAAV01@H@Z 1006e605 f i libcpmt:wlocale.obj
 0001:0006d615       ??Y?$_String_iterator@V?$_String_val@U?$_Simple_types@G@std@@@std@@@std@@QAEAAV01@H@Z 1006e615 f i libcpmt:wlocale.obj
 0001:0006d625       ??Y?$_String_iterator@V?$_String_val@U?$_Simple_types@_W@std@@@std@@@std@@QAEAAV01@H@Z 1006e625 f i libcpmt:wlocale.obj
 0001:0006d635       ??Y?$basic_string@DU?$char_traits@D@std@@V?$allocator@D@2@@std@@QAEAAV01@D@Z 1006e635 f i libcpmt:wlocale.obj
 0001:0006d64a       ??Y?$basic_string@GU?$char_traits@G@std@@V?$allocator@G@2@@std@@QAEAAV01@ABV01@@Z 1006e64a f i libcpmt:wlocale.obj
 0001:0006d653       ??Y?$basic_string@_WU?$char_traits@_W@std@@V?$allocator@_W@2@@std@@QAEAAV01@ABV01@@Z 1006e653 f i libcpmt:wlocale.obj
 0001:0006d65c       ??Z?$_String_const_iterator@V?$_String_val@U?$_Simple_types@G@std@@@std@@@std@@QAEAAV01@H@Z 1006e65c f i libcpmt:wlocale.obj
 0001:0006d66e       ??Z?$_String_const_iterator@V?$_String_val@U?$_Simple_types@_W@std@@@std@@@std@@QAEAAV01@H@Z 1006e66e f i libcpmt:wlocale.obj
 0001:0006d680       ??Z?$_String_iterator@V?$_String_val@U?$_Simple_types@G@std@@@std@@@std@@QAEAAV01@H@Z 1006e680 f i libcpmt:wlocale.obj
 0001:0006d692       ??Z?$_String_iterator@V?$_String_val@U?$_Simple_types@_W@std@@@std@@@std@@QAEAAV01@H@Z 1006e692 f i libcpmt:wlocale.obj
 0001:0006d6a4       ??_E?$_Mpunct@G@std@@MAEPAXI@Z 1006e6a4 f i libcpmt:wlocale.obj
 0001:0006d6a4       ??_G?$_Mpunct@G@std@@MAEPAXI@Z 1006e6a4 f i libcpmt:wlocale.obj
 0001:0006d6d2       ??_E?$_Mpunct@_W@std@@MAEPAXI@Z 1006e6d2 f i libcpmt:wlocale.obj
 0001:0006d6d2       ??_G?$_Mpunct@_W@std@@MAEPAXI@Z 1006e6d2 f i libcpmt:wlocale.obj
 0001:0006d700       ??_E?$codecvt@GDU_Mbstatet@@@std@@MAEPAXI@Z 1006e700 f i libcpmt:wlocale.obj
 0001:0006d700       ??_G?$codecvt@GDU_Mbstatet@@@std@@MAEPAXI@Z 1006e700 f i libcpmt:wlocale.obj
 0001:0006d723       ??_E?$codecvt@_WDU_Mbstatet@@@std@@MAEPAXI@Z 1006e723 f i libcpmt:wlocale.obj
 0001:0006d723       ??_G?$codecvt@_WDU_Mbstatet@@@std@@MAEPAXI@Z 1006e723 f i libcpmt:wlocale.obj
 0001:0006d746       ??_E?$collate@G@std@@MAEPAXI@Z 1006e746 f i libcpmt:wlocale.obj
 0001:0006d746       ??_G?$collate@G@std@@MAEPAXI@Z 1006e746 f i libcpmt:wlocale.obj
 0001:0006d768       ??_E?$collate@_W@std@@MAEPAXI@Z 1006e768 f i libcpmt:wlocale.obj
 0001:0006d768       ??_G?$collate@_W@std@@MAEPAXI@Z 1006e768 f i libcpmt:wlocale.obj
 0001:0006d78a       ??_E?$ctype@G@std@@MAEPAXI@Z 1006e78a f i libcpmt:wlocale.obj
 0001:0006d78a       ??_G?$ctype@G@std@@MAEPAXI@Z 1006e78a f i libcpmt:wlocale.obj
 0001:0006d7ac       ??_E?$ctype@_W@std@@MAEPAXI@Z 1006e7ac f i libcpmt:wlocale.obj
 0001:0006d7ac       ??_G?$ctype@_W@std@@MAEPAXI@Z 1006e7ac f i libcpmt:wlocale.obj
 0001:0006d7ce       ??_E?$messages@G@std@@MAEPAXI@Z 1006e7ce f i libcpmt:wlocale.obj
 0001:0006d7ce       ??_G?$messages@G@std@@MAEPAXI@Z 1006e7ce f i libcpmt:wlocale.obj
 0001:0006d7f1       ??_E?$messages@_W@std@@MAEPAXI@Z 1006e7f1 f i libcpmt:wlocale.obj
 0001:0006d7f1       ??_G?$messages@_W@std@@MAEPAXI@Z 1006e7f1 f i libcpmt:wlocale.obj
 0001:0006d814       ??_E?$money_get@GV?$istreambuf_iterator@GU?$char_traits@G@std@@@std@@@std@@MAEPAXI@Z 1006e814 f i libcpmt:wlocale.obj
 0001:0006d814       ??_G?$money_get@GV?$istreambuf_iterator@GU?$char_traits@G@std@@@std@@@std@@MAEPAXI@Z 1006e814 f i libcpmt:wlocale.obj
 0001:0006d837       ??_E?$money_get@_WV?$istreambuf_iterator@_WU?$char_traits@_W@std@@@std@@@std@@MAEPAXI@Z 1006e837 f i libcpmt:wlocale.obj
 0001:0006d837       ??_G?$money_get@_WV?$istreambuf_iterator@_WU?$char_traits@_W@std@@@std@@@std@@MAEPAXI@Z 1006e837 f i libcpmt:wlocale.obj
 0001:0006d85a       ??_E?$money_put@GV?$ostreambuf_iterator@GU?$char_traits@G@std@@@std@@@std@@MAEPAXI@Z 1006e85a f i libcpmt:wlocale.obj
 0001:0006d85a       ??_G?$money_put@GV?$ostreambuf_iterator@GU?$char_traits@G@std@@@std@@@std@@MAEPAXI@Z 1006e85a f i libcpmt:wlocale.obj
 0001:0006d87d       ??_E?$money_put@_WV?$ostreambuf_iterator@_WU?$char_traits@_W@std@@@std@@@std@@MAEPAXI@Z 1006e87d f i libcpmt:wlocale.obj
 0001:0006d87d       ??_G?$money_put@_WV?$ostreambuf_iterator@_WU?$char_traits@_W@std@@@std@@@std@@MAEPAXI@Z 1006e87d f i libcpmt:wlocale.obj
 0001:0006d8a0       ??_E?$moneypunct@G$00@std@@MAEPAXI@Z 1006e8a0 f i libcpmt:wlocale.obj
 0001:0006d8a0       ??_G?$moneypunct@G$00@std@@MAEPAXI@Z 1006e8a0 f i libcpmt:wlocale.obj
 0001:0006d8ce       ??_E?$moneypunct@G$0A@@std@@MAEPAXI@Z 1006e8ce f i libcpmt:wlocale.obj
 0001:0006d8ce       ??_G?$moneypunct@G$0A@@std@@MAEPAXI@Z 1006e8ce f i libcpmt:wlocale.obj
 0001:0006d8fc       ??_E?$moneypunct@_W$00@std@@MAEPAXI@Z 1006e8fc f i libcpmt:wlocale.obj
 0001:0006d8fc       ??_G?$moneypunct@_W$00@std@@MAEPAXI@Z 1006e8fc f i libcpmt:wlocale.obj
 0001:0006d92a       ??_E?$moneypunct@_W$0A@@std@@MAEPAXI@Z 1006e92a f i libcpmt:wlocale.obj
 0001:0006d92a       ??_G?$moneypunct@_W$0A@@std@@MAEPAXI@Z 1006e92a f i libcpmt:wlocale.obj
 0001:0006d958       ??_E?$num_get@GV?$istreambuf_iterator@GU?$char_traits@G@std@@@std@@@std@@MAEPAXI@Z 1006e958 f i libcpmt:wlocale.obj
 0001:0006d958       ??_G?$num_get@GV?$istreambuf_iterator@GU?$char_traits@G@std@@@std@@@std@@MAEPAXI@Z 1006e958 f i libcpmt:wlocale.obj
 0001:0006d97b       ??_E?$num_get@_WV?$istreambuf_iterator@_WU?$char_traits@_W@std@@@std@@@std@@MAEPAXI@Z 1006e97b f i libcpmt:wlocale.obj
 0001:0006d97b       ??_G?$num_get@_WV?$istreambuf_iterator@_WU?$char_traits@_W@std@@@std@@@std@@MAEPAXI@Z 1006e97b f i libcpmt:wlocale.obj
 0001:0006d99e       ??_E?$num_put@GV?$ostreambuf_iterator@GU?$char_traits@G@std@@@std@@@std@@MAEPAXI@Z 1006e99e f i libcpmt:wlocale.obj
 0001:0006d99e       ??_G?$num_put@GV?$ostreambuf_iterator@GU?$char_traits@G@std@@@std@@@std@@MAEPAXI@Z 1006e99e f i libcpmt:wlocale.obj
 0001:0006d9c1       ??_E?$num_put@_WV?$ostreambuf_iterator@_WU?$char_traits@_W@std@@@std@@@std@@MAEPAXI@Z 1006e9c1 f i libcpmt:wlocale.obj
 0001:0006d9c1       ??_G?$num_put@_WV?$ostreambuf_iterator@_WU?$char_traits@_W@std@@@std@@@std@@MAEPAXI@Z 1006e9c1 f i libcpmt:wlocale.obj
 0001:0006d9e4       ??_E?$numpunct@G@std@@MAEPAXI@Z 1006e9e4 f i libcpmt:wlocale.obj
 0001:0006d9e4       ??_G?$numpunct@G@std@@MAEPAXI@Z 1006e9e4 f i libcpmt:wlocale.obj
 0001:0006da12       ??_E?$numpunct@_W@std@@MAEPAXI@Z 1006ea12 f i libcpmt:wlocale.obj
 0001:0006da12       ??_G?$numpunct@_W@std@@MAEPAXI@Z 1006ea12 f i libcpmt:wlocale.obj
 0001:0006da40       ??_E?$time_get@GV?$istreambuf_iterator@GU?$char_traits@G@std@@@std@@@std@@MAEPAXI@Z 1006ea40 f i libcpmt:wlocale.obj
 0001:0006da40       ??_G?$time_get@GV?$istreambuf_iterator@GU?$char_traits@G@std@@@std@@@std@@MAEPAXI@Z 1006ea40 f i libcpmt:wlocale.obj
 0001:0006da6e       ??_E?$time_get@_WV?$istreambuf_iterator@_WU?$char_traits@_W@std@@@std@@@std@@MAEPAXI@Z 1006ea6e f i libcpmt:wlocale.obj
 0001:0006da6e       ??_G?$time_get@_WV?$istreambuf_iterator@_WU?$char_traits@_W@std@@@std@@@std@@MAEPAXI@Z 1006ea6e f i libcpmt:wlocale.obj
 0001:0006da9c       ??_E?$time_put@GV?$ostreambuf_iterator@GU?$char_traits@G@std@@@std@@@std@@MAEPAXI@Z 1006ea9c f i libcpmt:wlocale.obj
 0001:0006da9c       ??_G?$time_put@GV?$ostreambuf_iterator@GU?$char_traits@G@std@@@std@@@std@@MAEPAXI@Z 1006ea9c f i libcpmt:wlocale.obj
 0001:0006dabe       ??_E?$time_put@_WV?$ostreambuf_iterator@_WU?$char_traits@_W@std@@@std@@@std@@MAEPAXI@Z 1006eabe f i libcpmt:wlocale.obj
 0001:0006dabe       ??_G?$time_put@_WV?$ostreambuf_iterator@_WU?$char_traits@_W@std@@@std@@@std@@MAEPAXI@Z 1006eabe f i libcpmt:wlocale.obj
 0001:0006dae0       ??_Emessages_base@std@@UAEPAXI@Z 1006eae0 f i libcpmt:wlocale.obj
 0001:0006dae0       ??_Gmessages_base@std@@UAEPAXI@Z 1006eae0 f i libcpmt:wlocale.obj
 0001:0006db03       ??_Emoney_base@std@@UAEPAXI@Z 1006eb03 f i libcpmt:wlocale.obj
 0001:0006db03       ??_Gmoney_base@std@@UAEPAXI@Z 1006eb03 f i libcpmt:wlocale.obj
 0001:0006db26       ??_Etime_base@std@@UAEPAXI@Z 1006eb26 f i libcpmt:wlocale.obj
 0001:0006db26       ??_Gtime_base@std@@UAEPAXI@Z 1006eb26 f i libcpmt:wlocale.obj
 0001:0006db49       ?_Activate_SSO_buffer@?$_String_val@U?$_Simple_types@G@std@@@std@@QAEXXZ 1006eb49 f i libcpmt:wlocale.obj
 0001:0006db4c       ?_Activate_SSO_buffer@?$_String_val@U?$_Simple_types@_W@std@@@std@@QAEXXZ 1006eb4c f i libcpmt:wlocale.obj
 0001:0006db4f       ?_Adopt@_Iterator_base0@std@@QAEXPBX@Z 1006eb4f f i libcpmt:wlocale.obj
 0001:0006db52       ?_Apply_annotation@?$basic_string@GU?$char_traits@G@std@@V?$allocator@G@2@@std@@CAXQBGIII@Z 1006eb52 f i libcpmt:wlocale.obj
 0001:0006dba1       ?_Apply_annotation@?$basic_string@_WU?$char_traits@_W@std@@V?$allocator@_W@2@@std@@CAXQB_WIII@Z 1006eba1 f i libcpmt:wlocale.obj
 0001:0006dbf0       ?_C_str@?$_Yarn@_W@std@@QBEPB_WXZ 1006ebf0 f i libcpmt:wlocale.obj
 0001:0006dbfa       ?_Calculate_growth@?$basic_string@GU?$char_traits@G@std@@V?$allocator@G@2@@std@@ABEII@Z 1006ebfa f i libcpmt:wlocale.obj
 0001:0006dc14       ?_Calculate_growth@?$basic_string@GU?$char_traits@G@std@@V?$allocator@G@2@@std@@CAIIII@Z 1006ec14 f i libcpmt:wlocale.obj
 0001:0006dc45       ?_Calculate_growth@?$basic_string@_WU?$char_traits@_W@std@@V?$allocator@_W@2@@std@@ABEII@Z 1006ec45 f i libcpmt:wlocale.obj
 0001:0006dc5f       ?_Calculate_growth@?$basic_string@_WU?$char_traits@_W@std@@V?$allocator@_W@2@@std@@CAIIII@Z 1006ec5f f i libcpmt:wlocale.obj
 0001:0006dc90       ?_Check_offset@?$_String_val@U?$_Simple_types@G@std@@@std@@QBEXI@Z 1006ec90 f i libcpmt:wlocale.obj
 0001:0006dca5       ?_Check_offset@?$_String_val@U?$_Simple_types@_W@std@@@std@@QBEXI@Z 1006eca5 f i libcpmt:wlocale.obj
 0001:0006dcba       ?_Compat@?$_String_const_iterator@V?$_String_val@U?$_Simple_types@G@std@@@std@@@std@@QBEXABV12@@Z 1006ecba f i libcpmt:wlocale.obj
 0001:0006dcbd       ?_Compat@?$_String_const_iterator@V?$_String_val@U?$_Simple_types@_W@std@@@std@@@std@@QBEXABV12@@Z 1006ecbd f i libcpmt:wlocale.obj
 0001:0006dcc0       ?_Construct_empty@?$basic_string@GU?$char_traits@G@std@@V?$allocator@G@2@@std@@AAEXXZ 1006ecc0 f i libcpmt:wlocale.obj
 0001:0006dcd4       ?_Construct_empty@?$basic_string@_WU?$char_traits@_W@std@@V?$allocator@_W@2@@std@@AAEXXZ 1006ecd4 f i libcpmt:wlocale.obj
 0001:0006dce8       ?_Create_annotation@?$basic_string@GU?$char_traits@G@std@@V?$allocator@G@2@@std@@ABEXXZ 1006ece8 f i libcpmt:wlocale.obj
 0001:0006dd02       ?_Create_annotation@?$basic_string@_WU?$char_traits@_W@std@@V?$allocator@_W@2@@std@@ABEXXZ 1006ed02 f i libcpmt:wlocale.obj
 0001:0006dd1c       ?_Deallocate_for_capacity@?$basic_string@_WU?$char_traits@_W@std@@V?$allocator@_W@2@@std@@CAXAAV?$allocator@_W@2@QA_WI@Z 1006ed1c f i libcpmt:wlocale.obj
 0001:0006dd36       ?_Donarrow@?$ctype@G@std@@IBEDGD@Z 1006ed36 f i libcpmt:wlocale.obj
 0001:0006dd83       ?_Donarrow@?$ctype@_W@std@@IBED_WD@Z 1006ed83 f i libcpmt:wlocale.obj
 0001:0006ddd0       ?_Dowiden@?$ctype@G@std@@IBEGD@Z 1006edd0 f i libcpmt:wlocale.obj
 0001:0006de0b       ?_Dowiden@?$ctype@_W@std@@IBE_WD@Z 1006ee0b f i libcpmt:wlocale.obj
 0001:0006de48       ?_Empty@?$_Yarn@_W@std@@QBE_NXZ 1006ee48 f i libcpmt:wlocale.obj
 0001:0006de4f       ?_Eos@?$basic_string@GU?$char_traits@G@std@@V?$allocator@G@2@@std@@AAEXI@Z 1006ee4f f i libcpmt:wlocale.obj
 0001:0006de79       ?_Eos@?$basic_string@_WU?$char_traits@_W@std@@V?$allocator@_W@2@@std@@AAEXI@Z 1006ee79 f i libcpmt:wlocale.obj
 0001:0006dea3       ?_Ffmt@?$num_put@GV?$ostreambuf_iterator@GU?$char_traits@G@std@@@std@@@std@@ABAPADPADDH@Z 1006eea3 f i libcpmt:wlocale.obj
 0001:0006df3c       ?_Ffmt@?$num_put@_WV?$ostreambuf_iterator@_WU?$char_traits@_W@std@@@std@@@std@@ABAPADPADDH@Z 1006ef3c f i libcpmt:wlocale.obj
 0001:0006dfd5       ?_Fnv1a_append_bytes@std@@YAIIQBEI@Z 1006efd5 f i libcpmt:wlocale.obj
 0001:0006dffd       ?_Get_first@?$_Compressed_pair@V?$allocator@G@std@@V?$_String_val@U?$_Simple_types@G@std@@@2@$00@std@@QAEAAV?$allocator@G@2@XZ 1006effd f i libcpmt:wlocale.obj
 0001:0006e000       ?_Get_first@?$_Compressed_pair@V?$allocator@G@std@@V?$_String_val@U?$_Simple_types@G@std@@@2@$00@std@@QBEABV?$allocator@G@2@XZ 1006f000 f i libcpmt:wlocale.obj
 0001:0006e003       ?_Get_first@?$_Compressed_pair@V?$allocator@_W@std@@V?$_String_val@U?$_Simple_types@_W@std@@@2@$00@std@@QAEAAV?$allocator@_W@2@XZ 1006f003 f i libcpmt:wlocale.obj
 0001:0006e006       ?_Get_first@?$_Compressed_pair@V?$allocator@_W@std@@V?$_String_val@U?$_Simple_types@_W@std@@@2@$00@std@@QBEABV?$allocator@_W@2@XZ 1006f006 f i libcpmt:wlocale.obj
 0001:0006e009       ?_Getal@?$basic_string@GU?$char_traits@G@std@@V?$allocator@G@2@@std@@AAEAAV?$allocator@G@2@XZ 1006f009 f i libcpmt:wlocale.obj
 0001:0006e00c       ?_Getal@?$basic_string@GU?$char_traits@G@std@@V?$allocator@G@2@@std@@ABEABV?$allocator@G@2@XZ 1006f00c f i libcpmt:wlocale.obj
 0001:0006e00f       ?_Getal@?$basic_string@_WU?$char_traits@_W@std@@V?$allocator@_W@2@@std@@AAEAAV?$allocator@_W@2@XZ 1006f00f f i libcpmt:wlocale.obj
 0001:0006e012       ?_Getal@?$basic_string@_WU?$char_traits@_W@std@@V?$allocator@_W@2@@std@@ABEABV?$allocator@_W@2@XZ 1006f012 f i libcpmt:wlocale.obj
 0001:0006e015       ?_Getcat@?$codecvt@GDU_Mbstatet@@@std@@SAIPAPBVfacet@locale@2@PBV42@@Z 1006f015 f i libcpmt:wlocale.obj
 0001:0006e07b       ?_Getcat@?$codecvt@_WDU_Mbstatet@@@std@@SAIPAPBVfacet@locale@2@PBV42@@Z 1006f07b f i libcpmt:wlocale.obj
 0001:0006e0e1       ?_Getcat@?$collate@G@std@@SAIPAPBVfacet@locale@2@PBV42@@Z 1006f0e1 f i libcpmt:wlocale.obj
 0001:0006e186       ?_Getcat@?$collate@_W@std@@SAIPAPBVfacet@locale@2@PBV42@@Z 1006f186 f i libcpmt:wlocale.obj
 0001:0006e22b       ?_Getcat@?$ctype@G@std@@SAIPAPBVfacet@locale@2@PBV42@@Z 1006f22b f i libcpmt:wlocale.obj
 0001:0006e29e       ?_Getcat@?$ctype@_W@std@@SAIPAPBVfacet@locale@2@PBV42@@Z 1006f29e f i libcpmt:wlocale.obj
 0001:0006e311       ?_Getcat@?$messages@G@std@@SAIPAPBVfacet@locale@2@PBV42@@Z 1006f311 f i libcpmt:wlocale.obj
 0001:0006e37c       ?_Getcat@?$messages@_W@std@@SAIPAPBVfacet@locale@2@PBV42@@Z 1006f37c f i libcpmt:wlocale.obj
 0001:0006e3e7       ?_Getcat@?$money_get@GV?$istreambuf_iterator@GU?$char_traits@G@std@@@std@@@std@@SAIPAPBVfacet@locale@2@PBV42@@Z 1006f3e7 f i libcpmt:wlocale.obj
 0001:0006e452       ?_Getcat@?$money_get@_WV?$istreambuf_iterator@_WU?$char_traits@_W@std@@@std@@@std@@SAIPAPBVfacet@locale@2@PBV42@@Z 1006f452 f i libcpmt:wlocale.obj
 0001:0006e4bd       ?_Getcat@?$money_put@GV?$ostreambuf_iterator@GU?$char_traits@G@std@@@std@@@std@@SAIPAPBVfacet@locale@2@PBV42@@Z 1006f4bd f i libcpmt:wlocale.obj
 0001:0006e528       ?_Getcat@?$money_put@_WV?$ostreambuf_iterator@_WU?$char_traits@_W@std@@@std@@@std@@SAIPAPBVfacet@locale@2@PBV42@@Z 1006f528 f i libcpmt:wlocale.obj
 0001:0006e593       ?_Getcat@?$moneypunct@G$00@std@@SAIPAPBVfacet@locale@2@PBV42@@Z 1006f593 f i libcpmt:wlocale.obj
 0001:0006e609       ?_Getcat@?$moneypunct@G$0A@@std@@SAIPAPBVfacet@locale@2@PBV42@@Z 1006f609 f i libcpmt:wlocale.obj
 0001:0006e680       ?_Getcat@?$moneypunct@_W$00@std@@SAIPAPBVfacet@locale@2@PBV42@@Z 1006f680 f i libcpmt:wlocale.obj
 0001:0006e6f6       ?_Getcat@?$moneypunct@_W$0A@@std@@SAIPAPBVfacet@locale@2@PBV42@@Z 1006f6f6 f i libcpmt:wlocale.obj
 0001:0006e76d       ?_Getcat@?$num_get@GV?$istreambuf_iterator@GU?$char_traits@G@std@@@std@@@std@@SAIPAPBVfacet@locale@2@PBV42@@Z 1006f76d f i libcpmt:wlocale.obj
 0001:0006e7d8       ?_Getcat@?$num_get@_WV?$istreambuf_iterator@_WU?$char_traits@_W@std@@@std@@@std@@SAIPAPBVfacet@locale@2@PBV42@@Z 1006f7d8 f i libcpmt:wlocale.obj
 0001:0006e843       ?_Getcat@?$num_put@GV?$ostreambuf_iterator@GU?$char_traits@G@std@@@std@@@std@@SAIPAPBVfacet@locale@2@PBV42@@Z 1006f843 f i libcpmt:wlocale.obj
 0001:0006e8ae       ?_Getcat@?$num_put@_WV?$ostreambuf_iterator@_WU?$char_traits@_W@std@@@std@@@std@@SAIPAPBVfacet@locale@2@PBV42@@Z 1006f8ae f i libcpmt:wlocale.obj
 0001:0006e919       ?_Getcat@?$numpunct@G@std@@SAIPAPBVfacet@locale@2@PBV42@@Z 1006f919 f i libcpmt:wlocale.obj
 0001:0006e986       ?_Getcat@?$numpunct@_W@std@@SAIPAPBVfacet@locale@2@PBV42@@Z 1006f986 f i libcpmt:wlocale.obj
 0001:0006e9f3       ?_Getcat@?$time_get@GV?$istreambuf_iterator@GU?$char_traits@G@std@@@std@@@std@@SAIPAPBVfacet@locale@2@PBV42@@Z 1006f9f3 f i libcpmt:wlocale.obj
 0001:0006ea5f       ?_Getcat@?$time_get@_WV?$istreambuf_iterator@_WU?$char_traits@_W@std@@@std@@@std@@SAIPAPBVfacet@locale@2@PBV42@@Z 1006fa5f f i libcpmt:wlocale.obj
 0001:0006eacb       ?_Getcat@?$time_put@GV?$ostreambuf_iterator@GU?$char_traits@G@std@@@std@@@std@@SAIPAPBVfacet@locale@2@PBV42@@Z 1006facb f i libcpmt:wlocale.obj
 0001:0006eb45       ?_Getcat@?$time_put@_WV?$ostreambuf_iterator@_WU?$char_traits@_W@std@@@std@@@std@@SAIPAPBVfacet@locale@2@PBV42@@Z 1006fb45 f i libcpmt:wlocale.obj
 0001:0006ebbf       ?_Getcoll@_Locinfo@std@@QBE?AU_Collvec@@XZ 1006fbbf f i libcpmt:wlocale.obj
 0001:0006ebd5       ?_Getdateorder@_Locinfo@std@@QBEHXZ 1006fbd5 f i libcpmt:wlocale.obj
 0001:0006ebda       ?_Getdays@_Locinfo@std@@QBEPBDXZ 1006fbda f i libcpmt:wlocale.obj
 0001:0006ec09       ?_Getfmt@?$time_get@GV?$istreambuf_iterator@GU?$char_traits@G@std@@@std@@@std@@IBE?AV?$istreambuf_iterator@GU?$char_traits@G@std@@@2@V32@0AAVios_base@2@AAHPAUtm@@PBD@Z 1006fc09 f i libcpmt:wlocale.obj
 0001:0006ed7b       ?_Getfmt@?$time_get@_WV?$istreambuf_iterator@_WU?$char_traits@_W@std@@@std@@@std@@IBE?AV?$istreambuf_iterator@_WU?$char_traits@_W@std@@@2@V32@0AAVios_base@2@AAHPAUtm@@PBD@Z 1006fd7b f i libcpmt:wlocale.obj
 0001:0006eeed       ?_Getint@?$time_get@GV?$istreambuf_iterator@GU?$char_traits@G@std@@@std@@@std@@ABAHAAV?$istreambuf_iterator@GU?$char_traits@G@std@@@2@0HHAAHABV?$ctype@G@2@@Z 1006feed f i libcpmt:wlocale.obj
 0001:0006ef11       ?_Getint@?$time_get@_WV?$istreambuf_iterator@_WU?$char_traits@_W@std@@@std@@@std@@ABAHAAV?$istreambuf_iterator@_WU?$char_traits@_W@std@@@2@0HHAAHABV?$ctype@_W@2@@Z 1006ff11 f i libcpmt:wlocale.obj
 0001:0006ef35       ?_Getmfld@?$money_get@GV?$istreambuf_iterator@GU?$char_traits@G@std@@@std@@@std@@ABE?AV?$basic_string@DU?$char_traits@D@std@@V?$allocator@D@2@@2@AAV?$istreambuf_iterator@GU?$char_traits@G@std@@@2@0_NAAVios_base@2@AAY0M@G@Z 1006ff35 f i libcpmt:wlocale.obj
 0001:0006fb85       ?_Getmfld@?$money_get@_WV?$istreambuf_iterator@_WU?$char_traits@_W@std@@@std@@@std@@ABE?AV?$basic_string@DU?$char_traits@D@std@@V?$allocator@D@2@@2@AAV?$istreambuf_iterator@_WU?$char_traits@_W@std@@@2@0_NAAVios_base@2@AAY0M@_W@Z 10070b85 f i libcpmt:wlocale.obj
 0001:000707d5       ?_Getmonths@_Locinfo@std@@QBEPBDXZ 100717d5 f i libcpmt:wlocale.obj
 0001:00070804       ?_Getptr@_Timevec@std@@QBEPAXXZ 10071804 f i libcpmt:wlocale.obj
 0001:00070807       ?_Gnavail@?$basic_streambuf@GU?$char_traits@G@std@@@std@@IBE_JXZ 10071807 f i libcpmt:wlocale.obj
 0001:00070819       ?_Gnavail@?$basic_streambuf@_WU?$char_traits@_W@std@@@std@@IBE_JXZ 10071819 f i libcpmt:wlocale.obj
 0001:0007082b       ?_Gninc@?$basic_streambuf@GU?$char_traits@G@std@@@std@@IAEPAGXZ 1007182b f i libcpmt:wlocale.obj
 0001:0007083b       ?_Gninc@?$basic_streambuf@_WU?$char_traits@_W@std@@@std@@IAEPA_WXZ 1007183b f i libcpmt:wlocale.obj
 0001:0007084b       ?_Ifmt@?$num_put@GV?$ostreambuf_iterator@GU?$char_traits@G@std@@@std@@@std@@ABAPADPADPBDH@Z 1007184b f i libcpmt:wlocale.obj
 0001:000708c0       ?_Ifmt@?$num_put@_WV?$ostreambuf_iterator@_WU?$char_traits@_W@std@@@std@@@std@@ABAPADPADPBDH@Z 100718c0 f i libcpmt:wlocale.obj
 0001:00070935       ?_Inc@?$istreambuf_iterator@GU?$char_traits@G@std@@@std@@AAEXXZ 10071935 f i libcpmt:wlocale.obj
 0001:0007095e       ?_Inc@?$istreambuf_iterator@_WU?$char_traits@_W@std@@@std@@AAEXXZ 1007195e f i libcpmt:wlocale.obj
 0001:00070987       ?_Init@?$_Mpunct@G@std@@IAEXABV_Locinfo@2@_N@Z 10071987 f i libcpmt:wlocale.obj
 0001:00070abd       ?_Init@?$_Mpunct@_W@std@@IAEXABV_Locinfo@2@_N@Z 10071abd f i libcpmt:wlocale.obj
 0001:00070bd9       ?_Init@?$codecvt@GDU_Mbstatet@@@std@@IAEXABV_Locinfo@2@@Z 10071bd9 f i libcpmt:wlocale.obj
 0001:00070bfd       ?_Init@?$codecvt@_WDU_Mbstatet@@@std@@IAEXABV_Locinfo@2@@Z 10071bfd f i libcpmt:wlocale.obj
 0001:00070c21       ?_Init@?$collate@G@std@@IAEXABV_Locinfo@2@@Z 10071c21 f i libcpmt:wlocale.obj
 0001:00070c33       ?_Init@?$collate@_W@std@@IAEXABV_Locinfo@2@@Z 10071c33 f i libcpmt:wlocale.obj
 0001:00070c45       ?_Init@?$ctype@G@std@@IAEXABV_Locinfo@2@@Z 10071c45 f i libcpmt:wlocale.obj
 0001:00070c7e       ?_Init@?$ctype@_W@std@@IAEXABV_Locinfo@2@@Z 10071c7e f i libcpmt:wlocale.obj
 0001:00070cb7       ?_Init@?$messages@G@std@@IAEXABV_Locinfo@2@@Z 10071cb7 f i libcpmt:wlocale.obj
 0001:00070cba       ?_Init@?$messages@_W@std@@IAEXABV_Locinfo@2@@Z 10071cba f i libcpmt:wlocale.obj
 0001:00070cbd       ?_Init@?$money_get@GV?$istreambuf_iterator@GU?$char_traits@G@std@@@std@@@std@@IAEXABV_Locinfo@2@@Z 10071cbd f i libcpmt:wlocale.obj
 0001:00070cc0       ?_Init@?$money_get@_WV?$istreambuf_iterator@_WU?$char_traits@_W@std@@@std@@@std@@IAEXABV_Locinfo@2@@Z 10071cc0 f i libcpmt:wlocale.obj
 0001:00070cc3       ?_Init@?$money_put@GV?$ostreambuf_iterator@GU?$char_traits@G@std@@@std@@@std@@IAEXABV_Locinfo@2@@Z 10071cc3 f i libcpmt:wlocale.obj
 0001:00070cc6       ?_Init@?$money_put@_WV?$ostreambuf_iterator@_WU?$char_traits@_W@std@@@std@@@std@@IAEXABV_Locinfo@2@@Z 10071cc6 f i libcpmt:wlocale.obj
 0001:00070cc9       ?_Init@?$num_get@GV?$istreambuf_iterator@GU?$char_traits@G@std@@@std@@@std@@IAEXABV_Locinfo@2@@Z 10071cc9 f i libcpmt:wlocale.obj
 0001:00070ccc       ?_Init@?$num_get@_WV?$istreambuf_iterator@_WU?$char_traits@_W@std@@@std@@@std@@IAEXABV_Locinfo@2@@Z 10071ccc f i libcpmt:wlocale.obj
 0001:00070ccf       ?_Init@?$num_put@GV?$ostreambuf_iterator@GU?$char_traits@G@std@@@std@@@std@@IAEXABV_Locinfo@2@@Z 10071ccf f i libcpmt:wlocale.obj
 0001:00070cd2       ?_Init@?$num_put@_WV?$ostreambuf_iterator@_WU?$char_traits@_W@std@@@std@@@std@@IAEXABV_Locinfo@2@@Z 10071cd2 f i libcpmt:wlocale.obj
 0001:00070cd5       ?_Init@?$numpunct@G@std@@IAEXABV_Locinfo@2@_N@Z 10071cd5 f i libcpmt:wlocale.obj
 0001:00070da8       ?_Init@?$numpunct@_W@std@@IAEXABV_Locinfo@2@_N@Z 10071da8 f i libcpmt:wlocale.obj
 0001:00070e6f       ?_Init@?$time_get@GV?$istreambuf_iterator@GU?$char_traits@G@std@@@std@@@std@@IAEXABV_Locinfo@2@@Z 10071e6f f i libcpmt:wlocale.obj
 0001:00070ea7       ?_Init@?$time_get@_WV?$istreambuf_iterator@_WU?$char_traits@_W@std@@@std@@@std@@IAEXABV_Locinfo@2@@Z 10071ea7 f i libcpmt:wlocale.obj
 0001:00070edf       ?_Init@?$time_put@GV?$ostreambuf_iterator@GU?$char_traits@G@std@@@std@@@std@@IAEXABV_Locinfo@2@@Z 10071edf f i libcpmt:wlocale.obj
 0001:00070f08       ?_Init@?$time_put@_WV?$ostreambuf_iterator@_WU?$char_traits@_W@std@@@std@@@std@@IAEXABV_Locinfo@2@@Z 10071f08 f i libcpmt:wlocale.obj
 0001:00070f31       ?_Iput@?$num_put@GV?$ostreambuf_iterator@GU?$char_traits@G@std@@@std@@@std@@ABA?AV?$ostreambuf_iterator@GU?$char_traits@G@std@@@2@V32@AAVios_base@2@GPADI@Z 10071f31 f i libcpmt:wlocale.obj
 0001:000711ef       ?_Iput@?$num_put@_WV?$ostreambuf_iterator@_WU?$char_traits@_W@std@@@std@@@std@@ABA?AV?$ostreambuf_iterator@_WU?$char_traits@_W@std@@@2@V32@AAVios_base@2@_WPADI@Z 100721ef f i libcpmt:wlocale.obj
 0001:000714ad       ?_Is_constant_evaluated@std@@YA_NXZ 100724ad f i libcpmt:wlocale.obj
 0001:000714b0       ?_Large_mode_engaged@?$_String_val@U?$_Simple_types@G@std@@@std@@QBE_NXZ 100724b0 f i libcpmt:wlocale.obj
 0001:000714b8       ?_Large_mode_engaged@?$_String_val@U?$_Simple_types@_W@std@@@std@@QBE_NXZ 100724b8 f i libcpmt:wlocale.obj
 0001:000714c0       ?_Makestr@_System_error@std@@CA?AV?$basic_string@DU?$char_traits@D@std@@V?$allocator@D@2@@2@Verror_code@2@V32@@Z 100724c0 f i libcpmt:wlocale.obj
 0001:00071536       ?_Makeushloc@_Locimp@locale@std@@CAXABV_Locinfo@3@HPAV123@PBV23@@Z 10072536 f   libcpmt:wlocale.obj
 0001:000719ec       ?_Makewloc@_Locimp@locale@std@@CAXABV_Locinfo@3@HPAV123@PBV23@@Z 100729ec f   libcpmt:wlocale.obj
 0001:00071ea2       ?_Maklocwcs@std@@YAPA_WPB_W@Z 10072ea2 f i libcpmt:wlocale.obj
 0001:00071eeb       ?_Makpat@?$_Mpunct@G@std@@AAEXAAUpattern@money_base@2@III@Z 10072eeb f i libcpmt:wlocale.obj
 0001:00071f2c       ?_Makpat@?$_Mpunct@_W@std@@AAEXAAUpattern@money_base@2@III@Z 10072f2c f i libcpmt:wlocale.obj
 0001:00071f6d       ?_Modify_annotation@?$basic_string@GU?$char_traits@G@std@@V?$allocator@G@2@@std@@ABEXII@Z 10072f6d f i libcpmt:wlocale.obj
 0001:00071f94       ?_Modify_annotation@?$basic_string@_WU?$char_traits@_W@std@@V?$allocator@_W@2@@std@@ABEXII@Z 10072f94 f i libcpmt:wlocale.obj
 0001:00071fbb       ?_Myptr@?$_String_val@U?$_Simple_types@G@std@@@std@@QAEPAGXZ 10072fbb f i libcpmt:wlocale.obj
 0001:00071fc6       ?_Myptr@?$_String_val@U?$_Simple_types@G@std@@@std@@QBEPBGXZ 10072fc6 f i libcpmt:wlocale.obj
 0001:00071fd1       ?_Myptr@?$_String_val@U?$_Simple_types@_W@std@@@std@@QAEPA_WXZ 10072fd1 f i libcpmt:wlocale.obj
 0001:00071fdc       ?_Myptr@?$_String_val@U?$_Simple_types@_W@std@@@std@@QBEPB_WXZ 10072fdc f i libcpmt:wlocale.obj
 0001:00071fe7       ?_Peek@?$istreambuf_iterator@GU?$char_traits@G@std@@@std@@ABEGXZ 10072fe7 f i libcpmt:wlocale.obj
 0001:00072018       ?_Peek@?$istreambuf_iterator@_WU?$char_traits@_W@std@@@std@@ABE_WXZ 10073018 f i libcpmt:wlocale.obj
 0001:00072049       ?_Pnavail@?$basic_streambuf@GU?$char_traits@G@std@@@std@@IBE_JXZ 10073049 f i libcpmt:wlocale.obj
 0001:0007205b       ?_Pnavail@?$basic_streambuf@_WU?$char_traits@_W@std@@@std@@IBE_JXZ 1007305b f i libcpmt:wlocale.obj
 0001:0007206d       ?_Pninc@?$basic_streambuf@GU?$char_traits@G@std@@@std@@IAEPAGXZ 1007306d f i libcpmt:wlocale.obj
 0001:0007207d       ?_Pninc@?$basic_streambuf@_WU?$char_traits@_W@std@@@std@@IAEPA_WXZ 1007307d f i libcpmt:wlocale.obj
 0001:0007208d       ?_Put@?$money_put@GV?$ostreambuf_iterator@GU?$char_traits@G@std@@@std@@@std@@CA?AV?$ostreambuf_iterator@GU?$char_traits@G@std@@@2@V32@V?$_String_const_iterator@V?$_String_val@U?$_Simple_types@G@std@@@std@@@2@I@Z 1007308d f i libcpmt:wlocale.obj
 0001:000720c6       ?_Put@?$money_put@_WV?$ostreambuf_iterator@_WU?$char_traits@_W@std@@@std@@@std@@CA?AV?$ostreambuf_iterator@_WU?$char_traits@_W@std@@@2@V32@V?$_String_const_iterator@V?$_String_val@U?$_Simple_types@_W@std@@@std@@@2@I@Z 100730c6 f i libcpmt:wlocale.obj
 0001:000720ff       ?_Put@?$num_put@GV?$ostreambuf_iterator@GU?$char_traits@G@std@@@std@@@std@@ABA?AV?$ostreambuf_iterator@GU?$char_traits@G@std@@@2@V32@PBGI@Z 100730ff f i libcpmt:wlocale.obj
 0001:00072134       ?_Put@?$num_put@_WV?$ostreambuf_iterator@_WU?$char_traits@_W@std@@@std@@@std@@ABA?AV?$ostreambuf_iterator@_WU?$char_traits@_W@std@@@2@V32@PB_WI@Z 10073134 f i libcpmt:wlocale.obj
 0001:00072169       ?_Putmfld@?$money_put@GV?$ostreambuf_iterator@GU?$char_traits@G@std@@@std@@@std@@ABE?AV?$ostreambuf_iterator@GU?$char_traits@G@std@@@2@V32@_NAAVios_base@2@G1V?$basic_string@GU?$char_traits@G@std@@V?$allocator@G@2@@2@G@Z 10073169 f i libcpmt:wlocale.obj
 0001:0007271f       ?_Putmfld@?$money_put@_WV?$ostreambuf_iterator@_WU?$char_traits@_W@std@@@std@@@std@@ABE?AV?$ostreambuf_iterator@_WU?$char_traits@_W@std@@@2@V32@_NAAVios_base@2@_W1V?$basic_string@_WU?$char_traits@_W@std@@V?$allocator@_W@2@@2@3@Z 1007371f f i libcpmt:wlocale.obj
 0001:00072cd5       ?_Remove_annotation@?$basic_string@GU?$char_traits@G@std@@V?$allocator@G@2@@std@@ABEXXZ 10073cd5 f i libcpmt:wlocale.obj
 0001:00072cef       ?_Remove_annotation@?$basic_string@_WU?$char_traits@_W@std@@V?$allocator@_W@2@@std@@ABEXXZ 10073cef f i libcpmt:wlocale.obj
 0001:00072d09       ?_Rep@?$money_put@GV?$ostreambuf_iterator@GU?$char_traits@G@std@@@std@@@std@@CA?AV?$ostreambuf_iterator@GU?$char_traits@G@std@@@2@V32@GI@Z 10073d09 f i libcpmt:wlocale.obj
 0001:00072d35       ?_Rep@?$money_put@_WV?$ostreambuf_iterator@_WU?$char_traits@_W@std@@@std@@@std@@CA?AV?$ostreambuf_iterator@_WU?$char_traits@_W@std@@@2@V32@_WI@Z 10073d35 f i libcpmt:wlocale.obj
 0001:00072d61       ?_Rep@?$num_put@GV?$ostreambuf_iterator@GU?$char_traits@G@std@@@std@@@std@@ABA?AV?$ostreambuf_iterator@GU?$char_traits@G@std@@@2@V32@GI@Z 10073d61 f i libcpmt:wlocale.obj
 0001:00072d8d       ?_Rep@?$num_put@_WV?$ostreambuf_iterator@_WU?$char_traits@_W@std@@@std@@@std@@ABA?AV?$ostreambuf_iterator@_WU?$char_traits@_W@std@@@2@V32@_WI@Z 10073d8d f i libcpmt:wlocale.obj
 0001:00072db9       ?_Swap_proxy_and_iterators@?$basic_string@GU?$char_traits@G@std@@V?$allocator@G@2@@std@@AAEXAAV12@@Z 10073db9 f i libcpmt:wlocale.obj
 0001:00072dbc       ?_Swap_proxy_and_iterators@?$basic_string@_WU?$char_traits@_W@std@@V?$allocator@_W@2@@std@@AAEXAAV12@@Z 10073dbc f i libcpmt:wlocale.obj
 0001:00072dbf       ?_Switch_to_buf@_Bxty@?$_String_val@U?$_Simple_types@G@std@@@std@@QAEXXZ 10073dbf f i libcpmt:wlocale.obj
 0001:00072dc2       ?_Switch_to_buf@_Bxty@?$_String_val@U?$_Simple_types@_W@std@@@std@@QAEXXZ 10073dc2 f i libcpmt:wlocale.obj
 0001:00072dc5       ?_Take_contents@?$basic_string@GU?$char_traits@G@std@@V?$allocator@G@2@@std@@AAEXAAV12@@Z 10073dc5 f i libcpmt:wlocale.obj
 0001:00072e15       ?_Take_contents@?$basic_string@_WU?$char_traits@_W@std@@V?$allocator@_W@2@@std@@AAEXAAV12@@Z 10073e15 f i libcpmt:wlocale.obj
 0001:00072e65       ?_Tidy@?$_Mpunct@G@std@@AAEXXZ 10073e65 f i libcpmt:wlocale.obj
 0001:00072e8d       ?_Tidy@?$_Mpunct@_W@std@@AAEXXZ 10073e8d f i libcpmt:wlocale.obj
 0001:00072eb5       ?_Tidy@?$numpunct@G@std@@AAEXXZ 10073eb5 f i libcpmt:wlocale.obj
 0001:00072ed5       ?_Tidy@?$numpunct@_W@std@@AAEXXZ 10073ed5 f i libcpmt:wlocale.obj
 0001:00072ef5       ?_Tidy@?$time_get@GV?$istreambuf_iterator@GU?$char_traits@G@std@@@std@@@std@@AAEXXZ 10073ef5 f i libcpmt:wlocale.obj
 0001:00072f15       ?_Tidy@?$time_get@_WV?$istreambuf_iterator@_WU?$char_traits@_W@std@@@std@@@std@@AAEXXZ 10073f15 f i libcpmt:wlocale.obj
 0001:00072f35       ?_Tidy_deallocate@?$basic_string@GU?$char_traits@G@std@@V?$allocator@G@2@@std@@AAEXXZ 10073f35 f i libcpmt:wlocale.obj
 0001:00072f6c       ?_Tidy_deallocate@?$basic_string@_WU?$char_traits@_W@std@@V?$allocator@_W@2@@std@@AAEXXZ 10073f6c f i libcpmt:wlocale.obj
 0001:00072fa3       ?_W_Getdays@_Locinfo@std@@QBEPBGXZ 10073fa3 f i libcpmt:wlocale.obj
 0001:00072fd2       ?_W_Getmonths@_Locinfo@std@@QBEPBGXZ 10073fd2 f i libcpmt:wlocale.obj
 0001:00073001       ?_W_Gettnames@_Locinfo@std@@QBE?AV_Timevec@2@XZ 10074001 f i libcpmt:wlocale.obj
 0001:00073015       ?_Xran@?$_String_val@U?$_Simple_types@G@std@@@std@@SAXXZ 10074015 f i libcpmt:wlocale.obj
 0001:00073020       ?_Xran@?$_String_val@U?$_Simple_types@_W@std@@@std@@SAXXZ 10074020 f i libcpmt:wlocale.obj
 0001:0007302b       ?allocate@?$allocator@G@std@@QAEPAGI@Z 1007402b f i libcpmt:wlocale.obj
 0001:0007304b       ?allocate@?$allocator@_W@std@@QAEPA_WI@Z 1007404b f i libcpmt:wlocale.obj
 0001:0007306b       ?append@?$basic_string@DU?$char_traits@D@std@@V?$allocator@D@2@@std@@QAEAAV12@QBD@Z 1007406b f i libcpmt:wlocale.obj
 0001:0007308c       ?append@?$basic_string@GU?$char_traits@G@std@@V?$allocator@G@2@@std@@QAEAAV12@ABV12@@Z 1007408c f i libcpmt:wlocale.obj
 0001:000730a8       ?append@?$basic_string@GU?$char_traits@G@std@@V?$allocator@G@2@@std@@QAEAAV12@IG@Z 100740a8 f i libcpmt:wlocale.obj
 0001:00073116       ?append@?$basic_string@GU?$char_traits@G@std@@V?$allocator@G@2@@std@@QAEAAV12@QBGI@Z 10074116 f i libcpmt:wlocale.obj
 0001:00073185       ?append@?$basic_string@_WU?$char_traits@_W@std@@V?$allocator@_W@2@@std@@QAEAAV12@ABV12@@Z 10074185 f i libcpmt:wlocale.obj
 0001:000731a1       ?append@?$basic_string@_WU?$char_traits@_W@std@@V?$allocator@_W@2@@std@@QAEAAV12@I_W@Z 100741a1 f i libcpmt:wlocale.obj
 0001:0007320f       ?append@?$basic_string@_WU?$char_traits@_W@std@@V?$allocator@_W@2@@std@@QAEAAV12@QB_WI@Z 1007420f f i libcpmt:wlocale.obj
 0001:0007327e       ?assign@?$_Char_traits@GG@std@@SAPAGQAGIG@Z 1007427e f i libcpmt:wlocale.obj
 0001:000732a8       ?assign@?$_Char_traits@GG@std@@SAXAAGABG@Z 100742a8 f i libcpmt:wlocale.obj
 0001:000732b9       ?assign@?$_Char_traits@_WG@std@@SAPA_WQA_WI_W@Z 100742b9 f i libcpmt:wlocale.obj
 0001:000732e3       ?assign@?$_Char_traits@_WG@std@@SAXAA_WAB_W@Z 100742e3 f i libcpmt:wlocale.obj
 0001:000732f4       ?assign@?$_WChar_traits@G@std@@SAPAGQAGIG@Z 100742f4 f i libcpmt:wlocale.obj
 0001:0007330a       ?assign@?$_WChar_traits@G@std@@SAXAAGABG@Z 1007430a f i libcpmt:wlocale.obj
 0001:0007331b       ?assign@?$_WChar_traits@_W@std@@SAPA_WQA_WI_W@Z 1007431b f i libcpmt:wlocale.obj
 0001:00073331       ?assign@?$_WChar_traits@_W@std@@SAXAA_WAB_W@Z 10074331 f i libcpmt:wlocale.obj
 0001:00073342       ?assign@?$basic_string@GU?$char_traits@G@std@@V?$allocator@G@2@@std@@QAEAAV12@$$QAV12@@Z 10074342 f i libcpmt:wlocale.obj
 0001:00073357       ?assign@?$basic_string@_WU?$char_traits@_W@std@@V?$allocator@_W@2@@std@@QAEAAV12@$$QAV12@@Z 10074357 f i libcpmt:wlocale.obj
 0001:0007336c       ?begin@?$basic_string@GU?$char_traits@G@std@@V?$allocator@G@2@@std@@QAE?AV?$_String_iterator@V?$_String_val@U?$_Simple_types@G@std@@@std@@@2@XZ 1007436c f i libcpmt:wlocale.obj
 0001:00073380       ?begin@?$basic_string@_WU?$char_traits@_W@std@@V?$allocator@_W@2@@std@@QAE?AV?$_String_iterator@V?$_String_val@U?$_Simple_types@_W@std@@@std@@@2@XZ 10074380 f i libcpmt:wlocale.obj
 0001:00073394       ?c_str@?$basic_string@GU?$char_traits@G@std@@V?$allocator@G@2@@std@@QBEPBGXZ 10074394 f i libcpmt:wlocale.obj
 0001:0007339f       ?c_str@?$basic_string@_WU?$char_traits@_W@std@@V?$allocator@_W@2@@std@@QBEPB_WXZ 1007439f f i libcpmt:wlocale.obj
 0001:000733aa       ?category@error_code@std@@QBEABVerror_category@2@XZ 100743aa f i libcpmt:wlocale.obj
 0001:000733ae       ?category@error_condition@std@@QBEABVerror_category@2@XZ 100743ae f i libcpmt:wlocale.obj
 0001:000733b2       ?copy@?$_Char_traits@GG@std@@SAPAGQAGQBGI@Z 100743b2 f i libcpmt:wlocale.obj
 0001:000733ce       ?copy@?$_Char_traits@_WG@std@@SAPA_WQA_WQB_WI@Z 100743ce f i libcpmt:wlocale.obj
 0001:000733ea       ?curr_symbol@?$_Mpunct@G@std@@QBE?AV?$basic_string@GU?$char_traits@G@std@@V?$allocator@G@2@@2@XZ 100743ea f i libcpmt:wlocale.obj
 0001:0007340f       ?curr_symbol@?$_Mpunct@_W@std@@QBE?AV?$basic_string@_WU?$char_traits@_W@std@@V?$allocator@_W@2@@2@XZ 1007440f f i libcpmt:wlocale.obj
 0001:00073434       ?date_order@?$time_get@GV?$istreambuf_iterator@GU?$char_traits@G@std@@@std@@@std@@QBE?AW4dateorder@time_base@2@XZ 10074434 f i libcpmt:wlocale.obj
 0001:0007344c       ?date_order@?$time_get@_WV?$istreambuf_iterator@_WU?$char_traits@_W@std@@@std@@@std@@QBE?AW4dateorder@time_base@2@XZ 1007444c f i libcpmt:wlocale.obj
 0001:00073464       ?deallocate@?$allocator@G@std@@QAEXQAGI@Z 10074464 f i libcpmt:wlocale.obj
 0001:0007347b       ?deallocate@?$allocator@_W@std@@QAEXQA_WI@Z 1007447b f i libcpmt:wlocale.obj
 0001:00073492       ?decimal_point@?$_Mpunct@G@std@@QBEGXZ 10074492 f i libcpmt:wlocale.obj
 0001:000734aa       ?decimal_point@?$_Mpunct@_W@std@@QBE_WXZ 100744aa f i libcpmt:wlocale.obj
 0001:000734c2       ?decimal_point@?$numpunct@G@std@@QBEGXZ 100744c2 f i libcpmt:wlocale.obj
 0001:000734da       ?decimal_point@?$numpunct@_W@std@@QBE_WXZ 100744da f i libcpmt:wlocale.obj
 0001:000734f2       ?do_always_noconv@?$codecvt@GDU_Mbstatet@@@std@@MBE_NXZ 100744f2 f i libcpmt:wlocale.obj
 0001:000734f5       ?do_always_noconv@?$codecvt@_WDU_Mbstatet@@@std@@MBE_NXZ 100744f5 f i libcpmt:wlocale.obj
 0001:000734f8       ?do_close@?$messages@G@std@@MBEXH@Z 100744f8 f i libcpmt:wlocale.obj
 0001:000734fb       ?do_close@?$messages@_W@std@@MBEXH@Z 100744fb f i libcpmt:wlocale.obj
 0001:000734fe       ?do_compare@?$collate@G@std@@MBEHPBG000@Z 100744fe f i libcpmt:wlocale.obj
 0001:0007352e       ?do_compare@?$collate@_W@std@@MBEHPB_W000@Z 1007452e f i libcpmt:wlocale.obj
 0001:0007355e       ?do_curr_symbol@?$_Mpunct@G@std@@MBE?AV?$basic_string@GU?$char_traits@G@std@@V?$allocator@G@2@@2@XZ 1007455e f i libcpmt:wlocale.obj
 0001:00073574       ?do_curr_symbol@?$_Mpunct@_W@std@@MBE?AV?$basic_string@_WU?$char_traits@_W@std@@V?$allocator@_W@2@@2@XZ 10074574 f i libcpmt:wlocale.obj
 0001:0007358a       ?do_date_order@?$time_get@GV?$istreambuf_iterator@GU?$char_traits@G@std@@@std@@@std@@MBE?AW4dateorder@time_base@2@XZ 1007458a f i libcpmt:wlocale.obj
 0001:0007358e       ?do_date_order@?$time_get@_WV?$istreambuf_iterator@_WU?$char_traits@_W@std@@@std@@@std@@MBE?AW4dateorder@time_base@2@XZ 1007458e f i libcpmt:wlocale.obj
 0001:00073592       ?do_decimal_point@?$_Mpunct@G@std@@MBEGXZ 10074592 f i libcpmt:wlocale.obj
 0001:00073597       ?do_decimal_point@?$_Mpunct@_W@std@@MBE_WXZ 10074597 f i libcpmt:wlocale.obj
 0001:0007359c       ?do_decimal_point@?$numpunct@G@std@@MBEGXZ 1007459c f i libcpmt:wlocale.obj
 0001:000735a1       ?do_decimal_point@?$numpunct@_W@std@@MBE_WXZ 100745a1 f i libcpmt:wlocale.obj
 0001:000735a6       ?do_encoding@?$codecvt@GDU_Mbstatet@@@std@@MBEHXZ 100745a6 f i libcpmt:wlocale.obj
 0001:000735b0       ?do_encoding@?$codecvt@_WDU_Mbstatet@@@std@@MBEHXZ 100745b0 f i libcpmt:wlocale.obj
 0001:000735ba       ?do_falsename@?$numpunct@G@std@@MBE?AV?$basic_string@GU?$char_traits@G@std@@V?$allocator@G@2@@2@XZ 100745ba f i libcpmt:wlocale.obj
 0001:000735d0       ?do_falsename@?$numpunct@_W@std@@MBE?AV?$basic_string@_WU?$char_traits@_W@std@@V?$allocator@_W@2@@2@XZ 100745d0 f i libcpmt:wlocale.obj
 0001:000735e6       ?do_frac_digits@?$_Mpunct@G@std@@MBEHXZ 100745e6 f i libcpmt:wlocale.obj
 0001:000735ea       ?do_frac_digits@?$_Mpunct@_W@std@@MBEHXZ 100745ea f i libcpmt:wlocale.obj
 0001:000735ee       ?do_get@?$messages@G@std@@MBE?AV?$basic_string@GU?$char_traits@G@std@@V?$allocator@G@2@@2@HHHABV32@@Z 100745ee f i libcpmt:wlocale.obj
 0001:00073604       ?do_get@?$messages@_W@std@@MBE?AV?$basic_string@_WU?$char_traits@_W@std@@V?$allocator@_W@2@@2@HHHABV32@@Z 10074604 f i libcpmt:wlocale.obj
 0001:0007361a       ?do_get@?$money_get@GV?$istreambuf_iterator@GU?$char_traits@G@std@@@std@@@std@@MBE?AV?$istreambuf_iterator@GU?$char_traits@G@std@@@2@V32@0_NAAVios_base@2@AAHAAO@Z 1007461a f i libcpmt:wlocale.obj
 0001:000736cd       ?do_get@?$money_get@GV?$istreambuf_iterator@GU?$char_traits@G@std@@@std@@@std@@MBE?AV?$istreambuf_iterator@GU?$char_traits@G@std@@@2@V32@0_NAAVios_base@2@AAHAAV?$basic_string@GU?$char_traits@G@std@@V?$allocator@G@2@@2@@Z 100746cd f i libcpmt:wlocale.obj
 0001:000737a5       ?do_get@?$money_get@_WV?$istreambuf_iterator@_WU?$char_traits@_W@std@@@std@@@std@@MBE?AV?$istreambuf_iterator@_WU?$char_traits@_W@std@@@2@V32@0_NAAVios_base@2@AAHAAO@Z 100747a5 f i libcpmt:wlocale.obj
 0001:00073858       ?do_get@?$money_get@_WV?$istreambuf_iterator@_WU?$char_traits@_W@std@@@std@@@std@@MBE?AV?$istreambuf_iterator@_WU?$char_traits@_W@std@@@2@V32@0_NAAVios_base@2@AAHAAV?$basic_string@_WU?$char_traits@_W@std@@V?$allocator@_W@2@@2@@Z 10074858 f i libcpmt:wlocale.obj
 0001:00073930       ?do_get@?$num_get@GV?$istreambuf_iterator@GU?$char_traits@G@std@@@std@@@std@@MBE?AV?$istreambuf_iterator@GU?$char_traits@G@std@@@2@V32@0AAVios_base@2@AAHAAG@Z 10074930 f i libcpmt:wlocale.obj
 0001:00073a29       ?do_get@?$num_get@GV?$istreambuf_iterator@GU?$char_traits@G@std@@@std@@@std@@MBE?AV?$istreambuf_iterator@GU?$char_traits@G@std@@@2@V32@0AAVios_base@2@AAHAAI@Z 10074a29 f i libcpmt:wlocale.obj
 0001:00073a69       ?do_get@?$num_get@GV?$istreambuf_iterator@GU?$char_traits@G@std@@@std@@@std@@MBE?AV?$istreambuf_iterator@GU?$char_traits@G@std@@@2@V32@0AAVios_base@2@AAHAAJ@Z 10074a69 f i libcpmt:wlocale.obj
 0001:00073b3c       ?do_get@?$num_get@GV?$istreambuf_iterator@GU?$char_traits@G@std@@@std@@@std@@MBE?AV?$istreambuf_iterator@GU?$char_traits@G@std@@@2@V32@0AAVios_base@2@AAHAAK@Z 10074b3c f i libcpmt:wlocale.obj
 0001:00073c0f       ?do_get@?$num_get@GV?$istreambuf_iterator@GU?$char_traits@G@std@@@std@@@std@@MBE?AV?$istreambuf_iterator@GU?$char_traits@G@std@@@2@V32@0AAVios_base@2@AAHAAM@Z 10074c0f f i libcpmt:wlocale.obj
 0001:00073cff       ?do_get@?$num_get@GV?$istreambuf_iterator@GU?$char_traits@G@std@@@std@@@std@@MBE?AV?$istreambuf_iterator@GU?$char_traits@G@std@@@2@V32@0AAVios_base@2@AAHAAN@Z 10074cff f i libcpmt:wlocale.obj
 0001:00073df0       ?do_get@?$num_get@GV?$istreambuf_iterator@GU?$char_traits@G@std@@@std@@@std@@MBE?AV?$istreambuf_iterator@GU?$char_traits@G@std@@@2@V32@0AAVios_base@2@AAHAAO@Z 10074df0 f i libcpmt:wlocale.obj
 0001:00073e32       ?do_get@?$num_get@GV?$istreambuf_iterator@GU?$char_traits@G@std@@@std@@@std@@MBE?AV?$istreambuf_iterator@GU?$char_traits@G@std@@@2@V32@0AAVios_base@2@AAHAAPAX@Z 10074e32 f i libcpmt:wlocale.obj
 0001:00073f05       ?do_get@?$num_get@GV?$istreambuf_iterator@GU?$char_traits@G@std@@@std@@@std@@MBE?AV?$istreambuf_iterator@GU?$char_traits@G@std@@@2@V32@0AAVios_base@2@AAHAA_J@Z 10074f05 f i libcpmt:wlocale.obj
 0001:00073fdd       ?do_get@?$num_get@GV?$istreambuf_iterator@GU?$char_traits@G@std@@@std@@@std@@MBE?AV?$istreambuf_iterator@GU?$char_traits@G@std@@@2@V32@0AAVios_base@2@AAHAA_K@Z 10074fdd f i libcpmt:wlocale.obj
 0001:000740b5       ?do_get@?$num_get@GV?$istreambuf_iterator@GU?$char_traits@G@std@@@std@@@std@@MBE?AV?$istreambuf_iterator@GU?$char_traits@G@std@@@2@V32@0AAVios_base@2@AAHAA_N@Z 100750b5 f i libcpmt:wlocale.obj
 0001:000742b8       ?do_get@?$num_get@_WV?$istreambuf_iterator@_WU?$char_traits@_W@std@@@std@@@std@@MBE?AV?$istreambuf_iterator@_WU?$char_traits@_W@std@@@2@V32@0AAVios_base@2@AAHAAG@Z 100752b8 f i libcpmt:wlocale.obj
 0001:000743b1       ?do_get@?$num_get@_WV?$istreambuf_iterator@_WU?$char_traits@_W@std@@@std@@@std@@MBE?AV?$istreambuf_iterator@_WU?$char_traits@_W@std@@@2@V32@0AAVios_base@2@AAHAAI@Z 100753b1 f i libcpmt:wlocale.obj
 0001:000743f1       ?do_get@?$num_get@_WV?$istreambuf_iterator@_WU?$char_traits@_W@std@@@std@@@std@@MBE?AV?$istreambuf_iterator@_WU?$char_traits@_W@std@@@2@V32@0AAVios_base@2@AAHAAJ@Z 100753f1 f i libcpmt:wlocale.obj
 0001:000744c4       ?do_get@?$num_get@_WV?$istreambuf_iterator@_WU?$char_traits@_W@std@@@std@@@std@@MBE?AV?$istreambuf_iterator@_WU?$char_traits@_W@std@@@2@V32@0AAVios_base@2@AAHAAK@Z 100754c4 f i libcpmt:wlocale.obj
 0001:00074597       ?do_get@?$num_get@_WV?$istreambuf_iterator@_WU?$char_traits@_W@std@@@std@@@std@@MBE?AV?$istreambuf_iterator@_WU?$char_traits@_W@std@@@2@V32@0AAVios_base@2@AAHAAM@Z 10075597 f i libcpmt:wlocale.obj
 0001:00074687       ?do_get@?$num_get@_WV?$istreambuf_iterator@_WU?$char_traits@_W@std@@@std@@@std@@MBE?AV?$istreambuf_iterator@_WU?$char_traits@_W@std@@@2@V32@0AAVios_base@2@AAHAAN@Z 10075687 f i libcpmt:wlocale.obj
 0001:00074778       ?do_get@?$num_get@_WV?$istreambuf_iterator@_WU?$char_traits@_W@std@@@std@@@std@@MBE?AV?$istreambuf_iterator@_WU?$char_traits@_W@std@@@2@V32@0AAVios_base@2@AAHAAO@Z 10075778 f i libcpmt:wlocale.obj
 0001:000747ba       ?do_get@?$num_get@_WV?$istreambuf_iterator@_WU?$char_traits@_W@std@@@std@@@std@@MBE?AV?$istreambuf_iterator@_WU?$char_traits@_W@std@@@2@V32@0AAVios_base@2@AAHAAPAX@Z 100757ba f i libcpmt:wlocale.obj
 0001:0007488d       ?do_get@?$num_get@_WV?$istreambuf_iterator@_WU?$char_traits@_W@std@@@std@@@std@@MBE?AV?$istreambuf_iterator@_WU?$char_traits@_W@std@@@2@V32@0AAVios_base@2@AAHAA_J@Z 1007588d f i libcpmt:wlocale.obj
 0001:00074965       ?do_get@?$num_get@_WV?$istreambuf_iterator@_WU?$char_traits@_W@std@@@std@@@std@@MBE?AV?$istreambuf_iterator@_WU?$char_traits@_W@std@@@2@V32@0AAVios_base@2@AAHAA_K@Z 10075965 f i libcpmt:wlocale.obj
 0001:00074a3d       ?do_get@?$num_get@_WV?$istreambuf_iterator@_WU?$char_traits@_W@std@@@std@@@std@@MBE?AV?$istreambuf_iterator@_WU?$char_traits@_W@std@@@2@V32@0AAVios_base@2@AAHAA_N@Z 10075a3d f i libcpmt:wlocale.obj
 0001:00074c40       ?do_get@?$time_get@GV?$istreambuf_iterator@GU?$char_traits@G@std@@@std@@@std@@MBE?AV?$istreambuf_iterator@GU?$char_traits@G@std@@@2@V32@0AAVios_base@2@AAHPAUtm@@DD@Z 10075c40 f i libcpmt:wlocale.obj
 0001:00075031       ?do_get@?$time_get@_WV?$istreambuf_iterator@_WU?$char_traits@_W@std@@@std@@@std@@MBE?AV?$istreambuf_iterator@_WU?$char_traits@_W@std@@@2@V32@0AAVios_base@2@AAHPAUtm@@DD@Z 10076031 f i libcpmt:wlocale.obj
 0001:00075422       ?do_get_date@?$time_get@GV?$istreambuf_iterator@GU?$char_traits@G@std@@@std@@@std@@MBE?AV?$istreambuf_iterator@GU?$char_traits@G@std@@@2@V32@0AAVios_base@2@AAHPAUtm@@@Z 10076422 f i libcpmt:wlocale.obj
 0001:000758e7       ?do_get_date@?$time_get@_WV?$istreambuf_iterator@_WU?$char_traits@_W@std@@@std@@@std@@MBE?AV?$istreambuf_iterator@_WU?$char_traits@_W@std@@@2@V32@0AAVios_base@2@AAHPAUtm@@@Z 100768e7 f i libcpmt:wlocale.obj
 0001:00075dac       ?do_get_monthname@?$time_get@GV?$istreambuf_iterator@GU?$char_traits@G@std@@@std@@@std@@MBE?AV?$istreambuf_iterator@GU?$char_traits@G@std@@@2@V32@0AAVios_base@2@AAHPAUtm@@@Z 10076dac f i libcpmt:wlocale.obj
 0001:00075dee       ?do_get_monthname@?$time_get@_WV?$istreambuf_iterator@_WU?$char_traits@_W@std@@@std@@@std@@MBE?AV?$istreambuf_iterator@_WU?$char_traits@_W@std@@@2@V32@0AAVios_base@2@AAHPAUtm@@@Z 10076dee f i libcpmt:wlocale.obj
 0001:00075e30       ?do_get_time@?$time_get@GV?$istreambuf_iterator@GU?$char_traits@G@std@@@std@@@std@@MBE?AV?$istreambuf_iterator@GU?$char_traits@G@std@@@2@V32@0AAVios_base@2@AAHPAUtm@@@Z 10076e30 f i libcpmt:wlocale.obj
 0001:00075f5c       ?do_get_time@?$time_get@_WV?$istreambuf_iterator@_WU?$char_traits@_W@std@@@std@@@std@@MBE?AV?$istreambuf_iterator@_WU?$char_traits@_W@std@@@2@V32@0AAVios_base@2@AAHPAUtm@@@Z 10076f5c f i libcpmt:wlocale.obj
 0001:00076088       ?do_get_weekday@?$time_get@GV?$istreambuf_iterator@GU?$char_traits@G@std@@@std@@@std@@MBE?AV?$istreambuf_iterator@GU?$char_traits@G@std@@@2@V32@0AAVios_base@2@AAHPAUtm@@@Z 10077088 f i libcpmt:wlocale.obj
 0001:000760ca       ?do_get_weekday@?$time_get@_WV?$istreambuf_iterator@_WU?$char_traits@_W@std@@@std@@@std@@MBE?AV?$istreambuf_iterator@_WU?$char_traits@_W@std@@@2@V32@0AAVios_base@2@AAHPAUtm@@@Z 100770ca f i libcpmt:wlocale.obj
 0001:0007610c       ?do_get_year@?$time_get@GV?$istreambuf_iterator@GU?$char_traits@G@std@@@std@@@std@@MBE?AV?$istreambuf_iterator@GU?$char_traits@G@std@@@2@V32@0AAVios_base@2@AAHPAUtm@@@Z 1007710c f i libcpmt:wlocale.obj
 0001:000761b4       ?do_get_year@?$time_get@_WV?$istreambuf_iterator@_WU?$char_traits@_W@std@@@std@@@std@@MBE?AV?$istreambuf_iterator@_WU?$char_traits@_W@std@@@2@V32@0AAVios_base@2@AAHPAUtm@@@Z 100771b4 f i libcpmt:wlocale.obj
 0001:0007625c       ?do_grouping@?$_Mpunct@G@std@@MBE?AV?$basic_string@DU?$char_traits@D@std@@V?$allocator@D@2@@2@XZ 1007725c f i libcpmt:wlocale.obj
 0001:00076272       ?do_grouping@?$_Mpunct@_W@std@@MBE?AV?$basic_string@DU?$char_traits@D@std@@V?$allocator@D@2@@2@XZ 10077272 f i libcpmt:wlocale.obj
 0001:00076288       ?do_grouping@?$numpunct@G@std@@MBE?AV?$basic_string@DU?$char_traits@D@std@@V?$allocator@D@2@@2@XZ 10077288 f i libcpmt:wlocale.obj
 0001:0007629e       ?do_grouping@?$numpunct@_W@std@@MBE?AV?$basic_string@DU?$char_traits@D@std@@V?$allocator@D@2@@2@XZ 1007729e f i libcpmt:wlocale.obj
 0001:000762b4       ?do_hash@?$collate@G@std@@MBEJPBG0@Z 100772b4 f i libcpmt:wlocale.obj
 0001:000762d5       ?do_hash@?$collate@_W@std@@MBEJPB_W0@Z 100772d5 f i libcpmt:wlocale.obj
 0001:000762f6       ?do_in@?$codecvt@GDU_Mbstatet@@@std@@MBEHAAU_Mbstatet@@PBD1AAPBDPAG3AAPAG@Z 100772f6 f i libcpmt:wlocale.obj
 0001:0007636a       ?do_in@?$codecvt@_WDU_Mbstatet@@@std@@MBEHAAU_Mbstatet@@PBD1AAPBDPA_W3AAPA_W@Z 1007736a f i libcpmt:wlocale.obj
 0001:000763de       ?do_is@?$ctype@G@std@@MBEPBGPBG0PAF@Z 100773de f i libcpmt:wlocale.obj
 0001:000763fa       ?do_is@?$ctype@G@std@@MBE_NFG@Z 100773fa f i libcpmt:wlocale.obj
 0001:00076416       ?do_is@?$ctype@_W@std@@MBEPB_WPB_W0PAF@Z 10077416 f i libcpmt:wlocale.obj
 0001:00076432       ?do_is@?$ctype@_W@std@@MBE_NF_W@Z 10077432 f i libcpmt:wlocale.obj
 0001:0007644e       ?do_length@?$codecvt@GDU_Mbstatet@@@std@@MBEHAAU_Mbstatet@@PBD1I@Z 1007744e f i libcpmt:wlocale.obj
 0001:000764a6       ?do_length@?$codecvt@_WDU_Mbstatet@@@std@@MBEHAAU_Mbstatet@@PBD1I@Z 100774a6 f i libcpmt:wlocale.obj
 0001:000764fe       ?do_max_length@?$codecvt@GDU_Mbstatet@@@std@@MBEHXZ 100774fe f i libcpmt:wlocale.obj
 0001:00076502       ?do_max_length@?$codecvt@_WDU_Mbstatet@@@std@@MBEHXZ 10077502 f i libcpmt:wlocale.obj
 0001:00076506       ?do_narrow@?$ctype@G@std@@MBEDGD@Z 10077506 f i libcpmt:wlocale.obj
 0001:0007650f       ?do_narrow@?$ctype@G@std@@MBEPBGPBG0DPAD@Z 1007750f f i libcpmt:wlocale.obj
 0001:00076544       ?do_narrow@?$ctype@_W@std@@MBED_WD@Z 10077544 f i libcpmt:wlocale.obj
 0001:0007654d       ?do_narrow@?$ctype@_W@std@@MBEPB_WPB_W0DPAD@Z 1007754d f i libcpmt:wlocale.obj
 0001:00076582       ?do_neg_format@?$_Mpunct@G@std@@MBE?AUpattern@money_base@2@XZ 10077582 f i libcpmt:wlocale.obj
 0001:00076591       ?do_neg_format@?$_Mpunct@_W@std@@MBE?AUpattern@money_base@2@XZ 10077591 f i libcpmt:wlocale.obj
 0001:000765a0       ?do_negative_sign@?$_Mpunct@G@std@@MBE?AV?$basic_string@GU?$char_traits@G@std@@V?$allocator@G@2@@2@XZ 100775a0 f i libcpmt:wlocale.obj
 0001:000765b6       ?do_negative_sign@?$_Mpunct@_W@std@@MBE?AV?$basic_string@_WU?$char_traits@_W@std@@V?$allocator@_W@2@@2@XZ 100775b6 f i libcpmt:wlocale.obj
 0001:000765cc       ?do_open@?$messages@G@std@@MBEHABV?$basic_string@DU?$char_traits@D@std@@V?$allocator@D@2@@2@ABVlocale@2@@Z 100775cc f i libcpmt:wlocale.obj
 0001:000765d2       ?do_open@?$messages@_W@std@@MBEHABV?$basic_string@DU?$char_traits@D@std@@V?$allocator@D@2@@2@ABVlocale@2@@Z 100775d2 f i libcpmt:wlocale.obj
 0001:000765d8       ?do_out@?$codecvt@GDU_Mbstatet@@@std@@MBEHAAU_Mbstatet@@PBG1AAPBGPAD3AAPAD@Z 100775d8 f i libcpmt:wlocale.obj
 0001:000766d1       ?do_out@?$codecvt@_WDU_Mbstatet@@@std@@MBEHAAU_Mbstatet@@PB_W1AAPB_WPAD3AAPAD@Z 100776d1 f i libcpmt:wlocale.obj
 0001:000767ca       ?do_pos_format@?$_Mpunct@G@std@@MBE?AUpattern@money_base@2@XZ 100777ca f i libcpmt:wlocale.obj
 0001:000767d9       ?do_pos_format@?$_Mpunct@_W@std@@MBE?AUpattern@money_base@2@XZ 100777d9 f i libcpmt:wlocale.obj
 0001:000767e8       ?do_positive_sign@?$_Mpunct@G@std@@MBE?AV?$basic_string@GU?$char_traits@G@std@@V?$allocator@G@2@@2@XZ 100777e8 f i libcpmt:wlocale.obj
 0001:000767fe       ?do_positive_sign@?$_Mpunct@_W@std@@MBE?AV?$basic_string@_WU?$char_traits@_W@std@@V?$allocator@_W@2@@2@XZ 100777fe f i libcpmt:wlocale.obj
 0001:00076814       ?do_put@?$money_put@GV?$ostreambuf_iterator@GU?$char_traits@G@std@@@std@@@std@@MBE?AV?$ostreambuf_iterator@GU?$char_traits@G@std@@@2@V32@_NAAVios_base@2@GABV?$basic_string@GU?$char_traits@G@std@@V?$allocator@G@2@@2@@Z 10077814 f i libcpmt:wlocale.obj
 0001:00076945       ?do_put@?$money_put@GV?$ostreambuf_iterator@GU?$char_traits@G@std@@@std@@@std@@MBE?AV?$ostreambuf_iterator@GU?$char_traits@G@std@@@2@V32@_NAAVios_base@2@GO@Z 10077945 f i libcpmt:wlocale.obj
 0001:00076aae       ?do_put@?$money_put@_WV?$ostreambuf_iterator@_WU?$char_traits@_W@std@@@std@@@std@@MBE?AV?$ostreambuf_iterator@_WU?$char_traits@_W@std@@@2@V32@_NAAVios_base@2@_WABV?$basic_string@_WU?$char_traits@_W@std@@V?$allocator@_W@2@@2@@Z 10077aae f i libcpmt:wlocale.obj
 0001:00076bdf       ?do_put@?$money_put@_WV?$ostreambuf_iterator@_WU?$char_traits@_W@std@@@std@@@std@@MBE?AV?$ostreambuf_iterator@_WU?$char_traits@_W@std@@@2@V32@_NAAVios_base@2@_WO@Z 10077bdf f i libcpmt:wlocale.obj
 0001:00076d48       ?do_put@?$num_put@GV?$ostreambuf_iterator@GU?$char_traits@G@std@@@std@@@std@@MBE?AV?$ostreambuf_iterator@GU?$char_traits@G@std@@@2@V32@AAVios_base@2@GJ@Z 10077d48 f i libcpmt:wlocale.obj
 0001:00076db3       ?do_put@?$num_put@GV?$ostreambuf_iterator@GU?$char_traits@G@std@@@std@@@std@@MBE?AV?$ostreambuf_iterator@GU?$char_traits@G@std@@@2@V32@AAVios_base@2@GK@Z 10077db3 f i libcpmt:wlocale.obj
 0001:00076e1e       ?do_put@?$num_put@GV?$ostreambuf_iterator@GU?$char_traits@G@std@@@std@@@std@@MBE?AV?$ostreambuf_iterator@GU?$char_traits@G@std@@@2@V32@AAVios_base@2@GN@Z 10077e1e f i libcpmt:wlocale.obj
 0001:0007704b       ?do_put@?$num_put@GV?$ostreambuf_iterator@GU?$char_traits@G@std@@@std@@@std@@MBE?AV?$ostreambuf_iterator@GU?$char_traits@G@std@@@2@V32@AAVios_base@2@GO@Z 1007804b f i libcpmt:wlocale.obj
 0001:00077278       ?do_put@?$num_put@GV?$ostreambuf_iterator@GU?$char_traits@G@std@@@std@@@std@@MBE?AV?$ostreambuf_iterator@GU?$char_traits@G@std@@@2@V32@AAVios_base@2@GPBX@Z 10078278 f i libcpmt:wlocale.obj
 0001:000772d3       ?do_put@?$num_put@GV?$ostreambuf_iterator@GU?$char_traits@G@std@@@std@@@std@@MBE?AV?$ostreambuf_iterator@GU?$char_traits@G@std@@@2@V32@AAVios_base@2@G_J@Z 100782d3 f i libcpmt:wlocale.obj
 0001:00077341       ?do_put@?$num_put@GV?$ostreambuf_iterator@GU?$char_traits@G@std@@@std@@@std@@MBE?AV?$ostreambuf_iterator@GU?$char_traits@G@std@@@2@V32@AAVios_base@2@G_K@Z 10078341 f i libcpmt:wlocale.obj
 0001:000773af       ?do_put@?$num_put@GV?$ostreambuf_iterator@GU?$char_traits@G@std@@@std@@@std@@MBE?AV?$ostreambuf_iterator@GU?$char_traits@G@std@@@2@V32@AAVios_base@2@G_N@Z 100783af f i libcpmt:wlocale.obj
 0001:000775bd       ?do_put@?$num_put@_WV?$ostreambuf_iterator@_WU?$char_traits@_W@std@@@std@@@std@@MBE?AV?$ostreambuf_iterator@_WU?$char_traits@_W@std@@@2@V32@AAVios_base@2@_WJ@Z 100785bd f i libcpmt:wlocale.obj
 0001:00077628       ?do_put@?$num_put@_WV?$ostreambuf_iterator@_WU?$char_traits@_W@std@@@std@@@std@@MBE?AV?$ostreambuf_iterator@_WU?$char_traits@_W@std@@@2@V32@AAVios_base@2@_WK@Z 10078628 f i libcpmt:wlocale.obj
 0001:00077693       ?do_put@?$num_put@_WV?$ostreambuf_iterator@_WU?$char_traits@_W@std@@@std@@@std@@MBE?AV?$ostreambuf_iterator@_WU?$char_traits@_W@std@@@2@V32@AAVios_base@2@_WN@Z 10078693 f i libcpmt:wlocale.obj
 0001:000778c0       ?do_put@?$num_put@_WV?$ostreambuf_iterator@_WU?$char_traits@_W@std@@@std@@@std@@MBE?AV?$ostreambuf_iterator@_WU?$char_traits@_W@std@@@2@V32@AAVios_base@2@_WO@Z 100788c0 f i libcpmt:wlocale.obj
 0001:00077aed       ?do_put@?$num_put@_WV?$ostreambuf_iterator@_WU?$char_traits@_W@std@@@std@@@std@@MBE?AV?$ostreambuf_iterator@_WU?$char_traits@_W@std@@@2@V32@AAVios_base@2@_WPBX@Z 10078aed f i libcpmt:wlocale.obj
 0001:00077b48       ?do_put@?$num_put@_WV?$ostreambuf_iterator@_WU?$char_traits@_W@std@@@std@@@std@@MBE?AV?$ostreambuf_iterator@_WU?$char_traits@_W@std@@@2@V32@AAVios_base@2@_W_J@Z 10078b48 f i libcpmt:wlocale.obj
 0001:00077bb6       ?do_put@?$num_put@_WV?$ostreambuf_iterator@_WU?$char_traits@_W@std@@@std@@@std@@MBE?AV?$ostreambuf_iterator@_WU?$char_traits@_W@std@@@2@V32@AAVios_base@2@_W_K@Z 10078bb6 f i libcpmt:wlocale.obj
 0001:00077c24       ?do_put@?$num_put@_WV?$ostreambuf_iterator@_WU?$char_traits@_W@std@@@std@@@std@@MBE?AV?$ostreambuf_iterator@_WU?$char_traits@_W@std@@@2@V32@AAVios_base@2@_W_N@Z 10078c24 f i libcpmt:wlocale.obj
 0001:00077e32       ?do_put@?$time_put@GV?$ostreambuf_iterator@GU?$char_traits@G@std@@@std@@@std@@MBE?AV?$ostreambuf_iterator@GU?$char_traits@G@std@@@2@V32@AAVios_base@2@GPBUtm@@DD@Z 10078e32 f i libcpmt:wlocale.obj
 0001:0007803b       ?do_put@?$time_put@_WV?$ostreambuf_iterator@_WU?$char_traits@_W@std@@@std@@@std@@MBE?AV?$ostreambuf_iterator@_WU?$char_traits@_W@std@@@2@V32@AAVios_base@2@_WPBUtm@@DD@Z 1007903b f i libcpmt:wlocale.obj
 0001:00078244       ?do_scan_is@?$ctype@G@std@@MBEPBGFPBG0@Z 10079244 f i libcpmt:wlocale.obj
 0001:00078281       ?do_scan_is@?$ctype@_W@std@@MBEPB_WFPB_W0@Z 10079281 f i libcpmt:wlocale.obj
 0001:000782be       ?do_scan_not@?$ctype@G@std@@MBEPBGFPBG0@Z 100792be f i libcpmt:wlocale.obj
 0001:000782fb       ?do_scan_not@?$ctype@_W@std@@MBEPB_WFPB_W0@Z 100792fb f i libcpmt:wlocale.obj
 0001:00078338       ?do_thousands_sep@?$_Mpunct@G@std@@MBEGXZ 10079338 f i libcpmt:wlocale.obj
 0001:0007833d       ?do_thousands_sep@?$_Mpunct@_W@std@@MBE_WXZ 1007933d f i libcpmt:wlocale.obj
 0001:00078342       ?do_thousands_sep@?$numpunct@G@std@@MBEGXZ 10079342 f i libcpmt:wlocale.obj
 0001:00078347       ?do_thousands_sep@?$numpunct@_W@std@@MBE_WXZ 10079347 f i libcpmt:wlocale.obj
 0001:0007834c       ?do_tolower@?$ctype@G@std@@MBEGG@Z 1007934c f i libcpmt:wlocale.obj
 0001:00078361       ?do_tolower@?$ctype@G@std@@MBEPBGPAGPBG@Z 10079361 f i libcpmt:wlocale.obj
 0001:00078390       ?do_tolower@?$ctype@_W@std@@MBEPB_WPA_WPB_W@Z 10079390 f i libcpmt:wlocale.obj
 0001:000783bf       ?do_tolower@?$ctype@_W@std@@MBE_W_W@Z 100793bf f i libcpmt:wlocale.obj
 0001:000783d4       ?do_toupper@?$ctype@G@std@@MBEGG@Z 100793d4 f i libcpmt:wlocale.obj
 0001:000783e9       ?do_toupper@?$ctype@G@std@@MBEPBGPAGPBG@Z 100793e9 f i libcpmt:wlocale.obj
 0001:00078418       ?do_toupper@?$ctype@_W@std@@MBEPB_WPA_WPB_W@Z 10079418 f i libcpmt:wlocale.obj
 0001:00078447       ?do_toupper@?$ctype@_W@std@@MBE_W_W@Z 10079447 f i libcpmt:wlocale.obj
 0001:0007845c       ?do_transform@?$collate@G@std@@MBE?AV?$basic_string@GU?$char_traits@G@std@@V?$allocator@G@2@@2@PBG0@Z 1007945c f i libcpmt:wlocale.obj
 0001:000784dc       ?do_transform@?$collate@_W@std@@MBE?AV?$basic_string@_WU?$char_traits@_W@std@@V?$allocator@_W@2@@2@PB_W0@Z 100794dc f i libcpmt:wlocale.obj
 0001:0007855c       ?do_truename@?$numpunct@G@std@@MBE?AV?$basic_string@GU?$char_traits@G@std@@V?$allocator@G@2@@2@XZ 1007955c f i libcpmt:wlocale.obj
 0001:00078572       ?do_truename@?$numpunct@_W@std@@MBE?AV?$basic_string@_WU?$char_traits@_W@std@@V?$allocator@_W@2@@2@XZ 10079572 f i libcpmt:wlocale.obj
 0001:00078588       ?do_unshift@?$codecvt@GDU_Mbstatet@@@std@@MBEHAAU_Mbstatet@@PAD1AAPAD@Z 10079588 f i libcpmt:wlocale.obj
 0001:00078618       ?do_unshift@?$codecvt@_WDU_Mbstatet@@@std@@MBEHAAU_Mbstatet@@PAD1AAPAD@Z 10079618 f i libcpmt:wlocale.obj
 0001:000786a8       ?do_widen@?$ctype@G@std@@MBEGD@Z 100796a8 f i libcpmt:wlocale.obj
 0001:000786b1       ?do_widen@?$ctype@G@std@@MBEPBDPBD0PAG@Z 100796b1 f i libcpmt:wlocale.obj
 0001:000786e4       ?do_widen@?$ctype@_W@std@@MBEPBDPBD0PA_W@Z 100796e4 f i libcpmt:wlocale.obj
 0001:00078717       ?do_widen@?$ctype@_W@std@@MBE_WD@Z 10079717 f i libcpmt:wlocale.obj
 0001:00078720       ?empty@?$basic_string@GU?$char_traits@G@std@@V?$allocator@G@2@@std@@QBE_NXZ 10079720 f i libcpmt:wlocale.obj
 0001:00078728       ?empty@?$basic_string@_WU?$char_traits@_W@std@@V?$allocator@_W@2@@std@@QBE_NXZ 10079728 f i libcpmt:wlocale.obj
 0001:00078730       ?end@?$basic_string@GU?$char_traits@G@std@@V?$allocator@G@2@@std@@QAE?AV?$_String_iterator@V?$_String_val@U?$_Simple_types@G@std@@@std@@@2@XZ 10079730 f i libcpmt:wlocale.obj
 0001:0007874c       ?end@?$basic_string@_WU?$char_traits@_W@std@@V?$allocator@_W@2@@std@@QAE?AV?$_String_iterator@V?$_String_val@U?$_Simple_types@_W@std@@@std@@@2@XZ 1007974c f i libcpmt:wlocale.obj
 0001:00078768       ?eof@?$_WChar_traits@G@std@@SAGXZ 10079768 f i libcpmt:wlocale.obj
 0001:0007876e       ?eof@?$_WChar_traits@_W@std@@SAGXZ 1007976e f i libcpmt:wlocale.obj
 0001:00078774       ?eq_int_type@?$_WChar_traits@G@std@@SA_NGG@Z 10079774 f i libcpmt:wlocale.obj
 0001:00078784       ?eq_int_type@?$_WChar_traits@_W@std@@SA_NGG@Z 10079784 f i libcpmt:wlocale.obj
 0001:00078794       ?equal@?$istreambuf_iterator@GU?$char_traits@G@std@@@std@@QBE_NABV12@@Z 10079794 f i libcpmt:wlocale.obj
 0001:000787ce       ?equal@?$istreambuf_iterator@_WU?$char_traits@_W@std@@@std@@QBE_NABV12@@Z 100797ce f i libcpmt:wlocale.obj
 0001:00078808       ?erase@?$basic_string@DU?$char_traits@D@std@@V?$allocator@D@2@@std@@QAEAAV12@I@Z 10079808 f i libcpmt:wlocale.obj
 0001:00078829       ?erase@?$basic_string@GU?$char_traits@G@std@@V?$allocator@G@2@@std@@QAEAAV12@I@Z 10079829 f i libcpmt:wlocale.obj
 0001:0007884a       ?erase@?$basic_string@_WU?$char_traits@_W@std@@V?$allocator@_W@2@@std@@QAEAAV12@I@Z 1007984a f i libcpmt:wlocale.obj
 0001:0007886b       ?falsename@?$numpunct@G@std@@QBE?AV?$basic_string@GU?$char_traits@G@std@@V?$allocator@G@2@@2@XZ 1007986b f i libcpmt:wlocale.obj
 0001:00078890       ?falsename@?$numpunct@_W@std@@QBE?AV?$basic_string@_WU?$char_traits@_W@std@@V?$allocator@_W@2@@2@XZ 10079890 f i libcpmt:wlocale.obj
 0001:000788b5       ?frac_digits@?$_Mpunct@G@std@@QBEHXZ 100798b5 f i libcpmt:wlocale.obj
 0001:000788cd       ?frac_digits@?$_Mpunct@_W@std@@QBEHXZ 100798cd f i libcpmt:wlocale.obj
 0001:000788e5       ?get_monthname@?$time_get@GV?$istreambuf_iterator@GU?$char_traits@G@std@@@std@@@std@@QBE?AV?$istreambuf_iterator@GU?$char_traits@G@std@@@2@V32@0AAVios_base@2@AAHPAUtm@@@Z 100798e5 f i libcpmt:wlocale.obj
 0001:0007891d       ?get_monthname@?$time_get@_WV?$istreambuf_iterator@_WU?$char_traits@_W@std@@@std@@@std@@QBE?AV?$istreambuf_iterator@_WU?$char_traits@_W@std@@@2@V32@0AAVios_base@2@AAHPAUtm@@@Z 1007991d f i libcpmt:wlocale.obj
 0001:00078955       ?get_weekday@?$time_get@GV?$istreambuf_iterator@GU?$char_traits@G@std@@@std@@@std@@QBE?AV?$istreambuf_iterator@GU?$char_traits@G@std@@@2@V32@0AAVios_base@2@AAHPAUtm@@@Z 10079955 f i libcpmt:wlocale.obj
 0001:0007898d       ?get_weekday@?$time_get@_WV?$istreambuf_iterator@_WU?$char_traits@_W@std@@@std@@@std@@QBE?AV?$istreambuf_iterator@_WU?$char_traits@_W@std@@@2@V32@0AAVios_base@2@AAHPAUtm@@@Z 1007998d f i libcpmt:wlocale.obj
 0001:000789c5       ?get_year@?$time_get@GV?$istreambuf_iterator@GU?$char_traits@G@std@@@std@@@std@@QBE?AV?$istreambuf_iterator@GU?$char_traits@G@std@@@2@V32@0AAVios_base@2@AAHPAUtm@@@Z 100799c5 f i libcpmt:wlocale.obj
 0001:000789fd       ?get_year@?$time_get@_WV?$istreambuf_iterator@_WU?$char_traits@_W@std@@@std@@@std@@QBE?AV?$istreambuf_iterator@_WU?$char_traits@_W@std@@@2@V32@0AAVios_base@2@AAHPAUtm@@@Z 100799fd f i libcpmt:wlocale.obj
 0001:00078a35       ?gptr@?$basic_streambuf@GU?$char_traits@G@std@@@std@@IBEPAGXZ 10079a35 f i libcpmt:wlocale.obj
 0001:00078a3b       ?gptr@?$basic_streambuf@_WU?$char_traits@_W@std@@@std@@IBEPA_WXZ 10079a3b f i libcpmt:wlocale.obj
 0001:00078a41       ?grouping@?$_Mpunct@G@std@@QBE?AV?$basic_string@DU?$char_traits@D@std@@V?$allocator@D@2@@2@XZ 10079a41 f i libcpmt:wlocale.obj
 0001:00078a66       ?grouping@?$_Mpunct@_W@std@@QBE?AV?$basic_string@DU?$char_traits@D@std@@V?$allocator@D@2@@2@XZ 10079a66 f i libcpmt:wlocale.obj
 0001:00078a8b       ?grouping@?$numpunct@G@std@@QBE?AV?$basic_string@DU?$char_traits@D@std@@V?$allocator@D@2@@2@XZ 10079a8b f i libcpmt:wlocale.obj
 0001:00078ab0       ?grouping@?$numpunct@_W@std@@QBE?AV?$basic_string@DU?$char_traits@D@std@@V?$allocator@D@2@@2@XZ 10079ab0 f i libcpmt:wlocale.obj
 0001:00078ad5       ?insert@?$basic_string@GU?$char_traits@G@std@@V?$allocator@G@2@@std@@QAEAAV12@IIG@Z 10079ad5 f i libcpmt:wlocale.obj
 0001:00078b5a       ?insert@?$basic_string@_WU?$char_traits@_W@std@@V?$allocator@_W@2@@std@@QAEAAV12@II_W@Z 10079b5a f i libcpmt:wlocale.obj
 0001:00078bdf       ?iostream_category@std@@YAABVerror_category@1@XZ 10079bdf f i libcpmt:wlocale.obj
 0001:00078be5       ?is@?$ctype@G@std@@QBE_NFG@Z 10079be5 f i libcpmt:wlocale.obj
 0001:00078c09       ?is@?$ctype@_W@std@@QBE_NF_W@Z 10079c09 f i libcpmt:wlocale.obj
 0001:00078c2d       ?length@?$_Char_traits@GG@std@@SAIPBG@Z 10079c2d f i libcpmt:wlocale.obj
 0001:00078c44       ?length@?$_WChar_traits@G@std@@SAIPBG@Z 10079c44 f i libcpmt:wlocale.obj
 0001:00078c5e       ?length@?$_WChar_traits@_W@std@@SAIPB_W@Z 10079c5e f i libcpmt:wlocale.obj
 0001:00078c78       ?max_size@?$_Default_allocator_traits@V?$allocator@G@std@@@std@@SAIABV?$allocator@G@2@@Z 10079c78 f i libcpmt:wlocale.obj
 0001:00078c7e       ?max_size@?$_Default_allocator_traits@V?$allocator@_W@std@@@std@@SAIABV?$allocator@_W@2@@Z 10079c7e f i libcpmt:wlocale.obj
 0001:00078c84       ?max_size@?$basic_string@GU?$char_traits@G@std@@V?$allocator@G@2@@std@@QBEIXZ 10079c84 f i libcpmt:wlocale.obj
 0001:00078c8a       ?max_size@?$basic_string@_WU?$char_traits@_W@std@@V?$allocator@_W@2@@std@@QBEIXZ 10079c8a f i libcpmt:wlocale.obj
 0001:00078c90       ?message@error_code@std@@QBE?AV?$basic_string@DU?$char_traits@D@std@@V?$allocator@D@2@@2@XZ 10079c90 f i libcpmt:wlocale.obj
 0001:00078cb8       ?move@?$_Char_traits@GG@std@@SAPAGQAGQBGI@Z 10079cb8 f i libcpmt:wlocale.obj
 0001:00078cd4       ?move@?$_Char_traits@_WG@std@@SAPA_WQA_WQB_WI@Z 10079cd4 f i libcpmt:wlocale.obj
 0001:00078cf0       ?name@locale@std@@QBE?AV?$basic_string@DU?$char_traits@D@std@@V?$allocator@D@2@@2@XZ 10079cf0 f i libcpmt:wlocale.obj
 0001:00078e05       ?narrow@?$ctype@G@std@@QBEDGD@Z 10079e05 f i libcpmt:wlocale.obj
 0001:00078e29       ?narrow@?$ctype@_W@std@@QBED_WD@Z 10079e29 f i libcpmt:wlocale.obj
 0001:00078e4d       ?neg_format@?$_Mpunct@G@std@@QBE?AUpattern@money_base@2@XZ 10079e4d f i libcpmt:wlocale.obj
 0001:00078e71       ?neg_format@?$_Mpunct@_W@std@@QBE?AUpattern@money_base@2@XZ 10079e71 f i libcpmt:wlocale.obj
 0001:00078e95       ?negative_sign@?$_Mpunct@G@std@@QBE?AV?$basic_string@GU?$char_traits@G@std@@V?$allocator@G@2@@2@XZ 10079e95 f i libcpmt:wlocale.obj
 0001:00078eba       ?negative_sign@?$_Mpunct@_W@std@@QBE?AV?$basic_string@_WU?$char_traits@_W@std@@V?$allocator@_W@2@@2@XZ 10079eba f i libcpmt:wlocale.obj
 0001:00078edf       ?pos_format@?$_Mpunct@G@std@@QBE?AUpattern@money_base@2@XZ 10079edf f i libcpmt:wlocale.obj
 0001:00078f03       ?pos_format@?$_Mpunct@_W@std@@QBE?AUpattern@money_base@2@XZ 10079f03 f i libcpmt:wlocale.obj
 0001:00078f27       ?positive_sign@?$_Mpunct@G@std@@QBE?AV?$basic_string@GU?$char_traits@G@std@@V?$allocator@G@2@@2@XZ 10079f27 f i libcpmt:wlocale.obj
 0001:00078f4c       ?positive_sign@?$_Mpunct@_W@std@@QBE?AV?$basic_string@_WU?$char_traits@_W@std@@V?$allocator@_W@2@@2@XZ 10079f4c f i libcpmt:wlocale.obj
 0001:00078f71       ?push_back@?$basic_string@GU?$char_traits@G@std@@V?$allocator@G@2@@std@@QAEXG@Z 10079f71 f i libcpmt:wlocale.obj
 0001:00078fbc       ?push_back@?$basic_string@_WU?$char_traits@_W@std@@V?$allocator@_W@2@@std@@QAEX_W@Z 10079fbc f i libcpmt:wlocale.obj
 0001:00079007       ?rdstate@ios_base@std@@QBEHXZ 1007a007 f i libcpmt:wlocale.obj
 0001:0007900b       ?resize@?$basic_string@GU?$char_traits@G@std@@V?$allocator@G@2@@std@@QAEXIG@Z 1007a00b f i libcpmt:wlocale.obj
 0001:0007902e       ?resize@?$basic_string@_WU?$char_traits@_W@std@@V?$allocator@_W@2@@std@@QAEXI_W@Z 1007a02e f i libcpmt:wlocale.obj
 0001:00079051       ?sbumpc@?$basic_streambuf@GU?$char_traits@G@std@@@std@@QAEGXZ 1007a051 f i libcpmt:wlocale.obj
 0001:0007908d       ?sbumpc@?$basic_streambuf@_WU?$char_traits@_W@std@@@std@@QAEGXZ 1007a08d f i libcpmt:wlocale.obj
 0001:000790c9       ?select_on_container_copy_construction@?$_Default_allocator_traits@V?$allocator@D@std@@@std@@SA?AV?$allocator@D@2@ABV32@@Z 1007a0c9 f i libcpmt:wlocale.obj
 0001:000790d1       ?select_on_container_copy_construction@?$_Default_allocator_traits@V?$allocator@G@std@@@std@@SA?AV?$allocator@G@2@ABV32@@Z 1007a0d1 f i libcpmt:wlocale.obj
 0001:000790d9       ?select_on_container_copy_construction@?$_Default_allocator_traits@V?$allocator@_W@std@@@std@@SA?AV?$allocator@_W@2@ABV32@@Z 1007a0d9 f i libcpmt:wlocale.obj
 0001:000790e1       ?setstate@ios_base@std@@QAEXH@Z 1007a0e1 f i libcpmt:wlocale.obj
 0001:000790f6       ?sgetc@?$basic_streambuf@GU?$char_traits@G@std@@@std@@QAEGXZ 1007a0f6 f i libcpmt:wlocale.obj
 0001:00079127       ?sgetc@?$basic_streambuf@_WU?$char_traits@_W@std@@@std@@QAEGXZ 1007a127 f i libcpmt:wlocale.obj
 0001:00079158       ?size@?$basic_string@GU?$char_traits@G@std@@V?$allocator@G@2@@std@@QBEIXZ 1007a158 f i libcpmt:wlocale.obj
 0001:0007915c       ?size@?$basic_string@_WU?$char_traits@_W@std@@V?$allocator@_W@2@@std@@QBEIXZ 1007a15c f i libcpmt:wlocale.obj
 0001:00079160       ?sputc@?$basic_streambuf@GU?$char_traits@G@std@@@std@@QAEGG@Z 1007a160 f i libcpmt:wlocale.obj
 0001:000791a8       ?sputc@?$basic_streambuf@_WU?$char_traits@_W@std@@@std@@QAEG_W@Z 1007a1a8 f i libcpmt:wlocale.obj
 0001:000791f0       ?thousands_sep@?$_Mpunct@G@std@@QBEGXZ 1007a1f0 f i libcpmt:wlocale.obj
 0001:00079208       ?thousands_sep@?$_Mpunct@_W@std@@QBE_WXZ 1007a208 f i libcpmt:wlocale.obj
 0001:00079220       ?thousands_sep@?$numpunct@G@std@@QBEGXZ 1007a220 f i libcpmt:wlocale.obj
 0001:00079238       ?thousands_sep@?$numpunct@_W@std@@QBE_WXZ 1007a238 f i libcpmt:wlocale.obj
 0001:00079250       ?to_char_type@?$_WChar_traits@G@std@@SAGG@Z 1007a250 f i libcpmt:wlocale.obj
 0001:00079259       ?to_char_type@?$_WChar_traits@_W@std@@SA_WG@Z 1007a259 f i libcpmt:wlocale.obj
 0001:00079262       ?to_int_type@?$_WChar_traits@G@std@@SAGG@Z 1007a262 f i libcpmt:wlocale.obj
 0001:0007926b       ?to_int_type@?$_WChar_traits@_W@std@@SAG_W@Z 1007a26b f i libcpmt:wlocale.obj
 0001:00079274       ?tolower@?$ctype@G@std@@QBEGG@Z 1007a274 f i libcpmt:wlocale.obj
 0001:00079295       ?tolower@?$ctype@_W@std@@QBE_W_W@Z 1007a295 f i libcpmt:wlocale.obj
 0001:000792b6       ?truename@?$numpunct@G@std@@QBE?AV?$basic_string@GU?$char_traits@G@std@@V?$allocator@G@2@@2@XZ 1007a2b6 f i libcpmt:wlocale.obj
 0001:000792db       ?truename@?$numpunct@_W@std@@QBE?AV?$basic_string@_WU?$char_traits@_W@std@@V?$allocator@_W@2@@2@XZ 1007a2db f i libcpmt:wlocale.obj
 0001:00079300       ?value@error_code@std@@QBEHXZ 1007a300 f i libcpmt:wlocale.obj
 0001:00079303       ?value@error_condition@std@@QBEHXZ 1007a303 f i libcpmt:wlocale.obj
 0001:00079306       ?widen@?$ctype@G@std@@QBEGD@Z 1007a306 f i libcpmt:wlocale.obj
 0001:00079327       ?widen@?$ctype@G@std@@QBEPBDPBD0PAG@Z 1007a327 f i libcpmt:wlocale.obj
 0001:0007934e       ?widen@?$ctype@_W@std@@QBEPBDPBD0PA_W@Z 1007a34e f i libcpmt:wlocale.obj
 0001:00079375       ?widen@?$ctype@_W@std@@QBE_WD@Z 1007a375 f i libcpmt:wlocale.obj
 0001:00079396       _wmemcpy                   1007a396 f i libcpmt:wlocale.obj
 0001:000793af       _wmemset                   1007a3af f i libcpmt:wlocale.obj
 0001:000793d9       ??$_Copy_unchecked@PADPADV?$ostreambuf_iterator@DU?$char_traits@D@std@@@std@@@std@@YA?AV?$ostreambuf_iterator@DU?$char_traits@D@std@@@0@PAD0V10@@Z 1007a3d9 f i libcpmt:xlocale.obj
 0001:00079405       ??$_Find_elem@D$0M@@std@@YAIAAY0M@$$CBDD@Z 1007a405 f i libcpmt:xlocale.obj
 0001:0007941e       ??$_Get_unwrapped@AAPAD@std@@YA?A_TAAPAD@Z 1007a41e f i libcpmt:xlocale.obj
 0001:00079428       ??$_Get_unwrapped_n@V?$ostreambuf_iterator@DU?$char_traits@D@std@@@std@@H@std@@YA?A_T$$QAV?$ostreambuf_iterator@DU?$char_traits@D@std@@@0@H@Z 1007a428 f i libcpmt:xlocale.obj
 0001:00079430       ??$_Getint_v2@V?$istreambuf_iterator@DU?$char_traits@D@std@@@std@@D@std@@YAHAAV?$istreambuf_iterator@DU?$char_traits@D@std@@@0@0HHAAH1ABV?$ctype@D@0@@Z 1007a430 f i libcpmt:xlocale.obj
 0001:0007965c       ??$_Getvals@D@?$time_get@DV?$istreambuf_iterator@DU?$char_traits@D@std@@@std@@@std@@IAEXDABV_Locinfo@1@@Z 1007a65c f i libcpmt:xlocale.obj
 0001:000796c7       ??$_Idl_distance@PADPAD@std@@YA?A_PABQAD0@Z 1007a6c7 f i libcpmt:xlocale.obj
 0001:000796d6       ??$_LStrcoll@D@std@@YAHPBD000PBU_Collvec@@@Z 1007a6d6 f i libcpmt:xlocale.obj
 0001:000796df       ??$_LStrxfrm@D@std@@YAIPAD0PBD1PBU_Collvec@@@Z 1007a6df f i libcpmt:xlocale.obj
 0001:000796e8       ??$_Refancy@PAD$0A@@std@@YAPADPAD@Z 1007a6e8 f i libcpmt:xlocale.obj
 0001:000796f0       ??$_Seek_wrapped@V?$ostreambuf_iterator@DU?$char_traits@D@std@@@std@@V12@@std@@YAXAAV?$ostreambuf_iterator@DU?$char_traits@D@std@@@0@$$QAV10@@Z 1007a6f0 f i libcpmt:xlocale.obj
 0001:00079705       ??$addressof@$$CBV?$moneypunct@D$00@std@@@std@@YAPBV?$moneypunct@D$00@0@ABV10@@Z 1007a705 f i libcpmt:xlocale.obj
 0001:0007970d       ??$addressof@$$CBV?$moneypunct@D$0A@@std@@@std@@YAPBV?$moneypunct@D$0A@@0@ABV10@@Z 1007a70d f i libcpmt:xlocale.obj
 0001:00079715       ??$addressof@V?$_String_val@U?$_Simple_types@D@std@@@std@@@std@@YAPAV?$_String_val@U?$_Simple_types@D@std@@@0@AAV10@@Z 1007a715 f i libcpmt:xlocale.obj
 0001:0007971d       ??$copy@PADV?$ostreambuf_iterator@DU?$char_traits@D@std@@@std@@@std@@YA?AV?$ostreambuf_iterator@DU?$char_traits@D@std@@@0@PAD0V10@@Z 1007a71d f i libcpmt:xlocale.obj
 0001:00079749       ??$forward@V?$ostreambuf_iterator@DU?$char_traits@D@std@@@std@@@std@@YA$$QAV?$ostreambuf_iterator@DU?$char_traits@D@std@@@0@AAV10@@Z 1007a749 f i libcpmt:xlocale.obj
 0001:00079751       ??$move@AAV?$ostreambuf_iterator@DU?$char_traits@D@std@@@std@@@std@@YA$$QAV?$ostreambuf_iterator@DU?$char_traits@D@std@@@0@AAV10@@Z 1007a751 f i libcpmt:xlocale.obj
 0001:00079759       ??$use_facet@V?$collate@D@std@@@std@@YAABV?$collate@D@0@ABVlocale@0@@Z 1007a759 f i libcpmt:xlocale.obj
 0001:000797f1       ??$use_facet@V?$messages@D@std@@@std@@YAABV?$messages@D@0@ABVlocale@0@@Z 1007a7f1 f i libcpmt:xlocale.obj
 0001:00079889       ??$use_facet@V?$money_get@DV?$istreambuf_iterator@DU?$char_traits@D@std@@@std@@@std@@@std@@YAABV?$money_get@DV?$istreambuf_iterator@DU?$char_traits@D@std@@@std@@@0@ABVlocale@0@@Z 1007a889 f i libcpmt:xlocale.obj
 0001:00079921       ??$use_facet@V?$money_put@DV?$ostreambuf_iterator@DU?$char_traits@D@std@@@std@@@std@@@std@@YAABV?$money_put@DV?$ostreambuf_iterator@DU?$char_traits@D@std@@@std@@@0@ABVlocale@0@@Z 1007a921 f i libcpmt:xlocale.obj
 0001:000799b9       ??$use_facet@V?$moneypunct@D$00@std@@@std@@YAABV?$moneypunct@D$00@0@ABVlocale@0@@Z 1007a9b9 f i libcpmt:xlocale.obj
 0001:00079a51       ??$use_facet@V?$moneypunct@D$0A@@std@@@std@@YAABV?$moneypunct@D$0A@@0@ABVlocale@0@@Z 1007aa51 f i libcpmt:xlocale.obj
 0001:00079ae9       ??$use_facet@V?$time_get@DV?$istreambuf_iterator@DU?$char_traits@D@std@@@std@@@std@@@std@@YAABV?$time_get@DV?$istreambuf_iterator@DU?$char_traits@D@std@@@std@@@0@ABVlocale@0@@Z 1007aae9 f i libcpmt:xlocale.obj
 0001:00079b81       ??$use_facet@V?$time_put@DV?$ostreambuf_iterator@DU?$char_traits@D@std@@@std@@@std@@@std@@YAABV?$time_put@DV?$ostreambuf_iterator@DU?$char_traits@D@std@@@std@@@0@ABVlocale@0@@Z 1007ab81 f i libcpmt:xlocale.obj
 0001:00079c19       ??0?$_Mpunct@D@std@@QAE@ABV_Locinfo@1@I_N1@Z 1007ac19 f i libcpmt:xlocale.obj
 0001:00079c58       ??0?$_String_const_iterator@V?$_String_val@U?$_Simple_types@D@std@@@std@@@std@@QAE@PBDPBU_Container_base0@1@@Z 1007ac58 f i libcpmt:xlocale.obj
 0001:00079c66       ??0?$_String_const_iterator@V?$_String_val@U?$_Simple_types@D@std@@@std@@@std@@QAE@XZ 1007ac66 f i libcpmt:xlocale.obj
 0001:00079c6f       ??0?$_String_iterator@V?$_String_val@U?$_Simple_types@D@std@@@std@@@std@@QAE@PBDPBU_Container_base0@1@@Z 1007ac6f f i libcpmt:xlocale.obj
 0001:00079c7d       ??0?$collate@D@std@@QAE@ABV_Locinfo@1@I@Z 1007ac7d f i libcpmt:xlocale.obj
 0001:00079ca5       ??0?$messages@D@std@@QAE@ABV_Locinfo@1@I@Z 1007aca5 f i libcpmt:xlocale.obj
 0001:00079cbe       ??0?$money_get@DV?$istreambuf_iterator@DU?$char_traits@D@std@@@std@@@std@@QAE@ABV_Locinfo@1@I@Z 1007acbe f i libcpmt:xlocale.obj
 0001:00079cd7       ??0?$money_put@DV?$ostreambuf_iterator@DU?$char_traits@D@std@@@std@@@std@@QAE@ABV_Locinfo@1@I@Z 1007acd7 f i libcpmt:xlocale.obj
 0001:00079cf0       ??0?$moneypunct@D$00@std@@QAE@ABV_Locinfo@1@I_N@Z 1007acf0 f i libcpmt:xlocale.obj
 0001:00079d17       ??0?$moneypunct@D$0A@@std@@QAE@ABV_Locinfo@1@I_N@Z 1007ad17 f i libcpmt:xlocale.obj
 0001:00079d3e       ??0?$time_get@DV?$istreambuf_iterator@DU?$char_traits@D@std@@@std@@@std@@QAE@ABV_Locinfo@1@I@Z 1007ad3e f i libcpmt:xlocale.obj
 0001:00079d74       ??0?$time_put@DV?$ostreambuf_iterator@DU?$char_traits@D@std@@@std@@@std@@QAE@ABV_Locinfo@1@I@Z 1007ad74 f i libcpmt:xlocale.obj
 0001:00079da0       ??1?$_Mpunct@D@std@@MAE@XZ 1007ada0 f i libcpmt:xlocale.obj
 0001:00079db6       ??1?$_Tidy_guard@V?$_Mpunct@D@std@@@std@@QAE@XZ 1007adb6 f i libcpmt:xlocale.obj
 0001:00079dc1       ??1?$_Tidy_guard@V?$time_get@DV?$istreambuf_iterator@DU?$char_traits@D@std@@@std@@@std@@@std@@QAE@XZ 1007adc1 f i libcpmt:xlocale.obj
 0001:00079dcc       ??1?$collate@D@std@@MAE@XZ 1007adcc f i libcpmt:xlocale.obj
 0001:00079de6       ??1?$messages@D@std@@MAE@XZ 1007ade6 f i libcpmt:xlocale.obj
 0001:00079ded       ??1?$money_get@DV?$istreambuf_iterator@DU?$char_traits@D@std@@@std@@@std@@MAE@XZ 1007aded f i libcpmt:xlocale.obj
 0001:00079df4       ??1?$money_put@DV?$ostreambuf_iterator@DU?$char_traits@D@std@@@std@@@std@@MAE@XZ 1007adf4 f i libcpmt:xlocale.obj
 0001:00079dfb       ??1?$moneypunct@D$00@std@@MAE@XZ 1007adfb f i libcpmt:xlocale.obj
 0001:00079e11       ??1?$moneypunct@D$0A@@std@@MAE@XZ 1007ae11 f i libcpmt:xlocale.obj
 0001:00079e27       ??1?$time_get@DV?$istreambuf_iterator@DU?$char_traits@D@std@@@std@@@std@@MAE@XZ 1007ae27 f i libcpmt:xlocale.obj
 0001:00079e3d       ??1?$time_put@DV?$ostreambuf_iterator@DU?$char_traits@D@std@@@std@@@std@@MAE@XZ 1007ae3d f i libcpmt:xlocale.obj
 0001:00079e57       ??8?$_String_const_iterator@V?$_String_val@U?$_Simple_types@D@std@@@std@@@std@@QBE_NABV01@@Z 1007ae57 f i libcpmt:xlocale.obj
 0001:00079e68       ??D?$_String_const_iterator@V?$_String_val@U?$_Simple_types@D@std@@@std@@@std@@QBEABDXZ 1007ae68 f i libcpmt:xlocale.obj
 0001:00079e6b       ??D?$_String_iterator@V?$_String_val@U?$_Simple_types@D@std@@@std@@@std@@QBEAADXZ 1007ae6b f i libcpmt:xlocale.obj
 0001:00079e6e       ??E?$_String_const_iterator@V?$_String_val@U?$_Simple_types@D@std@@@std@@@std@@QAEAAV01@XZ 1007ae6e f i libcpmt:xlocale.obj
 0001:00079e73       ??E?$_String_iterator@V?$_String_val@U?$_Simple_types@D@std@@@std@@@std@@QAEAAV01@XZ 1007ae73 f i libcpmt:xlocale.obj
 0001:00079e78       ??E?$ostreambuf_iterator@DU?$char_traits@D@std@@@std@@QAEAAV01@H@Z 1007ae78 f i libcpmt:xlocale.obj
 0001:00079e7d       ??G?$_String_iterator@V?$_String_val@U?$_Simple_types@D@std@@@std@@@std@@QBE?AV01@H@Z 1007ae7d f i libcpmt:xlocale.obj
 0001:00079e8e       ??H?$_String_iterator@V?$_String_val@U?$_Simple_types@D@std@@@std@@@std@@QBE?AV01@H@Z 1007ae8e f i libcpmt:xlocale.obj
 0001:00079e9f       ??Y?$_String_const_iterator@V?$_String_val@U?$_Simple_types@D@std@@@std@@@std@@QAEAAV01@H@Z 1007ae9f f i libcpmt:xlocale.obj
 0001:00079ead       ??Y?$_String_iterator@V?$_String_val@U?$_Simple_types@D@std@@@std@@@std@@QAEAAV01@H@Z 1007aead f i libcpmt:xlocale.obj
 0001:00079ebb       ??Z?$_String_const_iterator@V?$_String_val@U?$_Simple_types@D@std@@@std@@@std@@QAEAAV01@H@Z 1007aebb f i libcpmt:xlocale.obj
 0001:00079ec9       ??Z?$_String_iterator@V?$_String_val@U?$_Simple_types@D@std@@@std@@@std@@QAEAAV01@H@Z 1007aec9 f i libcpmt:xlocale.obj
 0001:00079ed7       ??_E?$_Mpunct@D@std@@MAEPAXI@Z 1007aed7 f i libcpmt:xlocale.obj
 0001:00079ed7       ??_G?$_Mpunct@D@std@@MAEPAXI@Z 1007aed7 f i libcpmt:xlocale.obj
 0001:00079f05       ??_E?$collate@D@std@@MAEPAXI@Z 1007af05 f i libcpmt:xlocale.obj
 0001:00079f05       ??_G?$collate@D@std@@MAEPAXI@Z 1007af05 f i libcpmt:xlocale.obj
 0001:00079f27       ??_E?$messages@D@std@@MAEPAXI@Z 1007af27 f i libcpmt:xlocale.obj
 0001:00079f27       ??_G?$messages@D@std@@MAEPAXI@Z 1007af27 f i libcpmt:xlocale.obj
 0001:00079f4a       ??_E?$money_get@DV?$istreambuf_iterator@DU?$char_traits@D@std@@@std@@@std@@MAEPAXI@Z 1007af4a f i libcpmt:xlocale.obj
 0001:00079f4a       ??_G?$money_get@DV?$istreambuf_iterator@DU?$char_traits@D@std@@@std@@@std@@MAEPAXI@Z 1007af4a f i libcpmt:xlocale.obj
 0001:00079f6d       ??_E?$money_put@DV?$ostreambuf_iterator@DU?$char_traits@D@std@@@std@@@std@@MAEPAXI@Z 1007af6d f i libcpmt:xlocale.obj
 0001:00079f6d       ??_G?$money_put@DV?$ostreambuf_iterator@DU?$char_traits@D@std@@@std@@@std@@MAEPAXI@Z 1007af6d f i libcpmt:xlocale.obj
 0001:00079f90       ??_E?$moneypunct@D$00@std@@MAEPAXI@Z 1007af90 f i libcpmt:xlocale.obj
 0001:00079f90       ??_G?$moneypunct@D$00@std@@MAEPAXI@Z 1007af90 f i libcpmt:xlocale.obj
 0001:00079fbe       ??_E?$moneypunct@D$0A@@std@@MAEPAXI@Z 1007afbe f i libcpmt:xlocale.obj
 0001:00079fbe       ??_G?$moneypunct@D$0A@@std@@MAEPAXI@Z 1007afbe f i libcpmt:xlocale.obj
 0001:00079fec       ??_E?$time_get@DV?$istreambuf_iterator@DU?$char_traits@D@std@@@std@@@std@@MAEPAXI@Z 1007afec f i libcpmt:xlocale.obj
 0001:00079fec       ??_G?$time_get@DV?$istreambuf_iterator@DU?$char_traits@D@std@@@std@@@std@@MAEPAXI@Z 1007afec f i libcpmt:xlocale.obj
 0001:0007a01a       ??_E?$time_put@DV?$ostreambuf_iterator@DU?$char_traits@D@std@@@std@@@std@@MAEPAXI@Z 1007b01a f i libcpmt:xlocale.obj
 0001:0007a01a       ??_G?$time_put@DV?$ostreambuf_iterator@DU?$char_traits@D@std@@@std@@@std@@MAEPAXI@Z 1007b01a f i libcpmt:xlocale.obj
 0001:0007a03c       ?_Compat@?$_String_const_iterator@V?$_String_val@U?$_Simple_types@D@std@@@std@@@std@@QBEXABV12@@Z 1007b03c f i libcpmt:xlocale.obj
 0001:0007a03f       ?_Getcat@?$collate@D@std@@SAIPAPBVfacet@locale@2@PBV42@@Z 1007b03f f i libcpmt:xlocale.obj
 0001:0007a0e4       ?_Getcat@?$messages@D@std@@SAIPAPBVfacet@locale@2@PBV42@@Z 1007b0e4 f i libcpmt:xlocale.obj
 0001:0007a14f       ?_Getcat@?$money_get@DV?$istreambuf_iterator@DU?$char_traits@D@std@@@std@@@std@@SAIPAPBVfacet@locale@2@PBV42@@Z 1007b14f f i libcpmt:xlocale.obj
 0001:0007a1ba       ?_Getcat@?$money_put@DV?$ostreambuf_iterator@DU?$char_traits@D@std@@@std@@@std@@SAIPAPBVfacet@locale@2@PBV42@@Z 1007b1ba f i libcpmt:xlocale.obj
 0001:0007a225       ?_Getcat@?$moneypunct@D$00@std@@SAIPAPBVfacet@locale@2@PBV42@@Z 1007b225 f i libcpmt:xlocale.obj
 0001:0007a29b       ?_Getcat@?$moneypunct@D$0A@@std@@SAIPAPBVfacet@locale@2@PBV42@@Z 1007b29b f i libcpmt:xlocale.obj
 0001:0007a312       ?_Getcat@?$time_get@DV?$istreambuf_iterator@DU?$char_traits@D@std@@@std@@@std@@SAIPAPBVfacet@locale@2@PBV42@@Z 1007b312 f i libcpmt:xlocale.obj
 0001:0007a37e       ?_Getcat@?$time_put@DV?$ostreambuf_iterator@DU?$char_traits@D@std@@@std@@@std@@SAIPAPBVfacet@locale@2@PBV42@@Z 1007b37e f i libcpmt:xlocale.obj
 0001:0007a3f8       ?_Getfmt@?$time_get@DV?$istreambuf_iterator@DU?$char_traits@D@std@@@std@@@std@@IBE?AV?$istreambuf_iterator@DU?$char_traits@D@std@@@2@V32@0AAVios_base@2@AAHPAUtm@@PBD@Z 1007b3f8 f i libcpmt:xlocale.obj
 0001:0007a54a       ?_Getint@?$time_get@DV?$istreambuf_iterator@DU?$char_traits@D@std@@@std@@@std@@ABAHAAV?$istreambuf_iterator@DU?$char_traits@D@std@@@2@0HHAAHABV?$ctype@D@2@@Z 1007b54a f i libcpmt:xlocale.obj
 0001:0007a56e       ?_Getmfld@?$money_get@DV?$istreambuf_iterator@DU?$char_traits@D@std@@@std@@@std@@ABE?AV?$basic_string@DU?$char_traits@D@std@@V?$allocator@D@2@@2@AAV?$istreambuf_iterator@DU?$char_traits@D@std@@@2@0_NAAVios_base@2@AAY0M@D@Z 1007b56e f i libcpmt:xlocale.obj
 0001:0007b271       ?_Gettnames@_Locinfo@std@@QBE?AV_Timevec@2@XZ 1007c271 f i libcpmt:xlocale.obj
 0001:0007b285       ?_Init@?$_Mpunct@D@std@@IAEXABV_Locinfo@2@_N@Z 1007c285 f i libcpmt:xlocale.obj
 0001:0007b3a5       ?_Init@?$collate@D@std@@IAEXABV_Locinfo@2@@Z 1007c3a5 f i libcpmt:xlocale.obj
 0001:0007b3b7       ?_Init@?$messages@D@std@@IAEXABV_Locinfo@2@@Z 1007c3b7 f i libcpmt:xlocale.obj
 0001:0007b3ba       ?_Init@?$money_get@DV?$istreambuf_iterator@DU?$char_traits@D@std@@@std@@@std@@IAEXABV_Locinfo@2@@Z 1007c3ba f i libcpmt:xlocale.obj
 0001:0007b3bd       ?_Init@?$money_put@DV?$ostreambuf_iterator@DU?$char_traits@D@std@@@std@@@std@@IAEXABV_Locinfo@2@@Z 1007c3bd f i libcpmt:xlocale.obj
 0001:0007b3c0       ?_Init@?$time_get@DV?$istreambuf_iterator@DU?$char_traits@D@std@@@std@@@std@@IAEXABV_Locinfo@2@@Z 1007c3c0 f i libcpmt:xlocale.obj
 0001:0007b3f8       ?_Init@?$time_put@DV?$ostreambuf_iterator@DU?$char_traits@D@std@@@std@@@std@@IAEXABV_Locinfo@2@@Z 1007c3f8 f i libcpmt:xlocale.obj
 0001:0007b421       ?_Makexloc@_Locimp@locale@std@@CAXABV_Locinfo@3@HPAV123@PBV23@@Z 1007c421 f   libcpmt:xlocale.obj
 0001:0007b720       ?_Makpat@?$_Mpunct@D@std@@AAEXAAUpattern@money_base@2@III@Z 1007c720 f i libcpmt:xlocale.obj
 0001:0007b761       ?_Put@?$money_put@DV?$ostreambuf_iterator@DU?$char_traits@D@std@@@std@@@std@@CA?AV?$ostreambuf_iterator@DU?$char_traits@D@std@@@2@V32@V?$_String_const_iterator@V?$_String_val@U?$_Simple_types@D@std@@@std@@@2@I@Z 1007c761 f i libcpmt:xlocale.obj
 0001:0007b798       ?_Putmfld@?$money_put@DV?$ostreambuf_iterator@DU?$char_traits@D@std@@@std@@@std@@ABE?AV?$ostreambuf_iterator@DU?$char_traits@D@std@@@2@V32@_NAAVios_base@2@D1V?$basic_string@DU?$char_traits@D@std@@V?$allocator@D@2@@2@D@Z 1007c798 f i libcpmt:xlocale.obj
 0001:0007be0a       ?_Rep@?$money_put@DV?$ostreambuf_iterator@DU?$char_traits@D@std@@@std@@@std@@CA?AV?$ostreambuf_iterator@DU?$char_traits@D@std@@@2@V32@DI@Z 1007ce0a f i libcpmt:xlocale.obj
 0001:0007be36       ?_Tidy@?$_Mpunct@D@std@@AAEXXZ 1007ce36 f i libcpmt:xlocale.obj
 0001:0007be5e       ?_Tidy@?$time_get@DV?$istreambuf_iterator@DU?$char_traits@D@std@@@std@@@std@@AAEXXZ 1007ce5e f i libcpmt:xlocale.obj
 0001:0007be7e       ?begin@?$basic_string@DU?$char_traits@D@std@@V?$allocator@D@2@@std@@QAE?AV?$_String_iterator@V?$_String_val@U?$_Simple_types@D@std@@@std@@@2@XZ 1007ce7e f i libcpmt:xlocale.obj
 0001:0007be92       ?curr_symbol@?$_Mpunct@D@std@@QBE?AV?$basic_string@DU?$char_traits@D@std@@V?$allocator@D@2@@2@XZ 1007ce92 f i libcpmt:xlocale.obj
 0001:0007beb7       ?date_order@?$time_get@DV?$istreambuf_iterator@DU?$char_traits@D@std@@@std@@@std@@QBE?AW4dateorder@time_base@2@XZ 1007ceb7 f i libcpmt:xlocale.obj
 0001:0007becf       ?decimal_point@?$_Mpunct@D@std@@QBEDXZ 1007cecf f i libcpmt:xlocale.obj
 0001:0007bee7       ?do_close@?$messages@D@std@@MBEXH@Z 1007cee7 f i libcpmt:xlocale.obj
 0001:0007beea       ?do_compare@?$collate@D@std@@MBEHPBD000@Z 1007ceea f i libcpmt:xlocale.obj
 0001:0007bf1a       ?do_curr_symbol@?$_Mpunct@D@std@@MBE?AV?$basic_string@DU?$char_traits@D@std@@V?$allocator@D@2@@2@XZ 1007cf1a f i libcpmt:xlocale.obj
 0001:0007bf30       ?do_date_order@?$time_get@DV?$istreambuf_iterator@DU?$char_traits@D@std@@@std@@@std@@MBE?AW4dateorder@time_base@2@XZ 1007cf30 f i libcpmt:xlocale.obj
 0001:0007bf34       ?do_decimal_point@?$_Mpunct@D@std@@MBEDXZ 1007cf34 f i libcpmt:xlocale.obj
 0001:0007bf38       ?do_frac_digits@?$_Mpunct@D@std@@MBEHXZ 1007cf38 f i libcpmt:xlocale.obj
 0001:0007bf3c       ?do_get@?$messages@D@std@@MBE?AV?$basic_string@DU?$char_traits@D@std@@V?$allocator@D@2@@2@HHHABV32@@Z 1007cf3c f i libcpmt:xlocale.obj
 0001:0007bf52       ?do_get@?$money_get@DV?$istreambuf_iterator@DU?$char_traits@D@std@@@std@@@std@@MBE?AV?$istreambuf_iterator@DU?$char_traits@D@std@@@2@V32@0_NAAVios_base@2@AAHAAO@Z 1007cf52 f i libcpmt:xlocale.obj
 0001:0007c005       ?do_get@?$money_get@DV?$istreambuf_iterator@DU?$char_traits@D@std@@@std@@@std@@MBE?AV?$istreambuf_iterator@DU?$char_traits@D@std@@@2@V32@0_NAAVios_base@2@AAHAAV?$basic_string@DU?$char_traits@D@std@@V?$allocator@D@2@@2@@Z 1007d005 f i libcpmt:xlocale.obj
 0001:0007c0d5       ?do_get@?$time_get@DV?$istreambuf_iterator@DU?$char_traits@D@std@@@std@@@std@@MBE?AV?$istreambuf_iterator@DU?$char_traits@D@std@@@2@V32@0AAVios_base@2@AAHPAUtm@@DD@Z 1007d0d5 f i libcpmt:xlocale.obj
 0001:0007c4c6       ?do_get_date@?$time_get@DV?$istreambuf_iterator@DU?$char_traits@D@std@@@std@@@std@@MBE?AV?$istreambuf_iterator@DU?$char_traits@D@std@@@2@V32@0AAVios_base@2@AAHPAUtm@@@Z 1007d4c6 f i libcpmt:xlocale.obj
 0001:0007c933       ?do_get_monthname@?$time_get@DV?$istreambuf_iterator@DU?$char_traits@D@std@@@std@@@std@@MBE?AV?$istreambuf_iterator@DU?$char_traits@D@std@@@2@V32@0AAVios_base@2@AAHPAUtm@@@Z 1007d933 f i libcpmt:xlocale.obj
 0001:0007c975       ?do_get_time@?$time_get@DV?$istreambuf_iterator@DU?$char_traits@D@std@@@std@@@std@@MBE?AV?$istreambuf_iterator@DU?$char_traits@D@std@@@2@V32@0AAVios_base@2@AAHPAUtm@@@Z 1007d975 f i libcpmt:xlocale.obj
 0001:0007caa9       ?do_get_weekday@?$time_get@DV?$istreambuf_iterator@DU?$char_traits@D@std@@@std@@@std@@MBE?AV?$istreambuf_iterator@DU?$char_traits@D@std@@@2@V32@0AAVios_base@2@AAHPAUtm@@@Z 1007daa9 f i libcpmt:xlocale.obj
 0001:0007caeb       ?do_get_year@?$time_get@DV?$istreambuf_iterator@DU?$char_traits@D@std@@@std@@@std@@MBE?AV?$istreambuf_iterator@DU?$char_traits@D@std@@@2@V32@0AAVios_base@2@AAHPAUtm@@@Z 1007daeb f i libcpmt:xlocale.obj
 0001:0007cb93       ?do_grouping@?$_Mpunct@D@std@@MBE?AV?$basic_string@DU?$char_traits@D@std@@V?$allocator@D@2@@2@XZ 1007db93 f i libcpmt:xlocale.obj
 0001:0007cba9       ?do_hash@?$collate@D@std@@MBEJPBD0@Z 1007dba9 f i libcpmt:xlocale.obj
 0001:0007cbc7       ?do_neg_format@?$_Mpunct@D@std@@MBE?AUpattern@money_base@2@XZ 1007dbc7 f i libcpmt:xlocale.obj
 0001:0007cbd6       ?do_negative_sign@?$_Mpunct@D@std@@MBE?AV?$basic_string@DU?$char_traits@D@std@@V?$allocator@D@2@@2@XZ 1007dbd6 f i libcpmt:xlocale.obj
 0001:0007cbec       ?do_open@?$messages@D@std@@MBEHABV?$basic_string@DU?$char_traits@D@std@@V?$allocator@D@2@@2@ABVlocale@2@@Z 1007dbec f i libcpmt:xlocale.obj
 0001:0007cbf2       ?do_pos_format@?$_Mpunct@D@std@@MBE?AUpattern@money_base@2@XZ 1007dbf2 f i libcpmt:xlocale.obj
 0001:0007cc01       ?do_positive_sign@?$_Mpunct@D@std@@MBE?AV?$basic_string@DU?$char_traits@D@std@@V?$allocator@D@2@@2@XZ 1007dc01 f i libcpmt:xlocale.obj
 0001:0007cc17       ?do_put@?$money_put@DV?$ostreambuf_iterator@DU?$char_traits@D@std@@@std@@@std@@MBE?AV?$ostreambuf_iterator@DU?$char_traits@D@std@@@2@V32@_NAAVios_base@2@DABV?$basic_string@DU?$char_traits@D@std@@V?$allocator@D@2@@2@@Z 1007dc17 f i libcpmt:xlocale.obj
 0001:0007cd46       ?do_put@?$money_put@DV?$ostreambuf_iterator@DU?$char_traits@D@std@@@std@@@std@@MBE?AV?$ostreambuf_iterator@DU?$char_traits@D@std@@@2@V32@_NAAVios_base@2@DO@Z 1007dd46 f i libcpmt:xlocale.obj
 0001:0007ceac       ?do_put@?$time_put@DV?$ostreambuf_iterator@DU?$char_traits@D@std@@@std@@@std@@MBE?AV?$ostreambuf_iterator@DU?$char_traits@D@std@@@2@V32@AAVios_base@2@DPBUtm@@DD@Z 1007deac f i libcpmt:xlocale.obj
 0001:0007d09d       ?do_thousands_sep@?$_Mpunct@D@std@@MBEDXZ 1007e09d f i libcpmt:xlocale.obj
 0001:0007d0a1       ?do_transform@?$collate@D@std@@MBE?AV?$basic_string@DU?$char_traits@D@std@@V?$allocator@D@2@@2@PBD0@Z 1007e0a1 f i libcpmt:xlocale.obj
 0001:0007d12d       ?end@?$basic_string@DU?$char_traits@D@std@@V?$allocator@D@2@@std@@QAE?AV?$_String_iterator@V?$_String_val@U?$_Simple_types@D@std@@@std@@@2@XZ 1007e12d f i libcpmt:xlocale.obj
 0001:0007d148       ?frac_digits@?$_Mpunct@D@std@@QBEHXZ 1007e148 f i libcpmt:xlocale.obj
 0001:0007d160       ?get_monthname@?$time_get@DV?$istreambuf_iterator@DU?$char_traits@D@std@@@std@@@std@@QBE?AV?$istreambuf_iterator@DU?$char_traits@D@std@@@2@V32@0AAVios_base@2@AAHPAUtm@@@Z 1007e160 f i libcpmt:xlocale.obj
 0001:0007d198       ?get_weekday@?$time_get@DV?$istreambuf_iterator@DU?$char_traits@D@std@@@std@@@std@@QBE?AV?$istreambuf_iterator@DU?$char_traits@D@std@@@2@V32@0AAVios_base@2@AAHPAUtm@@@Z 1007e198 f i libcpmt:xlocale.obj
 0001:0007d1d0       ?get_year@?$time_get@DV?$istreambuf_iterator@DU?$char_traits@D@std@@@std@@@std@@QBE?AV?$istreambuf_iterator@DU?$char_traits@D@std@@@2@V32@0AAVios_base@2@AAHPAUtm@@@Z 1007e1d0 f i libcpmt:xlocale.obj
 0001:0007d208       ?grouping@?$_Mpunct@D@std@@QBE?AV?$basic_string@DU?$char_traits@D@std@@V?$allocator@D@2@@2@XZ 1007e208 f i libcpmt:xlocale.obj
 0001:0007d22d       ?is@?$ctype@D@std@@QBE_NFD@Z 1007e22d f i libcpmt:xlocale.obj
 0001:0007d246       ?narrow@?$ctype@D@std@@QBEDDD@Z 1007e246 f i libcpmt:xlocale.obj
 0001:0007d26a       ?neg_format@?$_Mpunct@D@std@@QBE?AUpattern@money_base@2@XZ 1007e26a f i libcpmt:xlocale.obj
 0001:0007d28e       ?negative_sign@?$_Mpunct@D@std@@QBE?AV?$basic_string@DU?$char_traits@D@std@@V?$allocator@D@2@@2@XZ 1007e28e f i libcpmt:xlocale.obj
 0001:0007d2b3       ?pos_format@?$_Mpunct@D@std@@QBE?AUpattern@money_base@2@XZ 1007e2b3 f i libcpmt:xlocale.obj
 0001:0007d2d7       ?positive_sign@?$_Mpunct@D@std@@QBE?AV?$basic_string@DU?$char_traits@D@std@@V?$allocator@D@2@@2@XZ 1007e2d7 f i libcpmt:xlocale.obj
 0001:0007d2fc       ?thousands_sep@?$_Mpunct@D@std@@QBEDXZ 1007e2fc f i libcpmt:xlocale.obj
 0001:0007d314       ?widen@?$ctype@D@std@@QBEDD@Z 1007e314 f i libcpmt:xlocale.obj
 0001:0007d335       __Stolx                    1007e335 f   libcpmt:xstol.obj
 0001:0007d3e8       __Stoul                    1007e3e8 f   libcpmt:xstoul.obj
 0001:0007d400       __Stoulx                   1007e400 f   libcpmt:xstoul.obj
 0001:0007d574       __Stoll                    1007e574 f   libcpmt:xstoll.obj
 0001:0007d58c       __Stollx                   1007e58c f   libcpmt:xstoll.obj
 0001:0007d66c       __Stoull                   1007e66c f   libcpmt:xstoull.obj
 0001:0007d684       __Stoullx                  1007e684 f   libcpmt:xstoull.obj
 0001:0007d886       __Getcoll                  1007e886 f   libcpmt:xstrcoll.obj
 0001:0007d8a7       __Strcoll                  1007e8a7 f   libcpmt:xstrcoll.obj
 0001:0007d936       __Getdateorder             1007e936 f   libcpmt:xdateord.obj
 0001:0007d9aa       __Mbrtowc                  1007e9aa f   libcpmt:xmbtowc.obj
 0001:0007db33       __Wcscoll                  1007eb33 f   libcpmt:xwcscoll.obj
 0001:0007dbb7       ??$?RE@__crt_internal_free_policy@@QBEXQBE@Z 1007ebb7 f i libcpmt:xwcsxfrm.obj
 0001:0007dbc7       ??0?$__crt_unique_heap_ptr@EU__crt_internal_free_policy@@@@QAE@QAE@Z 1007ebc7 f i libcpmt:xwcsxfrm.obj
 0001:0007dbd5       ??1?$__crt_unique_heap_ptr@EU__crt_internal_free_policy@@@@QAE@XZ 1007ebd5 f i libcpmt:xwcsxfrm.obj
 0001:0007dbe8       ??B?$__crt_unique_heap_ptr@EU__crt_internal_free_policy@@@@QBE_NXZ 1007ebe8 f i libcpmt:xwcsxfrm.obj
 0001:0007dbef       ?get@?$__crt_unique_heap_ptr@EU__crt_internal_free_policy@@@@QBEPAEXZ 1007ebef f i libcpmt:xwcsxfrm.obj
 0001:0007dbf2       ?is_valid@?$__crt_unique_heap_ptr@EU__crt_internal_free_policy@@@@QBE_NXZ 1007ebf2 f i libcpmt:xwcsxfrm.obj
 0001:0007dbf9       ?release@?$__crt_unique_heap_ptr@EU__crt_internal_free_policy@@@@QAEXXZ 1007ebf9 f i libcpmt:xwcsxfrm.obj
 0001:0007dc0c       __Wcsxfrm                  1007ec0c f   libcpmt:xwcsxfrm.obj
 0001:0007dcd3       __Getwctype                1007ecd3 f   libcpmt:xgetwctype.obj
 0001:0007dcf3       __Getwctypes               1007ecf3 f   libcpmt:xgetwctype.obj
 0001:0007dd12       __Towlower                 1007ed12 f   libcpmt:xtowlower.obj
 0001:0007dd72       __Towupper                 1007ed72 f   libcpmt:xtowupper.obj
 0001:0007ddd6       __Strxfrm                  1007edd6 f   libcpmt:xstrxfrm.obj
 0001:0007de80       ___crtCompareStringA       1007ee80 f   libcpmt:StlCompareStringA.obj
 0001:0007e0f5       ___crtCompareStringW       1007f0f5 f   libcpmt:StlCompareStringW.obj
 0001:0007e15a       ___crtLCMapStringW         1007f15a f   libcpmt:StlLCMapStringW.obj
 0001:0007e197       ??2@YAPAXI@Z               1007f197 f   LIBCMT:new_scalar.obj
 0001:0007e1c7       ??3@YAXPAXI@Z              1007f1c7 f   LIBCMT:delete_scalar_size.obj
 0001:0007e1d5       @__security_check_cookie@4 1007f1d5 f   LIBCMT:secchk.obj
 0001:0007e1f0       ___vdecl_sinf4             1007f1f0 f   LIBCMT:svml_ssinf4_dispatch.obj
 0001:0007e210       ___libm_sse2_sincosf_      1007f210 f   LIBCMT:svml_ssinf4_dispatch.obj
 0001:0007e260       ___libm_sse2_sincosf4_     1007f260 f   LIBCMT:svml_ssinf4_dispatch.obj
 0001:0007e270       ??1type_info@@UAE@XZ       1007f270 f   LIBCMT:std_type_info_static.obj
 0001:0007e277       ??_Etype_info@@UAEPAXI@Z   1007f277 f i LIBCMT:std_type_info_static.obj
 0001:0007e277       ??_Gtype_info@@UAEPAXI@Z   1007f277 f i LIBCMT:std_type_info_static.obj
 0001:0007e29a       ??_V@YAXPAX@Z              1007f29a f   LIBCMT:delete_array.obj
 0001:0007e29f       ?configure_argv@__scrt_narrow_argv_policy@@SAHXZ 1007f29f f i LIBCMT:utility.obj
 0001:0007e2ee       ?initialize_environment@__scrt_narrow_environment_policy@@SAHXZ 1007f2ee f i LIBCMT:utility.obj
 0001:0007e326       _NtCurrentTeb              1007f326 f i LIBCMT:utility.obj
 0001:0007e32d       ___scrt_acquire_startup_lock 1007f32d f   LIBCMT:utility.obj
 0001:0007e35f       ___scrt_dllmain_after_initialize_c 1007f35f f   LIBCMT:utility.obj
 0001:0007e38a       ___scrt_dllmain_before_initialize_c 1007f38a f   LIBCMT:utility.obj
 0001:0007e398       ___scrt_dllmain_crt_thread_attach 1007f398 f   LIBCMT:utility.obj
 0001:0007e3b7       ___scrt_dllmain_crt_thread_detach 1007f3b7 f   LIBCMT:utility.obj
 0001:0007e3c4       ___scrt_dllmain_exception_filter 1007f3c4 f   LIBCMT:utility.obj
 0001:0007e3f8       ___scrt_dllmain_uninitialize_c 1007f3f8 f   LIBCMT:utility.obj
 0001:0007e41b       ___scrt_dllmain_uninitialize_critical 1007f41b f   LIBCMT:utility.obj
 0001:0007e428       ___scrt_initialize_crt     1007f428 f   LIBCMT:utility.obj
 0001:0007e461       ___scrt_initialize_onexit_tables 1007f461 f   LIBCMT:utility.obj
 0001:0007e4e8       ___scrt_is_nonwritable_in_current_image 1007f4e8 f   LIBCMT:utility.obj
 0001:0007e57f       ___scrt_release_startup_lock 1007f57f f   LIBCMT:utility.obj
 0001:0007e59c       ___scrt_uninitialize_crt   1007f59c f   LIBCMT:utility.obj
 0001:0007e5c4       __onexit                   1007f5c4 f   LIBCMT:utility.obj
 0001:0007e5f2       _at_quick_exit             1007f5f2 f   LIBCMT:utility.obj
 0001:0007e615       _atexit                    1007f615 f   LIBCMT:utility.obj
 0001:0007e62a       ??_L@YGXPAXIHP6EX0@Z1@Z    1007f62a f   LIBCMT:ehvecctr.obj
 0001:0007e62f       ??_L@YGXPAXIIP6EX0@Z1@Z    1007f62f f   LIBCMT:ehvecctr.obj
 0001:0007e6a3       ??_M@YGXPAXIHP6EX0@Z@Z     1007f6a3 f   LIBCMT:ehvecdtr.obj
 0001:0007e6a8       ??_M@YGXPAXIIP6EX0@Z@Z     1007f6a8 f   LIBCMT:ehvecdtr.obj
 0001:0007e75f       ?__ArrayUnwind@@YGXPAXIIP6EX0@Z@Z 1007f75f f   LIBCMT:ehvecdtr.obj
 0001:0007e7ef       ??_U@YAPAXI@Z              1007f7ef f   LIBCMT:new_array.obj
 0001:0007e800       ___vdecl_sin2              1007f800 f   LIBCMT:svml_dsin2_dispatch.obj
 0001:0007e820       ___libm_sse2_sincos_       1007f820 f   LIBCMT:svml_dsin2_dispatch.obj
 0001:0007e870       __ftoui3                   1007f870 f   LIBCMT:ftol3.obj
 0001:0007e8c0       __ftoul3                   1007f8c0 f   LIBCMT:ftol3.obj
 0001:0007e930       __ftoul3_legacy            1007f930 f   LIBCMT:ftol3.obj
 0001:0007e960       __ftol3                    1007f960 f   LIBCMT:ftol3.obj
 0001:0007e9d0       __dtoui3                   1007f9d0 f   LIBCMT:ftol3.obj
 0001:0007ea50       __dtoul3                   1007fa50 f   LIBCMT:ftol3.obj
 0001:0007eb00       __dtoul3_legacy            1007fb00 f   LIBCMT:ftol3.obj
 0001:0007eb30       __dtol3                    1007fb30 f   LIBCMT:ftol3.obj
 0001:0007ebe0       __ultod3                   1007fbe0 f   LIBCMT:ftol3.obj
 0001:0007ec30       __ltod3                    1007fc30 f   LIBCMT:ftol3.obj
 0001:0007ec80       __ultof3                   1007fc80 f   LIBCMT:ftol3.obj
 0001:0007ed00       __ltof3                    1007fd00 f   LIBCMT:ftol3.obj
 0001:0007ed46       ___isa_available_init      1007fd46 f   LIBCMT:cpu_disp.obj
 0001:0007f060       __Init_thread_abort        10080060 f   LIBCMT:thread_safe_statics.obj
 0001:0007f08e       __Init_thread_footer       1008008e f   LIBCMT:thread_safe_statics.obj
 0001:0007f0df       __Init_thread_header       100800df f   LIBCMT:thread_safe_statics.obj
 0001:0007f131       __Init_thread_lock         10080131 f   LIBCMT:thread_safe_statics.obj
 0001:0007f13d       __Init_thread_notify       1008013d f   LIBCMT:thread_safe_statics.obj
 0001:0007f149       __Init_thread_unlock       10080149 f   LIBCMT:thread_safe_statics.obj
 0001:0007f155       __Init_thread_wait_v2      10080155 f   LIBCMT:thread_safe_statics.obj
 0001:0007f170       __aullshr                  10080170 f   LIBCMT:ullshr.obj
 0001:0007f190       __alloca_probe             10080190 f   LIBCMT:chkstk.obj
 0001:0007f190       __chkstk                   10080190 f   LIBCMT:chkstk.obj
 0001:0007f1c0       __allmul                   100801c0 f   LIBCMT:llmul.obj
 0001:0007f200       __allshl                   10080200 f   LIBCMT:llshl.obj
 0001:0007f56c       __CRT_INIT@12              1008056c f   LIBCMT:dll_dllmain.obj
 0001:0007f575       __DllMainCRTStartup@12     10080575 f   LIBCMT:dll_dllmain.obj
 0001:0007f598       __EH_epilog3               10080598 f   LIBCMT:ehprolg3.obj
 0001:0007f5ac       __EH_epilog3_GS            100805ac f   LIBCMT:ehprolg3.obj
 0001:0007f5bb       __EH_epilog3_catch_GS      100805bb f   LIBCMT:ehprolg3.obj
 0001:0007f5ca       __EH_prolog3               100805ca f   LIBCMT:ehprolg3.obj
 0001:0007f5fd       __EH_prolog3_GS            100805fd f   LIBCMT:ehprolg3.obj
 0001:0007f633       __EH_prolog3_catch         10080633 f   LIBCMT:ehprolg3.obj
 0001:0007f669       __EH_prolog3_catch_GS      10080669 f   LIBCMT:ehprolg3.obj
 0001:0007f6a2       @_guard_check_icall_nop@4  100806a2 f i LIBCMT:guard_support.obj
 0001:0007f6a5       _ReadNoFence               100806a5 f i LIBCMT:guard_support.obj
 0001:0007f6af       _ReadPointerNoFence        100806af f i LIBCMT:guard_support.obj
 0001:0007f6b9       __InlineInterlockedExchangePointer 100806b9 f i LIBCMT:guard_support.obj
 0001:0007f6c6       ___castguard_check_failure_debugbreak 100806c6 f i LIBCMT:guard_support.obj
 0001:0007f6e1       ___castguard_check_failure_fastfail 100806e1 f i LIBCMT:guard_support.obj
 0001:0007f700       ___castguard_check_failure_nop 10080700 f i LIBCMT:guard_support.obj
 0001:0007f703       ___castguard_check_failure_os_handled 10080703 f i LIBCMT:guard_support.obj
 0001:0007f73a       ___castguard_check_failure_user_handled 1008073a f i LIBCMT:guard_support.obj
 0001:0007f7a8       ___castguard_set_user_handler 100807a8 f i LIBCMT:guard_support.obj
 0001:0007f7b7       ___castguard_slow_path_check_debugbreak 100807b7 f i LIBCMT:guard_support.obj
 0001:0007f7e4       ___castguard_slow_path_check_fastfail 100807e4 f i LIBCMT:guard_support.obj
 0001:0007f815       ___castguard_slow_path_check_nop 10080815 f i LIBCMT:guard_support.obj
 0001:0007f818       ___castguard_slow_path_check_os_handled 10080818 f i LIBCMT:guard_support.obj
 0001:0007f854       ___castguard_slow_path_check_user_handled 10080854 f i LIBCMT:guard_support.obj
 0001:0007f8b5       __guard_icall_checks_enforced 100808b5 f i LIBCMT:guard_support.obj
 0001:0007f8d0       __alloca_probe_16          100808d0 f   LIBCMT:alloca16.obj
 0001:0007f8e6       __alloca_probe_8           100808e6     LIBCMT:alloca16.obj
 0001:0007f900       __aulldiv                  10080900 f   LIBCMT:ulldiv.obj
 0001:0007f968       ?__scrt_throw_std_bad_alloc@@YAXXZ 10080968 f   LIBCMT:throw_bad_alloc.obj
 0001:0007f985       ?__scrt_throw_std_bad_array_new_length@@YAXXZ 10080985 f   LIBCMT:throw_bad_alloc.obj
 0001:0007f9a2       ??3@YAXPAX@Z               100809a2 f   LIBCMT:delete_scalar.obj
 0001:0007f9a7       ___raise_securityfailure   100809a7 f   LIBCMT:gs_report.obj
 0001:0007f9cf       ___report_gsfailure        100809cf f   LIBCMT:gs_report.obj
 0001:0007faca       ___report_rangecheckfailure 10080aca f   LIBCMT:gs_report.obj
 0001:0007fad7       ___report_securityfailure  10080ad7 f   LIBCMT:gs_report.obj
 0001:0007fba7       ___report_securityfailureEx 10080ba7 f   LIBCMT:gs_report.obj
 0001:0007fcd0       ___sse2_sinf4@@16          10080cd0 f   LIBCMT:svml_ssinf4_sse2.obj
 0001:0007fe90       ___sse4_sinf4@@16          10080e90 f   LIBCMT:svml_ssinf4_sse4.obj
 0001:00080525       __get_startup_argv_mode    10081525 f   LIBCMT:argv_mode.obj
 0001:00080529       ___scrt_is_ucrt_dll_in_use 10081529 f   LIBCMT:ucrt_detection.obj
 0001:00080535       ___scrt_fastfail           10081535 f   LIBCMT:utility_desktop.obj
 0001:0008064a       ___scrt_get_show_window_mode 1008164a f   LIBCMT:utility_desktop.obj
 0001:0008067a       ___scrt_initialize_mta     1008167a f   LIBCMT:utility_desktop.obj
 0001:0008067f       ___scrt_initialize_winrt   1008167f f   LIBCMT:utility_desktop.obj
 0001:00080682       ___scrt_is_managed_app     10081682 f   LIBCMT:utility_desktop.obj
 0001:000806c4       ___scrt_set_unhandled_exception_filter 100816c4 f   LIBCMT:utility_desktop.obj
 0001:000806d0       ___scrt_exe_initialize_mta 100816d0 f   LIBCMT:utility_desktop.obj
 0001:000806d0       ___scrt_stub_for_initialize_mta 100816d0 f   LIBCMT:utility_desktop.obj
 0001:000806d3       ___scrt_unhandled_exception_filter@4 100816d3 f   LIBCMT:utility_desktop.obj
 0001:00080729       __crt_debugger_hook        10081729 f   LIBCMT:utility_desktop.obj
 0001:00080740       __SEH_prolog4              10081740 f   LIBCMT:sehprolg4.obj
 0001:00080790       __SEH_epilog4              10081790 f   LIBCMT:sehprolg4.obj
 0001:000807b0       ___sse2_sin2@@16           100817b0 f   LIBCMT:svml_dsin2_sse2.obj
 0001:00080da0       ___sse4_sin2@@16           10081da0 f   LIBCMT:svml_dsin2_sse4.obj
 0001:000813cd       ___security_init_cookie    100823cd f   LIBCMT:gs_support.obj
 0001:00081418       _DllMain@12                10082418 f   LIBCMT:dll_dllmain_stub.obj
 0001:0008141e       ?__scrt_initialize_type_info@@YAXXZ 1008241e f   LIBCMT:tncleanup.obj
 0001:0008142a       ?__scrt_uninitialize_type_info@@YAXXZ 1008242a f   LIBCMT:tncleanup.obj
 0001:00081436       ___local_stdio_scanf_options 10082436 f i LIBCMT:default_local_stdio_options.obj
 0001:0008143c       ___scrt_initialize_default_local_stdio_options 1008243c f   LIBCMT:default_local_stdio_options.obj
 0001:00081459       ___scrt_get_dyn_tls_init_callback 10082459 f   LIBCMT:dyn_tls_init.obj
 0001:0008145f       __RTC_Initialize           1008245f f   LIBCMT:initsect.obj
 0001:0008148b       __RTC_Terminate            1008248b f   LIBCMT:initsect.obj
 0001:000814c0       ___common_sin_reduction_LA 100824c0 f   LIBCMT:svml_dtrig.obj
 0001:00081850       ___common_cos_reduction_LA 10082850 f   LIBCMT:svml_dtrig.obj
 0001:00081b60       ___common_pi04_reduction_LA 10082b60 f   LIBCMT:svml_dtrig.obj
 0001:00081ea0       ___common_ssin_cout_rare   10082ea0 f   LIBCMT:svml_s_sin_cout.obj
 0001:00081f20       ___common_dsin_cout_rare   10082f20 f   LIBCMT:svml_d_sin_cout.obj
 0001:00081fa0       ??$?RD@__crt_public_free_policy@@QBEXQBD@Z 10082fa0 f i libvcruntime:std_exception.obj
 0001:00081fb0       ??0?$__crt_unique_heap_ptr@DU__crt_public_free_policy@@@@QAE@QAD@Z 10082fb0 f i libvcruntime:std_exception.obj
 0001:00081fbe       ??1?$__crt_unique_heap_ptr@DU__crt_public_free_policy@@@@QAE@XZ 10082fbe f i libvcruntime:std_exception.obj
 0001:00081fd1       ??B?$__crt_unique_heap_ptr@DU__crt_public_free_policy@@@@QBE_NXZ 10082fd1 f i libvcruntime:std_exception.obj
 0001:00081fd8       ?detach@?$__crt_unique_heap_ptr@DU__crt_public_free_policy@@@@QAEPADXZ 10082fd8 f i libvcruntime:std_exception.obj
 0001:00081fe1       ?get@?$__crt_unique_heap_ptr@DU__crt_public_free_policy@@@@QBEPADXZ 10082fe1 f i libvcruntime:std_exception.obj
 0001:00081fe4       ?is_valid@?$__crt_unique_heap_ptr@DU__crt_public_free_policy@@@@QBE_NXZ 10082fe4 f i libvcruntime:std_exception.obj
 0001:00081feb       ?release@?$__crt_unique_heap_ptr@DU__crt_public_free_policy@@@@QAEXXZ 10082feb f i libvcruntime:std_exception.obj
 0001:00081ffe       ___std_exception_copy      10082ffe f   libvcruntime:std_exception.obj
 0001:00082061       ___std_exception_destroy   10083061 f   libvcruntime:std_exception.obj
 0001:00082083       __CxxThrowException@8      10083083 f   libvcruntime:throw.obj
 0001:000820f0       ??$?0AAViterator@TryBlockMap@__FrameHandler3@@AAV012@$0A@@?$pair@Viterator@TryBlockMap@__FrameHandler3@@V123@@std@@QAE@AAViterator@TryBlockMap@__FrameHandler3@@0@Z 100830f0 f i libvcruntime:trnsctrl.obj
 0001:00082114       ??$forward@AAViterator@TryBlockMap@__FrameHandler3@@@std@@YAAAViterator@TryBlockMap@__FrameHandler3@@AAV123@@Z 10083114 f i libvcruntime:trnsctrl.obj
 0001:0008211c       ??0iterator@TryBlockMap@__FrameHandler3@@QAE@AAV12@I@Z 1008311c f i libvcruntime:trnsctrl.obj
 0001:00082130       ?GetRangeOfTrysToCheck@__FrameHandler3@@SA?AU?$pair@Viterator@TryBlockMap@__FrameHandler3@@V123@@std@@AAVTryBlockMap@1@HPAXPBU_s_FuncInfo@@H@Z 10083130 f   libvcruntime:trnsctrl.obj
 0001:0008219f       ?_CallCatchBlock2@@YAPAXPAUEHRegistrationNode@@PBU_s_FuncInfo@@PAXHK@Z 1008319f f   libvcruntime:trnsctrl.obj
 0001:000821ff       ?_CallSETranslator@@YAHPAUEHExceptionRecord@@PAUEHRegistrationNode@@PAX2PBU_s_FuncInfo@@H1@Z 100831ff f   libvcruntime:trnsctrl.obj
 0001:000822fe       ?_JumpToContinuation@@YGXPAXPAUEHRegistrationNode@@@Z 100832fe f   libvcruntime:trnsctrl.obj
 0001:0008232e       ?_UnwindNestedFrames@@YGXPAUEHRegistrationNode@@PAUEHExceptionRecord@@@Z 1008332e f   libvcruntime:trnsctrl.obj
 0001:00082382       __CatchGuardHandler        10083382 f   libvcruntime:trnsctrl.obj
 0001:000823b3       __CreateFrameInfo          100833b3 f   libvcruntime:trnsctrl.obj
 0001:000823d7       __FindAndUnlinkFrame       100833d7 f   libvcruntime:trnsctrl.obj
 0001:0008241f       __TranslatorGuardHandler   1008341f f   libvcruntime:trnsctrl.obj
 0001:000824be       ___CxxFrameHandler         100834be f   libvcruntime:trnsctrl.obj
 0001:000824f4       ___CxxFrameHandler2        100834f4 f   libvcruntime:trnsctrl.obj
 0001:0008252a       ___CxxFrameHandler3        1008352a f   libvcruntime:trnsctrl.obj
 0001:00082560       ___CxxLongjmpUnwind@4      10083560 f   libvcruntime:trnsctrl.obj
 0001:00082590       _memmove                   10083590 f   libvcruntime:memmove.obj
 0001:00082b10       _memset                    10083b10 f   libvcruntime:memset.obj
 0001:00082c6a       ??$__crt_interlocked_exchange_pointer@$$A6AXXZP6AXXZ@@YAP6AXXZPDS6AXXZQ6AXXZ@Z 10083c6a f i libvcruntime:purevirt.obj
 0001:00082c77       ??$__crt_interlocked_read_pointer@$$A6AXXZ@@YAP6AXXZPDS6AXXZ@Z 10083c77 f i libvcruntime:purevirt.obj
 0001:00082c82       ?__crt_interlocked_read_32@@YAHPDH@Z 10083c82 f i libvcruntime:purevirt.obj
 0001:00082c8d       __get_purecall_handler     10083c8d f   libvcruntime:purevirt.obj
 0001:00082c94       __purecall                 10083c94 f   libvcruntime:purevirt.obj
 0001:00082cb0       __set_purecall_handler     10083cb0 f   libvcruntime:purevirt.obj
 0001:00082d00       __except_handler4          10083d00 f   libvcruntime:chandler4.obj
 0001:00082e60       _memcpy                    10083e60 f   libvcruntime:memcpy.obj
 0001:000833e0       _memchr                    100843e0 f   libvcruntime:memchr.obj
 0001:0008348d       ___uncaught_exceptions     1008448d f   libvcruntime:uncaught_exceptions.obj
 0001:0008349d       ___DestructExceptionObject 1008449d f   libvcruntime:ehhelpers.obj
 0001:00083545       ?_CallMemberFunction0@@YGXQAX0@Z 10084545 f i libvcruntime:ehhelpers.obj
 0001:000835aa       ?raw_name@type_info@@QBEPBDXZ 100845aa f i libvcruntime:ehhelpers.obj
 0001:000835ae       __IsExceptionObjectToBeDestroyed 100845ae f   libvcruntime:ehhelpers.obj
 0001:000835d4       __SetWinRTOutOfMemoryExceptionCallback 100845d4 f   libvcruntime:ehhelpers.obj
 0001:000835e1       ___AdjustPointer           100845e1 f   libvcruntime:ehhelpers.obj
 0001:00083606       ___FrameUnwindFilter       10084606 f   libvcruntime:ehhelpers.obj
 0001:0008365c       ___GetPlatformExceptionInfo 1008465c f   libvcruntime:ehhelpers.obj
 0001:000836ae       ___current_exception       100846ae f   libvcruntime:ehhelpers.obj
 0001:000836b7       ___current_exception_context 100846b7 f   libvcruntime:ehhelpers.obj
 0001:000836c0       ___processing_throw        100846c0 f   libvcruntime:ehhelpers.obj
 0001:000836c9       ___std_terminate           100846c9 f   libvcruntime:ehhelpers.obj
 0001:000836ce       __is_exception_typeof      100846ce f   libvcruntime:ehhelpers.obj
 0001:0008387f       _memcmp                    1008487f f   libvcruntime:memcmp.obj
 0001:00086037       ___vcrt_initialize         10087037 f   libvcruntime:initialization.obj
 0001:00086056       ___vcrt_thread_attach      10087056 f   libvcruntime:initialization.obj
 0001:00086061       ___vcrt_thread_detach      10087061 f   libvcruntime:initialization.obj
 0001:00086069       ___vcrt_uninitialize       10087069 f   libvcruntime:initialization.obj
 0001:00086080       ___vcrt_uninitialize_critical 10087080 f   libvcruntime:initialization.obj
 0001:00086099       ??$?RD@__crt_internal_free_policy@@QBEXQBD@Z 10087099 f i libvcruntime:std_type_info.obj
 0001:000860a9       ??$?RX@__crt_internal_free_policy@@QBEXQBX@Z 100870a9 f i libvcruntime:std_type_info.obj
 0001:000860b9       ??$__crt_interlocked_compare_exchange_pointer@$$CBDPAD$$T@@YAPBDPDSBDQAD$$T@Z 100870b9 f i libvcruntime:std_type_info.obj
 0001:000860cb       ??$__crt_interlocked_read_pointer@$$CBD@@YAPBDPDSBD@Z 100870cb f i libvcruntime:std_type_info.obj
 0001:000860d6       ??0?$__crt_unique_heap_ptr@DU__crt_internal_free_policy@@@@QAE@QAD@Z 100870d6 f i libvcruntime:std_type_info.obj
 0001:000860e4       ??0?$__crt_unique_heap_ptr@XU__crt_internal_free_policy@@@@QAE@QAX@Z 100870e4 f i libvcruntime:std_type_info.obj
 0001:000860f2       ??1?$__crt_unique_heap_ptr@DU__crt_internal_free_policy@@@@QAE@XZ 100870f2 f i libvcruntime:std_type_info.obj
 0001:00086105       ??1?$__crt_unique_heap_ptr@XU__crt_internal_free_policy@@@@QAE@XZ 10087105 f i libvcruntime:std_type_info.obj
 0001:00086118       ??B?$__crt_unique_heap_ptr@DU__crt_internal_free_policy@@@@QBE_NXZ 10087118 f i libvcruntime:std_type_info.obj
 0001:0008611f       ??B?$__crt_unique_heap_ptr@XU__crt_internal_free_policy@@@@QBE_NXZ 1008711f f i libvcruntime:std_type_info.obj
 0001:00086146       ?detach@?$__crt_unique_heap_ptr@XU__crt_internal_free_policy@@@@QAEPAXXZ 10087146 f i libvcruntime:std_type_info.obj
 0001:0008614f       ?get@?$__crt_unique_heap_ptr@DU__crt_internal_free_policy@@@@QBEPADXZ 1008714f f i libvcruntime:std_type_info.obj
 0001:00086152       ?get@?$__crt_unique_heap_ptr@XU__crt_internal_free_policy@@@@QBEPAXXZ 10087152 f i libvcruntime:std_type_info.obj
 0001:00086155       ?is_valid@?$__crt_unique_heap_ptr@DU__crt_internal_free_policy@@@@QBE_NXZ 10087155 f i libvcruntime:std_type_info.obj
 0001:0008615c       ?is_valid@?$__crt_unique_heap_ptr@XU__crt_internal_free_policy@@@@QBE_NXZ 1008715c f i libvcruntime:std_type_info.obj
 0001:00086163       ?release@?$__crt_unique_heap_ptr@DU__crt_internal_free_policy@@@@QAEXXZ 10087163 f i libvcruntime:std_type_info.obj
 0001:00086176       ?release@?$__crt_unique_heap_ptr@XU__crt_internal_free_policy@@@@QAEXXZ 10087176 f i libvcruntime:std_type_info.obj
 0001:00086189       ___std_type_info_compare   10087189 f   libvcruntime:std_type_info.obj
 0001:000861c5       ___std_type_info_destroy_list 100871c5 f   libvcruntime:std_type_info.obj
 0001:000861e8       ___std_type_info_hash      100871e8 f   libvcruntime:std_type_info.obj
 0001:0008620e       ___std_type_info_name      1008720e f   libvcruntime:std_type_info.obj
 0001:000862d4       ??$?RU__vcrt_ptd@@@__crt_internal_free_policy@@QBEXQBU__vcrt_ptd@@@Z 100872d4 f i libvcruntime:per_thread_data.obj
 0001:000862e4       ??0?$__crt_unique_heap_ptr@U__vcrt_ptd@@U__crt_internal_free_policy@@@@QAE@QAU__vcrt_ptd@@@Z 100872e4 f i libvcruntime:per_thread_data.obj
 0001:00086301       ??1?$__crt_unique_heap_ptr@U__vcrt_ptd@@U__crt_internal_free_policy@@@@QAE@XZ 10087301 f i libvcruntime:per_thread_data.obj
 0001:0008631d       ??B?$__crt_unique_heap_ptr@U__vcrt_ptd@@U__crt_internal_free_policy@@@@QBE_NXZ 1008731d f i libvcruntime:per_thread_data.obj
 0001:00086324       ?detach@?$__crt_unique_heap_ptr@U__vcrt_ptd@@U__crt_internal_free_policy@@@@QAEPAU__vcrt_ptd@@XZ 10087324 f i libvcruntime:per_thread_data.obj
 0001:0008632d       ?get@?$__crt_unique_heap_ptr@U__vcrt_ptd@@U__crt_internal_free_policy@@@@QBEPAU__vcrt_ptd@@XZ 1008732d f i libvcruntime:per_thread_data.obj
 0001:00086330       ?is_valid@?$__crt_unique_heap_ptr@U__vcrt_ptd@@U__crt_internal_free_policy@@@@QBE_NXZ 10087330 f i libvcruntime:per_thread_data.obj
 0001:00086337       ?release@?$__crt_unique_heap_ptr@U__vcrt_ptd@@U__crt_internal_free_policy@@@@QAEXXZ 10087337 f i libvcruntime:per_thread_data.obj
 0001:00086364       ___vcrt_freefls@4          10087364 f   libvcruntime:per_thread_data.obj
 0001:00086380       ___vcrt_freeptd_for_this_thread 10087380 f   libvcruntime:per_thread_data.obj
 0001:000863ab       ___vcrt_getptd             100873ab f   libvcruntime:per_thread_data.obj
 0001:000863b9       ___vcrt_getptd_noexit      100873b9 f   libvcruntime:per_thread_data.obj
 0001:0008644b       ___vcrt_getptd_noinit      1008744b f   libvcruntime:per_thread_data.obj
 0001:00086483       ___vcrt_initialize_ptd     10087483 f   libvcruntime:per_thread_data.obj
 0001:000864b6       ___vcrt_uninitialize_ptd   100874b6 f   libvcruntime:per_thread_data.obj
 0001:00086c08       ??$TypeMatchHelper@V__FrameHandler3@@@@YAHPBU_s_HandlerType@@PBU_s_CatchableType@@PBU_s_ThrowInfo@@@Z 10087c08 f i libvcruntime:frame.obj
 0001:00086c96       ??$__InternalCxxFrameHandler@V__FrameHandler3@@@@YA?AW4_EXCEPTION_DISPOSITION@@PAUEHExceptionRecord@@PAUEHRegistrationNode@@PAU_CONTEXT@@PAXPBU_s_FuncInfo@@H1E@Z 10087c96 f i libvcruntime:frame.obj
 0001:00086d98       ??$__InternalCxxFrameHandlerWrapper@V__FrameHandler3@@@@YA?AW4_EXCEPTION_DISPOSITION@@PAUEHExceptionRecord@@PAUEHRegistrationNode@@PAU_CONTEXT@@PAXPBU_s_FuncInfo@@H1E@Z 10087d98 f i libvcruntime:frame.obj
 0001:00086da1       ??0HandlerMap@__FrameHandler3@@QAE@PBU_s_TryBlockMapEntry@@II@Z 10087da1 f i libvcruntime:frame.obj
 0001:00086db8       ??0TryBlockMap@__FrameHandler3@@QAE@PBU_s_FuncInfo@@I@Z 10087db8 f i libvcruntime:frame.obj
 0001:00086dcc       ??0bad_exception@std@@QAE@ABV01@@Z 10087dcc f i libvcruntime:frame.obj
 0001:00086de7       ??0bad_exception@std@@QAE@XZ 10087de7 f i libvcruntime:frame.obj
 0001:00086e05       ??0iterator@HandlerMap@__FrameHandler3@@QAE@AAV12@I@Z 10087e05 f i libvcruntime:frame.obj
 0001:00086e19       ??1bad_exception@std@@UAE@XZ 10087e19 f i libvcruntime:frame.obj
 0001:00086e2a       ??8iterator@HandlerMap@__FrameHandler3@@QBE_NABV012@@Z 10087e2a f i libvcruntime:frame.obj
 0001:00086e3d       ??8type_info@@QBE_NABV0@@Z 10087e3d f i libvcruntime:frame.obj
 0001:00086e5c       ??9iterator@HandlerMap@__FrameHandler3@@QBE_NABV012@@Z 10087e5c f i libvcruntime:frame.obj
 0001:00086e6f       ??Diterator@HandlerMap@__FrameHandler3@@QAE?BU_s_HandlerType@@XZ 10087e6f f i libvcruntime:frame.obj
 0001:00086e8e       ??Diterator@TryBlockMap@__FrameHandler3@@QAE?BU_s_TryBlockMapEntry@@XZ 10087e8e f i libvcruntime:frame.obj
 0001:00086eb0       ??Eiterator@HandlerMap@__FrameHandler3@@QAEAAV012@XZ 10087eb0 f i libvcruntime:frame.obj
 0001:00086eb6       ??Eiterator@TryBlockMap@__FrameHandler3@@QAEAAV012@XZ 10087eb6 f i libvcruntime:frame.obj
 0001:00086ebc       ??Miterator@TryBlockMap@__FrameHandler3@@QBE_NABV012@@Z 10087ebc f i libvcruntime:frame.obj
 0001:00086ecf       ??_Ebad_exception@std@@UAEPAXI@Z 10087ecf f i libvcruntime:frame.obj
 0001:00086ecf       ??_Gbad_exception@std@@UAEPAXI@Z 10087ecf f i libvcruntime:frame.obj
 0001:00086efc       ?BuildCatchObject@__FrameHandler3@@SAXPAUEHExceptionRecord@@PAXPBU_s_HandlerType@@PBU_s_CatchableType@@@Z 10087efc f   libvcruntime:frame.obj
 0001:00086f01       ?BuildCatchObjectHelper@__FrameHandler3@@SAHPAUEHExceptionRecord@@PAXPBU_s_HandlerType@@PBU_s_CatchableType@@@Z 10087f01 f   libvcruntime:frame.obj
 0001:00087165       ?FrameUnwindToEmptyState@__FrameHandler3@@SAXPAUEHRegistrationNode@@PAXPBU_s_FuncInfo@@@Z 10088165 f   libvcruntime:frame.obj
 0001:0008717d       ?FrameUnwindToState@__FrameHandler3@@SAXPAUEHRegistrationNode@@PAXPBU_s_FuncInfo@@H@Z 1008817d f   libvcruntime:frame.obj
 0001:0008726b       ?GetMaxState@__FrameHandler3@@SAHPAXPBU_s_FuncInfo@@@Z 1008826b f i libvcruntime:frame.obj
 0001:00087349       ?TypeMatch@__FrameHandler3@@SAHPBU_s_HandlerType@@PBU_s_CatchableType@@PBU_s_ThrowInfo@@@Z 10088349 f   libvcruntime:frame.obj
 0001:00087352       ?_CallMemberFunction1@@YGXQAX00@Z 10088352 f i libvcruntime:frame.obj
 0001:00087362       ?_CallMemberFunction2@@YGXQAX00H@Z 10088362 f i libvcruntime:frame.obj
 0001:00087375       ?begin@HandlerMap@__FrameHandler3@@QAE?AViterator@12@XZ 10088375 f i libvcruntime:frame.obj
 0001:00087388       ?end@HandlerMap@__FrameHandler3@@QAE?AViterator@12@XZ 10088388 f i libvcruntime:frame.obj
 0001:00087399       ?getESTypes@__FrameHandler3@@SAPBU_s_ESTypeList@@PBU_s_FuncInfo@@@Z 10088399 f i libvcruntime:frame.obj
 0001:000873a4       ?getLastEntry@HandlerMap@__FrameHandler3@@QAEPBU_s_HandlerType@@XZ 100883a4 f i libvcruntime:frame.obj
 0001:000873b2       ?getMagicNum@__FrameHandler3@@SAIPBU_s_FuncInfo@@@Z 100883b2 f i libvcruntime:frame.obj
 0001:000873c1       ?getNumTryBlocks@TryBlockMap@__FrameHandler3@@QAEIXZ 100883c1 f i libvcruntime:frame.obj
 0001:000873c7       ?isEHs@__FrameHandler3@@SA_NPBU_s_FuncInfo@@@Z 100883c7 f i libvcruntime:frame.obj
 0001:000873d4       ?isNoExcept@__FrameHandler3@@SA_NPBU_s_FuncInfo@@@Z 100883d4 f i libvcruntime:frame.obj
 0001:000873e4       ___BuildCatchObject        100883e4 f   libvcruntime:frame.obj
 0001:000873e9       ___BuildCatchObjectHelper  100883e9 f   libvcruntime:frame.obj
 0001:000873f2       ___TypeMatch               100883f2 f   libvcruntime:frame.obj
 0001:000873fb       ___vcrt_EncodePointer      100883fb f i libvcruntime:frame.obj
 0001:00087410       __CallSettingFrame@12      10088410 f   libvcruntime:lowhelpr.obj
 0001:00087437       __NLG_Return               10088437     libvcruntime:lowhelpr.obj
 0001:00087467       ___except_validate_context_record 10088467 f   libvcruntime:jbcxrval.obj
 0001:00087497       ___except_validate_jump_buffer 10088497 f   libvcruntime:jbcxrval.obj
 0001:000874c4       ___except_validate_jump_buffer_common 100884c4 f i libvcruntime:jbcxrval.obj
 0001:00087500       __local_unwind4            10088500 f   libvcruntime:exsup4.obj
 0001:000875f0       __seh_longjmp_unwind4@4    100885f0 f   libvcruntime:exsup4.obj
 0001:00087620       @_EH4_CallFilterFunc@8     10088620 f   libvcruntime:exsup4.obj
 0001:00087640       @_EH4_TransferToHandler@8  10088640 f   libvcruntime:exsup4.obj
 0001:00087660       @_EH4_GlobalUnwind2@8      10088660 f   libvcruntime:exsup4.obj
 0001:00087680       @_EH4_LocalUnwind@16       10088680 f   libvcruntime:exsup4.obj
 0001:00087697       ___vcrt_initialize_locks   10088697 f   libvcruntime:locks.obj
 0001:000876d3       ___vcrt_lock               100886d3 f   libvcruntime:locks.obj
